
IMU_FreeRTOS.elf:     file format elf32-littlearm

Sections:
Idx Name          Size      VMA       LMA       File off  Algn
  0 .text         0000c8f0  00400000  00400000  00008000  2**3
                  CONTENTS, ALLOC, LOAD, READONLY, CODE
  1 .ARM.exidx    00000008  0040c8f0  0040c8f0  000148f0  2**2
                  CONTENTS, ALLOC, LOAD, READONLY, DATA
  2 .relocate     0000097c  20000000  0040c8f8  00018000  2**3
                  CONTENTS, ALLOC, LOAD, CODE
  3 .bss          000035a4  20000980  0040d278  0001897c  2**3
                  ALLOC
  4 .stack        00000804  20003f24  0041081c  0001897c  2**0
                  ALLOC
  5 .ARM.attributes 00000029  00000000  00000000  0001897c  2**0
                  CONTENTS, READONLY
  6 .comment      0000005b  00000000  00000000  000189a5  2**0
                  CONTENTS, READONLY
  7 .debug_frame  00001170  00000000  00000000  00018a00  2**2
                  CONTENTS, READONLY, DEBUGGING

Disassembly of section .text:

00400000 <_sfixed>:
  400000:	20004728 	.word	0x20004728
  400004:	004021d1 	.word	0x004021d1
  400008:	004021cf 	.word	0x004021cf
  40000c:	004021cf 	.word	0x004021cf
  400010:	004021cf 	.word	0x004021cf
  400014:	004021cf 	.word	0x004021cf
  400018:	004021cf 	.word	0x004021cf
	...
  40002c:	00402411 	.word	0x00402411
  400030:	004021cf 	.word	0x004021cf
  400034:	00000000 	.word	0x00000000
  400038:	0040248d 	.word	0x0040248d
  40003c:	004024c9 	.word	0x004024c9
  400040:	004021cf 	.word	0x004021cf
  400044:	004021cf 	.word	0x004021cf
  400048:	004021cf 	.word	0x004021cf
  40004c:	004021cf 	.word	0x004021cf
  400050:	004021cf 	.word	0x004021cf
  400054:	004021cf 	.word	0x004021cf
  400058:	004021cf 	.word	0x004021cf
  40005c:	004021cf 	.word	0x004021cf
  400060:	00401285 	.word	0x00401285
  400064:	00401295 	.word	0x00401295
  400068:	004021cf 	.word	0x004021cf
  40006c:	00401e69 	.word	0x00401e69
  400070:	00401e7d 	.word	0x00401e7d
  400074:	00401e91 	.word	0x00401e91
  400078:	004021cf 	.word	0x004021cf
  40007c:	004021cf 	.word	0x004021cf
  400080:	004021cf 	.word	0x004021cf
  400084:	004021cf 	.word	0x004021cf
  400088:	004021cf 	.word	0x004021cf
  40008c:	00400e95 	.word	0x00400e95
  400090:	00400ea5 	.word	0x00400ea5
  400094:	00400119 	.word	0x00400119
  400098:	004021cf 	.word	0x004021cf
  40009c:	004021cf 	.word	0x004021cf
  4000a0:	004021cf 	.word	0x004021cf
  4000a4:	004021cf 	.word	0x004021cf
  4000a8:	004021cf 	.word	0x004021cf
  4000ac:	004021cf 	.word	0x004021cf
  4000b0:	004021cf 	.word	0x004021cf
  4000b4:	004021cf 	.word	0x004021cf
  4000b8:	004021cf 	.word	0x004021cf
  4000bc:	004021cf 	.word	0x004021cf
  4000c0:	004021cf 	.word	0x004021cf

004000c4 <__do_global_dtors_aux>:
  4000c4:	b510      	push	{r4, lr}
  4000c6:	4c05      	ldr	r4, [pc, #20]	; (4000dc <__do_global_dtors_aux+0x18>)
  4000c8:	7823      	ldrb	r3, [r4, #0]
  4000ca:	b933      	cbnz	r3, 4000da <__do_global_dtors_aux+0x16>
  4000cc:	4b04      	ldr	r3, [pc, #16]	; (4000e0 <__do_global_dtors_aux+0x1c>)
  4000ce:	b113      	cbz	r3, 4000d6 <__do_global_dtors_aux+0x12>
  4000d0:	4804      	ldr	r0, [pc, #16]	; (4000e4 <__do_global_dtors_aux+0x20>)
  4000d2:	f3af 8000 	nop.w
  4000d6:	2301      	movs	r3, #1
  4000d8:	7023      	strb	r3, [r4, #0]
  4000da:	bd10      	pop	{r4, pc}
  4000dc:	20000980 	.word	0x20000980
  4000e0:	00000000 	.word	0x00000000
  4000e4:	0040c8f8 	.word	0x0040c8f8

004000e8 <frame_dummy>:
  4000e8:	b508      	push	{r3, lr}
  4000ea:	4b06      	ldr	r3, [pc, #24]	; (400104 <frame_dummy+0x1c>)
  4000ec:	b11b      	cbz	r3, 4000f6 <frame_dummy+0xe>
  4000ee:	4806      	ldr	r0, [pc, #24]	; (400108 <frame_dummy+0x20>)
  4000f0:	4906      	ldr	r1, [pc, #24]	; (40010c <frame_dummy+0x24>)
  4000f2:	f3af 8000 	nop.w
  4000f6:	4806      	ldr	r0, [pc, #24]	; (400110 <frame_dummy+0x28>)
  4000f8:	6803      	ldr	r3, [r0, #0]
  4000fa:	b113      	cbz	r3, 400102 <frame_dummy+0x1a>
  4000fc:	4b05      	ldr	r3, [pc, #20]	; (400114 <frame_dummy+0x2c>)
  4000fe:	b103      	cbz	r3, 400102 <frame_dummy+0x1a>
  400100:	4798      	blx	r3
  400102:	bd08      	pop	{r3, pc}
  400104:	00000000 	.word	0x00000000
  400108:	0040c8f8 	.word	0x0040c8f8
  40010c:	20000984 	.word	0x20000984
  400110:	0040c8f8 	.word	0x0040c8f8
  400114:	00000000 	.word	0x00000000

00400118 <SPI_Handler>:
  400118:	b508      	push	{r3, lr}
  40011a:	4b01      	ldr	r3, [pc, #4]	; (400120 <SPI_Handler+0x8>)
  40011c:	4798      	blx	r3
  40011e:	bd08      	pop	{r3, pc}
  400120:	004016ed 	.word	0x004016ed

00400124 <config_lcd>:
  400124:	b538      	push	{r3, r4, r5, lr}
  400126:	4d23      	ldr	r5, [pc, #140]	; (4001b4 <config_lcd+0x90>)
  400128:	20b0      	movs	r0, #176	; 0xb0
  40012a:	23dc      	movs	r3, #220	; 0xdc
  40012c:	2400      	movs	r4, #0
  40012e:	e885 0019 	stmia.w	r5, {r0, r3, r4}
  400132:	f06f 437f 	mvn.w	r3, #4278190080	; 0xff000000
  400136:	60eb      	str	r3, [r5, #12]
  400138:	4b1f      	ldr	r3, [pc, #124]	; (4001b8 <config_lcd+0x94>)
  40013a:	4798      	blx	r3
  40013c:	4b1f      	ldr	r3, [pc, #124]	; (4001bc <config_lcd+0x98>)
  40013e:	4628      	mov	r0, r5
  400140:	4798      	blx	r3
  400142:	2008      	movs	r0, #8
  400144:	4b1e      	ldr	r3, [pc, #120]	; (4001c0 <config_lcd+0x9c>)
  400146:	4798      	blx	r3
  400148:	4b1e      	ldr	r3, [pc, #120]	; (4001c4 <config_lcd+0xa0>)
  40014a:	4798      	blx	r3
  40014c:	f64f 70ff 	movw	r0, #65535	; 0xffff
  400150:	4b1d      	ldr	r3, [pc, #116]	; (4001c8 <config_lcd+0xa4>)
  400152:	4798      	blx	r3
  400154:	2001      	movs	r0, #1
  400156:	2108      	movs	r1, #8
  400158:	2200      	movs	r2, #0
  40015a:	4d1c      	ldr	r5, [pc, #112]	; (4001cc <config_lcd+0xa8>)
  40015c:	47a8      	blx	r5
  40015e:	4b1c      	ldr	r3, [pc, #112]	; (4001d0 <config_lcd+0xac>)
  400160:	f843 0024 	str.w	r0, [r3, r4, lsl #2]
  400164:	f853 3024 	ldr.w	r3, [r3, r4, lsl #2]
  400168:	b91b      	cbnz	r3, 400172 <config_lcd+0x4e>
  40016a:	2019      	movs	r0, #25
  40016c:	4b19      	ldr	r3, [pc, #100]	; (4001d4 <config_lcd+0xb0>)
  40016e:	4798      	blx	r3
  400170:	e7fe      	b.n	400170 <config_lcd+0x4c>
  400172:	2001      	movs	r0, #1
  400174:	2108      	movs	r1, #8
  400176:	2200      	movs	r2, #0
  400178:	47a8      	blx	r5
  40017a:	4b17      	ldr	r3, [pc, #92]	; (4001d8 <config_lcd+0xb4>)
  40017c:	f843 0024 	str.w	r0, [r3, r4, lsl #2]
  400180:	f853 3024 	ldr.w	r3, [r3, r4, lsl #2]
  400184:	b91b      	cbnz	r3, 40018e <config_lcd+0x6a>
  400186:	2019      	movs	r0, #25
  400188:	4b12      	ldr	r3, [pc, #72]	; (4001d4 <config_lcd+0xb0>)
  40018a:	4798      	blx	r3
  40018c:	e7fe      	b.n	40018c <config_lcd+0x68>
  40018e:	2001      	movs	r0, #1
  400190:	2108      	movs	r1, #8
  400192:	2200      	movs	r2, #0
  400194:	47a8      	blx	r5
  400196:	4b11      	ldr	r3, [pc, #68]	; (4001dc <config_lcd+0xb8>)
  400198:	f843 0024 	str.w	r0, [r3, r4, lsl #2]
  40019c:	f853 3024 	ldr.w	r3, [r3, r4, lsl #2]
  4001a0:	b91b      	cbnz	r3, 4001aa <config_lcd+0x86>
  4001a2:	2019      	movs	r0, #25
  4001a4:	4b0b      	ldr	r3, [pc, #44]	; (4001d4 <config_lcd+0xb0>)
  4001a6:	4798      	blx	r3
  4001a8:	e7fe      	b.n	4001a8 <config_lcd+0x84>
  4001aa:	3401      	adds	r4, #1
  4001ac:	2c03      	cmp	r4, #3
  4001ae:	d1d1      	bne.n	400154 <config_lcd+0x30>
  4001b0:	bd38      	pop	{r3, r4, r5, pc}
  4001b2:	bf00      	nop
  4001b4:	20003e5c 	.word	0x20003e5c
  4001b8:	00401589 	.word	0x00401589
  4001bc:	00401799 	.word	0x00401799
  4001c0:	0040152d 	.word	0x0040152d
  4001c4:	00401705 	.word	0x00401705
  4001c8:	00401961 	.word	0x00401961
  4001cc:	00402805 	.word	0x00402805
  4001d0:	20003e50 	.word	0x20003e50
  4001d4:	004014f9 	.word	0x004014f9
  4001d8:	20003e34 	.word	0x20003e34
  4001dc:	20003e40 	.word	0x20003e40

004001e0 <LCDTask>:
  4001e0:	e92d 41f0 	stmdb	sp!, {r4, r5, r6, r7, r8, lr}
  4001e4:	2000      	movs	r0, #0
  4001e6:	b09a      	sub	sp, #104	; 0x68
  4001e8:	4d39      	ldr	r5, [pc, #228]	; (4002d0 <LCDTask+0xf0>)
  4001ea:	47a8      	blx	r5
  4001ec:	4c39      	ldr	r4, [pc, #228]	; (4002d4 <LCDTask+0xf4>)
  4001ee:	4a3a      	ldr	r2, [pc, #232]	; (4002d8 <LCDTask+0xf8>)
  4001f0:	2005      	movs	r0, #5
  4001f2:	210a      	movs	r1, #10
  4001f4:	47a0      	blx	r4
  4001f6:	f44f 70fa 	mov.w	r0, #500	; 0x1f4
  4001fa:	4b38      	ldr	r3, [pc, #224]	; (4002dc <LCDTask+0xfc>)
  4001fc:	4798      	blx	r3
  4001fe:	4f38      	ldr	r7, [pc, #224]	; (4002e0 <LCDTask+0x100>)
  400200:	a804      	add	r0, sp, #16
  400202:	2100      	movs	r1, #0
  400204:	2218      	movs	r2, #24
  400206:	47b8      	blx	r7
  400208:	2600      	movs	r6, #0
  40020a:	46b8      	mov	r8, r7
  40020c:	4b35      	ldr	r3, [pc, #212]	; (4002e4 <LCDTask+0x104>)
  40020e:	f04f 32ff 	mov.w	r2, #4294967295
  400212:	f853 0026 	ldr.w	r0, [r3, r6, lsl #2]
  400216:	ab04      	add	r3, sp, #16
  400218:	eb03 01c6 	add.w	r1, r3, r6, lsl #3
  40021c:	4f32      	ldr	r7, [pc, #200]	; (4002e8 <LCDTask+0x108>)
  40021e:	2301      	movs	r3, #1
  400220:	47b8      	blx	r7
  400222:	2801      	cmp	r0, #1
  400224:	d002      	beq.n	40022c <LCDTask+0x4c>
  400226:	2000      	movs	r0, #0
  400228:	4b30      	ldr	r3, [pc, #192]	; (4002ec <LCDTask+0x10c>)
  40022a:	4798      	blx	r3
  40022c:	3601      	adds	r6, #1
  40022e:	2e03      	cmp	r6, #3
  400230:	d1ec      	bne.n	40020c <LCDTask+0x2c>
  400232:	a80a      	add	r0, sp, #40	; 0x28
  400234:	2100      	movs	r1, #0
  400236:	2218      	movs	r2, #24
  400238:	47c0      	blx	r8
  40023a:	2600      	movs	r6, #0
  40023c:	4b2c      	ldr	r3, [pc, #176]	; (4002f0 <LCDTask+0x110>)
  40023e:	f04f 32ff 	mov.w	r2, #4294967295
  400242:	f853 0026 	ldr.w	r0, [r3, r6, lsl #2]
  400246:	ab0a      	add	r3, sp, #40	; 0x28
  400248:	eb03 01c6 	add.w	r1, r3, r6, lsl #3
  40024c:	2301      	movs	r3, #1
  40024e:	47b8      	blx	r7
  400250:	2801      	cmp	r0, #1
  400252:	d002      	beq.n	40025a <LCDTask+0x7a>
  400254:	2000      	movs	r0, #0
  400256:	4b25      	ldr	r3, [pc, #148]	; (4002ec <LCDTask+0x10c>)
  400258:	4798      	blx	r3
  40025a:	3601      	adds	r6, #1
  40025c:	2e03      	cmp	r6, #3
  40025e:	d1ed      	bne.n	40023c <LCDTask+0x5c>
  400260:	f06f 407f 	mvn.w	r0, #4278190080	; 0xff000000
  400264:	47a8      	blx	r5
  400266:	4e23      	ldr	r6, [pc, #140]	; (4002f4 <LCDTask+0x114>)
  400268:	211e      	movs	r1, #30
  40026a:	22b0      	movs	r2, #176	; 0xb0
  40026c:	23dc      	movs	r3, #220	; 0xdc
  40026e:	2000      	movs	r0, #0
  400270:	47b0      	blx	r6
  400272:	2000      	movs	r0, #0
  400274:	47a8      	blx	r5
  400276:	e9dd 2306 	ldrd	r2, r3, [sp, #24]
  40027a:	4e1f      	ldr	r6, [pc, #124]	; (4002f8 <LCDTask+0x118>)
  40027c:	e9cd 2300 	strd	r2, r3, [sp]
  400280:	e9dd 2308 	ldrd	r2, r3, [sp, #32]
  400284:	491d      	ldr	r1, [pc, #116]	; (4002fc <LCDTask+0x11c>)
  400286:	e9cd 2302 	strd	r2, r3, [sp, #8]
  40028a:	e9dd 2304 	ldrd	r2, r3, [sp, #16]
  40028e:	a810      	add	r0, sp, #64	; 0x40
  400290:	47b0      	blx	r6
  400292:	2005      	movs	r0, #5
  400294:	211e      	movs	r1, #30
  400296:	aa10      	add	r2, sp, #64	; 0x40
  400298:	47a0      	blx	r4
  40029a:	e9dd 230c 	ldrd	r2, r3, [sp, #48]	; 0x30
  40029e:	4918      	ldr	r1, [pc, #96]	; (400300 <LCDTask+0x120>)
  4002a0:	e9cd 2300 	strd	r2, r3, [sp]
  4002a4:	e9dd 230e 	ldrd	r2, r3, [sp, #56]	; 0x38
  4002a8:	a810      	add	r0, sp, #64	; 0x40
  4002aa:	e9cd 2302 	strd	r2, r3, [sp, #8]
  4002ae:	e9dd 230a 	ldrd	r2, r3, [sp, #40]	; 0x28
  4002b2:	47b0      	blx	r6
  4002b4:	216e      	movs	r1, #110	; 0x6e
  4002b6:	aa10      	add	r2, sp, #64	; 0x40
  4002b8:	2005      	movs	r0, #5
  4002ba:	47a0      	blx	r4
  4002bc:	4b11      	ldr	r3, [pc, #68]	; (400304 <LCDTask+0x124>)
  4002be:	4798      	blx	r3
  4002c0:	4911      	ldr	r1, [pc, #68]	; (400308 <LCDTask+0x128>)
  4002c2:	4602      	mov	r2, r0
  4002c4:	a810      	add	r0, sp, #64	; 0x40
  4002c6:	47b0      	blx	r6
  4002c8:	2005      	movs	r0, #5
  4002ca:	21be      	movs	r1, #190	; 0xbe
  4002cc:	aa10      	add	r2, sp, #64	; 0x40
  4002ce:	e791      	b.n	4001f4 <LCDTask+0x14>
  4002d0:	00401729 	.word	0x00401729
  4002d4:	00401a65 	.word	0x00401a65
  4002d8:	0040bb60 	.word	0x0040bb60
  4002dc:	00403135 	.word	0x00403135
  4002e0:	00406561 	.word	0x00406561
  4002e4:	20003e50 	.word	0x20003e50
  4002e8:	00402a71 	.word	0x00402a71
  4002ec:	00402e39 	.word	0x00402e39
  4002f0:	20003e40 	.word	0x20003e40
  4002f4:	004019c9 	.word	0x004019c9
  4002f8:	00406af1 	.word	0x00406af1
  4002fc:	0040bb6d 	.word	0x0040bb6d
  400300:	0040bb8e 	.word	0x0040bb8e
  400304:	00402685 	.word	0x00402685
  400308:	0040bbaf 	.word	0x0040bbaf

0040030c <usart_serial_getchar>:
  40030c:	b513      	push	{r0, r1, r4, lr}
  40030e:	2300      	movs	r3, #0
  400310:	9301      	str	r3, [sp, #4]
  400312:	4b16      	ldr	r3, [pc, #88]	; (40036c <usart_serial_getchar+0x60>)
  400314:	460c      	mov	r4, r1
  400316:	4298      	cmp	r0, r3
  400318:	d106      	bne.n	400328 <usart_serial_getchar+0x1c>
  40031a:	4814      	ldr	r0, [pc, #80]	; (40036c <usart_serial_getchar+0x60>)
  40031c:	4621      	mov	r1, r4
  40031e:	4b14      	ldr	r3, [pc, #80]	; (400370 <usart_serial_getchar+0x64>)
  400320:	4798      	blx	r3
  400322:	2800      	cmp	r0, #0
  400324:	d1f9      	bne.n	40031a <usart_serial_getchar+0xe>
  400326:	e01e      	b.n	400366 <usart_serial_getchar+0x5a>
  400328:	4b12      	ldr	r3, [pc, #72]	; (400374 <usart_serial_getchar+0x68>)
  40032a:	4298      	cmp	r0, r3
  40032c:	d106      	bne.n	40033c <usart_serial_getchar+0x30>
  40032e:	4811      	ldr	r0, [pc, #68]	; (400374 <usart_serial_getchar+0x68>)
  400330:	4621      	mov	r1, r4
  400332:	4b0f      	ldr	r3, [pc, #60]	; (400370 <usart_serial_getchar+0x64>)
  400334:	4798      	blx	r3
  400336:	2800      	cmp	r0, #0
  400338:	d1f9      	bne.n	40032e <usart_serial_getchar+0x22>
  40033a:	e014      	b.n	400366 <usart_serial_getchar+0x5a>
  40033c:	4b0e      	ldr	r3, [pc, #56]	; (400378 <usart_serial_getchar+0x6c>)
  40033e:	4298      	cmp	r0, r3
  400340:	d106      	bne.n	400350 <usart_serial_getchar+0x44>
  400342:	480d      	ldr	r0, [pc, #52]	; (400378 <usart_serial_getchar+0x6c>)
  400344:	a901      	add	r1, sp, #4
  400346:	4b0d      	ldr	r3, [pc, #52]	; (40037c <usart_serial_getchar+0x70>)
  400348:	4798      	blx	r3
  40034a:	2800      	cmp	r0, #0
  40034c:	d1f9      	bne.n	400342 <usart_serial_getchar+0x36>
  40034e:	e008      	b.n	400362 <usart_serial_getchar+0x56>
  400350:	4b0b      	ldr	r3, [pc, #44]	; (400380 <usart_serial_getchar+0x74>)
  400352:	4298      	cmp	r0, r3
  400354:	d107      	bne.n	400366 <usart_serial_getchar+0x5a>
  400356:	480a      	ldr	r0, [pc, #40]	; (400380 <usart_serial_getchar+0x74>)
  400358:	a901      	add	r1, sp, #4
  40035a:	4b08      	ldr	r3, [pc, #32]	; (40037c <usart_serial_getchar+0x70>)
  40035c:	4798      	blx	r3
  40035e:	2800      	cmp	r0, #0
  400360:	d1f9      	bne.n	400356 <usart_serial_getchar+0x4a>
  400362:	9b01      	ldr	r3, [sp, #4]
  400364:	7023      	strb	r3, [r4, #0]
  400366:	b002      	add	sp, #8
  400368:	bd10      	pop	{r4, pc}
  40036a:	bf00      	nop
  40036c:	400e0600 	.word	0x400e0600
  400370:	00402197 	.word	0x00402197
  400374:	400e0800 	.word	0x400e0800
  400378:	40024000 	.word	0x40024000
  40037c:	004021b9 	.word	0x004021b9
  400380:	40028000 	.word	0x40028000

00400384 <usart_serial_putchar>:
  400384:	4b16      	ldr	r3, [pc, #88]	; (4003e0 <usart_serial_putchar+0x5c>)
  400386:	b510      	push	{r4, lr}
  400388:	4298      	cmp	r0, r3
  40038a:	460c      	mov	r4, r1
  40038c:	d107      	bne.n	40039e <usart_serial_putchar+0x1a>
  40038e:	4814      	ldr	r0, [pc, #80]	; (4003e0 <usart_serial_putchar+0x5c>)
  400390:	4621      	mov	r1, r4
  400392:	4b14      	ldr	r3, [pc, #80]	; (4003e4 <usart_serial_putchar+0x60>)
  400394:	4798      	blx	r3
  400396:	2800      	cmp	r0, #0
  400398:	d1f9      	bne.n	40038e <usart_serial_putchar+0xa>
  40039a:	2001      	movs	r0, #1
  40039c:	bd10      	pop	{r4, pc}
  40039e:	4b12      	ldr	r3, [pc, #72]	; (4003e8 <usart_serial_putchar+0x64>)
  4003a0:	4298      	cmp	r0, r3
  4003a2:	d106      	bne.n	4003b2 <usart_serial_putchar+0x2e>
  4003a4:	4810      	ldr	r0, [pc, #64]	; (4003e8 <usart_serial_putchar+0x64>)
  4003a6:	4621      	mov	r1, r4
  4003a8:	4b0e      	ldr	r3, [pc, #56]	; (4003e4 <usart_serial_putchar+0x60>)
  4003aa:	4798      	blx	r3
  4003ac:	2800      	cmp	r0, #0
  4003ae:	d1f9      	bne.n	4003a4 <usart_serial_putchar+0x20>
  4003b0:	e7f3      	b.n	40039a <usart_serial_putchar+0x16>
  4003b2:	4b0e      	ldr	r3, [pc, #56]	; (4003ec <usart_serial_putchar+0x68>)
  4003b4:	4298      	cmp	r0, r3
  4003b6:	d106      	bne.n	4003c6 <usart_serial_putchar+0x42>
  4003b8:	480c      	ldr	r0, [pc, #48]	; (4003ec <usart_serial_putchar+0x68>)
  4003ba:	4621      	mov	r1, r4
  4003bc:	4b0c      	ldr	r3, [pc, #48]	; (4003f0 <usart_serial_putchar+0x6c>)
  4003be:	4798      	blx	r3
  4003c0:	2800      	cmp	r0, #0
  4003c2:	d1f9      	bne.n	4003b8 <usart_serial_putchar+0x34>
  4003c4:	e7e9      	b.n	40039a <usart_serial_putchar+0x16>
  4003c6:	4b0b      	ldr	r3, [pc, #44]	; (4003f4 <usart_serial_putchar+0x70>)
  4003c8:	4298      	cmp	r0, r3
  4003ca:	d106      	bne.n	4003da <usart_serial_putchar+0x56>
  4003cc:	4809      	ldr	r0, [pc, #36]	; (4003f4 <usart_serial_putchar+0x70>)
  4003ce:	4621      	mov	r1, r4
  4003d0:	4b07      	ldr	r3, [pc, #28]	; (4003f0 <usart_serial_putchar+0x6c>)
  4003d2:	4798      	blx	r3
  4003d4:	2800      	cmp	r0, #0
  4003d6:	d1f9      	bne.n	4003cc <usart_serial_putchar+0x48>
  4003d8:	e7df      	b.n	40039a <usart_serial_putchar+0x16>
  4003da:	2000      	movs	r0, #0
  4003dc:	bd10      	pop	{r4, pc}
  4003de:	bf00      	nop
  4003e0:	400e0600 	.word	0x400e0600
  4003e4:	00402189 	.word	0x00402189
  4003e8:	400e0800 	.word	0x400e0800
  4003ec:	40024000 	.word	0x40024000
  4003f0:	004021a7 	.word	0x004021a7
  4003f4:	40028000 	.word	0x40028000

004003f8 <printf_mux>:
  4003f8:	b40f      	push	{r0, r1, r2, r3}
  4003fa:	b510      	push	{r4, lr}
  4003fc:	b0a4      	sub	sp, #144	; 0x90
  4003fe:	aa26      	add	r2, sp, #152	; 0x98
  400400:	f852 1b04 	ldr.w	r1, [r2], #4
  400404:	a804      	add	r0, sp, #16
  400406:	9203      	str	r2, [sp, #12]
  400408:	4b08      	ldr	r3, [pc, #32]	; (40042c <printf_mux+0x34>)
  40040a:	4798      	blx	r3
  40040c:	2300      	movs	r3, #0
  40040e:	9300      	str	r3, [sp, #0]
  400410:	4b07      	ldr	r3, [pc, #28]	; (400430 <printf_mux+0x38>)
  400412:	4602      	mov	r2, r0
  400414:	a904      	add	r1, sp, #16
  400416:	6818      	ldr	r0, [r3, #0]
  400418:	4c06      	ldr	r4, [pc, #24]	; (400434 <printf_mux+0x3c>)
  40041a:	f04f 33ff 	mov.w	r3, #4294967295
  40041e:	47a0      	blx	r4
  400420:	b024      	add	sp, #144	; 0x90
  400422:	e8bd 4010 	ldmia.w	sp!, {r4, lr}
  400426:	b004      	add	sp, #16
  400428:	4770      	bx	lr
  40042a:	bf00      	nop
  40042c:	00408e5d 	.word	0x00408e5d
  400430:	20003eb0 	.word	0x20003eb0
  400434:	00401205 	.word	0x00401205

00400438 <configure_console>:
  400438:	b570      	push	{r4, r5, r6, lr}
  40043a:	4b1b      	ldr	r3, [pc, #108]	; (4004a8 <configure_console+0x70>)
  40043c:	b088      	sub	sp, #32
  40043e:	9304      	str	r3, [sp, #16]
  400440:	4b1a      	ldr	r3, [pc, #104]	; (4004ac <configure_console+0x74>)
  400442:	4c1b      	ldr	r4, [pc, #108]	; (4004b0 <configure_console+0x78>)
  400444:	681b      	ldr	r3, [r3, #0]
  400446:	4a1b      	ldr	r2, [pc, #108]	; (4004b4 <configure_console+0x7c>)
  400448:	9305      	str	r3, [sp, #20]
  40044a:	230a      	movs	r3, #10
  40044c:	9306      	str	r3, [sp, #24]
  40044e:	2301      	movs	r3, #1
  400450:	f88d 301c 	strb.w	r3, [sp, #28]
  400454:	2303      	movs	r3, #3
  400456:	f88d 301d 	strb.w	r3, [sp, #29]
  40045a:	4b17      	ldr	r3, [pc, #92]	; (4004b8 <configure_console+0x80>)
  40045c:	4e17      	ldr	r6, [pc, #92]	; (4004bc <configure_console+0x84>)
  40045e:	9301      	str	r3, [sp, #4]
  400460:	f44f 33e1 	mov.w	r3, #115200	; 0x1c200
  400464:	9302      	str	r3, [sp, #8]
  400466:	f44f 6300 	mov.w	r3, #2048	; 0x800
  40046a:	9303      	str	r3, [sp, #12]
  40046c:	4b14      	ldr	r3, [pc, #80]	; (4004c0 <configure_console+0x88>)
  40046e:	2100      	movs	r1, #0
  400470:	601c      	str	r4, [r3, #0]
  400472:	4b14      	ldr	r3, [pc, #80]	; (4004c4 <configure_console+0x8c>)
  400474:	4d14      	ldr	r5, [pc, #80]	; (4004c8 <configure_console+0x90>)
  400476:	601a      	str	r2, [r3, #0]
  400478:	4a14      	ldr	r2, [pc, #80]	; (4004cc <configure_console+0x94>)
  40047a:	4b15      	ldr	r3, [pc, #84]	; (4004d0 <configure_console+0x98>)
  40047c:	601a      	str	r2, [r3, #0]
  40047e:	6833      	ldr	r3, [r6, #0]
  400480:	6898      	ldr	r0, [r3, #8]
  400482:	47a8      	blx	r5
  400484:	6833      	ldr	r3, [r6, #0]
  400486:	2100      	movs	r1, #0
  400488:	6858      	ldr	r0, [r3, #4]
  40048a:	47a8      	blx	r5
  40048c:	4b11      	ldr	r3, [pc, #68]	; (4004d4 <configure_console+0x9c>)
  40048e:	4620      	mov	r0, r4
  400490:	a901      	add	r1, sp, #4
  400492:	aa04      	add	r2, sp, #16
  400494:	4798      	blx	r3
  400496:	4b10      	ldr	r3, [pc, #64]	; (4004d8 <configure_console+0xa0>)
  400498:	6018      	str	r0, [r3, #0]
  40049a:	b918      	cbnz	r0, 4004a4 <configure_console+0x6c>
  40049c:	4b0f      	ldr	r3, [pc, #60]	; (4004dc <configure_console+0xa4>)
  40049e:	4798      	blx	r3
  4004a0:	bf00      	nop
  4004a2:	e7fd      	b.n	4004a0 <configure_console+0x68>
  4004a4:	b008      	add	sp, #32
  4004a6:	bd70      	pop	{r4, r5, r6, pc}
  4004a8:	20003e70 	.word	0x20003e70
  4004ac:	200000c4 	.word	0x200000c4
  4004b0:	400e0600 	.word	0x400e0600
  4004b4:	00400385 	.word	0x00400385
  4004b8:	02dc6c00 	.word	0x02dc6c00
  4004bc:	20000508 	.word	0x20000508
  4004c0:	20003ec8 	.word	0x20003ec8
  4004c4:	20003ec4 	.word	0x20003ec4
  4004c8:	004069e1 	.word	0x004069e1
  4004cc:	0040030d 	.word	0x0040030d
  4004d0:	20003ec0 	.word	0x20003ec0
  4004d4:	00401051 	.word	0x00401051
  4004d8:	20003eb0 	.word	0x20003eb0
  4004dc:	00402441 	.word	0x00402441

004004e0 <UARTTXTask>:
  4004e0:	b570      	push	{r4, r5, r6, lr}
  4004e2:	b0d4      	sub	sp, #336	; 0x150
  4004e4:	a822      	add	r0, sp, #136	; 0x88
  4004e6:	2100      	movs	r1, #0
  4004e8:	22c8      	movs	r2, #200	; 0xc8
  4004ea:	4c44      	ldr	r4, [pc, #272]	; (4005fc <UARTTXTask+0x11c>)
  4004ec:	47a0      	blx	r4
  4004ee:	4b44      	ldr	r3, [pc, #272]	; (400600 <UARTTXTask+0x120>)
  4004f0:	2100      	movs	r1, #0
  4004f2:	6818      	ldr	r0, [r3, #0]
  4004f4:	f04f 32ff 	mov.w	r2, #4294967295
  4004f8:	460b      	mov	r3, r1
  4004fa:	4e42      	ldr	r6, [pc, #264]	; (400604 <UARTTXTask+0x124>)
  4004fc:	47b0      	blx	r6
  4004fe:	a810      	add	r0, sp, #64	; 0x40
  400500:	2100      	movs	r1, #0
  400502:	2218      	movs	r2, #24
  400504:	47a0      	blx	r4
  400506:	2500      	movs	r5, #0
  400508:	4b3f      	ldr	r3, [pc, #252]	; (400608 <UARTTXTask+0x128>)
  40050a:	f04f 32ff 	mov.w	r2, #4294967295
  40050e:	f853 0025 	ldr.w	r0, [r3, r5, lsl #2]
  400512:	ab10      	add	r3, sp, #64	; 0x40
  400514:	eb03 01c5 	add.w	r1, r3, r5, lsl #3
  400518:	2301      	movs	r3, #1
  40051a:	47b0      	blx	r6
  40051c:	2801      	cmp	r0, #1
  40051e:	d002      	beq.n	400526 <UARTTXTask+0x46>
  400520:	2000      	movs	r0, #0
  400522:	4b3a      	ldr	r3, [pc, #232]	; (40060c <UARTTXTask+0x12c>)
  400524:	4798      	blx	r3
  400526:	3501      	adds	r5, #1
  400528:	2d03      	cmp	r5, #3
  40052a:	d1ed      	bne.n	400508 <UARTTXTask+0x28>
  40052c:	a816      	add	r0, sp, #88	; 0x58
  40052e:	2100      	movs	r1, #0
  400530:	2218      	movs	r2, #24
  400532:	47a0      	blx	r4
  400534:	2500      	movs	r5, #0
  400536:	4b36      	ldr	r3, [pc, #216]	; (400610 <UARTTXTask+0x130>)
  400538:	f04f 32ff 	mov.w	r2, #4294967295
  40053c:	f853 0025 	ldr.w	r0, [r3, r5, lsl #2]
  400540:	ab16      	add	r3, sp, #88	; 0x58
  400542:	eb03 01c5 	add.w	r1, r3, r5, lsl #3
  400546:	2301      	movs	r3, #1
  400548:	47b0      	blx	r6
  40054a:	2801      	cmp	r0, #1
  40054c:	d002      	beq.n	400554 <UARTTXTask+0x74>
  40054e:	2000      	movs	r0, #0
  400550:	4b2e      	ldr	r3, [pc, #184]	; (40060c <UARTTXTask+0x12c>)
  400552:	4798      	blx	r3
  400554:	3501      	adds	r5, #1
  400556:	2d03      	cmp	r5, #3
  400558:	d1ed      	bne.n	400536 <UARTTXTask+0x56>
  40055a:	a81c      	add	r0, sp, #112	; 0x70
  40055c:	2100      	movs	r1, #0
  40055e:	2218      	movs	r2, #24
  400560:	47a0      	blx	r4
  400562:	2500      	movs	r5, #0
  400564:	4b2b      	ldr	r3, [pc, #172]	; (400614 <UARTTXTask+0x134>)
  400566:	f04f 32ff 	mov.w	r2, #4294967295
  40056a:	f853 0025 	ldr.w	r0, [r3, r5, lsl #2]
  40056e:	ab1c      	add	r3, sp, #112	; 0x70
  400570:	eb03 01c5 	add.w	r1, r3, r5, lsl #3
  400574:	2301      	movs	r3, #1
  400576:	47b0      	blx	r6
  400578:	2801      	cmp	r0, #1
  40057a:	d002      	beq.n	400582 <UARTTXTask+0xa2>
  40057c:	2000      	movs	r0, #0
  40057e:	4b23      	ldr	r3, [pc, #140]	; (40060c <UARTTXTask+0x12c>)
  400580:	4798      	blx	r3
  400582:	3501      	adds	r5, #1
  400584:	2d03      	cmp	r5, #3
  400586:	d1ed      	bne.n	400564 <UARTTXTask+0x84>
  400588:	e9dd 2312 	ldrd	r2, r3, [sp, #72]	; 0x48
  40058c:	4922      	ldr	r1, [pc, #136]	; (400618 <UARTTXTask+0x138>)
  40058e:	e9cd 2300 	strd	r2, r3, [sp]
  400592:	e9dd 2314 	ldrd	r2, r3, [sp, #80]	; 0x50
  400596:	4d21      	ldr	r5, [pc, #132]	; (40061c <UARTTXTask+0x13c>)
  400598:	e9cd 2302 	strd	r2, r3, [sp, #8]
  40059c:	e9dd 231c 	ldrd	r2, r3, [sp, #112]	; 0x70
  4005a0:	a822      	add	r0, sp, #136	; 0x88
  4005a2:	e9cd 2304 	strd	r2, r3, [sp, #16]
  4005a6:	e9dd 231e 	ldrd	r2, r3, [sp, #120]	; 0x78
  4005aa:	e9cd 2306 	strd	r2, r3, [sp, #24]
  4005ae:	e9dd 2320 	ldrd	r2, r3, [sp, #128]	; 0x80
  4005b2:	e9cd 2308 	strd	r2, r3, [sp, #32]
  4005b6:	e9dd 2316 	ldrd	r2, r3, [sp, #88]	; 0x58
  4005ba:	e9cd 230a 	strd	r2, r3, [sp, #40]	; 0x28
  4005be:	e9dd 2318 	ldrd	r2, r3, [sp, #96]	; 0x60
  4005c2:	e9cd 230c 	strd	r2, r3, [sp, #48]	; 0x30
  4005c6:	e9dd 231a 	ldrd	r2, r3, [sp, #104]	; 0x68
  4005ca:	e9cd 230e 	strd	r2, r3, [sp, #56]	; 0x38
  4005ce:	e9dd 2310 	ldrd	r2, r3, [sp, #64]	; 0x40
  4005d2:	47a8      	blx	r5
  4005d4:	4b12      	ldr	r3, [pc, #72]	; (400620 <UARTTXTask+0x140>)
  4005d6:	a822      	add	r0, sp, #136	; 0x88
  4005d8:	4798      	blx	r3
  4005da:	2300      	movs	r3, #0
  4005dc:	9300      	str	r3, [sp, #0]
  4005de:	4b11      	ldr	r3, [pc, #68]	; (400624 <UARTTXTask+0x144>)
  4005e0:	4602      	mov	r2, r0
  4005e2:	a922      	add	r1, sp, #136	; 0x88
  4005e4:	6818      	ldr	r0, [r3, #0]
  4005e6:	4d10      	ldr	r5, [pc, #64]	; (400628 <UARTTXTask+0x148>)
  4005e8:	f04f 33ff 	mov.w	r3, #4294967295
  4005ec:	47a8      	blx	r5
  4005ee:	2800      	cmp	r0, #0
  4005f0:	f43f af7d 	beq.w	4004ee <UARTTXTask+0xe>
  4005f4:	2019      	movs	r0, #25
  4005f6:	4b0d      	ldr	r3, [pc, #52]	; (40062c <UARTTXTask+0x14c>)
  4005f8:	4798      	blx	r3
  4005fa:	e778      	b.n	4004ee <UARTTXTask+0xe>
  4005fc:	00406561 	.word	0x00406561
  400600:	20003e4c 	.word	0x20003e4c
  400604:	00402a71 	.word	0x00402a71
  400608:	20003e50 	.word	0x20003e50
  40060c:	00402e39 	.word	0x00402e39
  400610:	20003e34 	.word	0x20003e34
  400614:	20003e40 	.word	0x20003e40
  400618:	0040bbbd 	.word	0x0040bbbd
  40061c:	00406af1 	.word	0x00406af1
  400620:	00406b3d 	.word	0x00406b3d
  400624:	20003eb0 	.word	0x20003eb0
  400628:	00401205 	.word	0x00401205
  40062c:	00401c75 	.word	0x00401c75

00400630 <sysclk_init>:
  400630:	b510      	push	{r4, lr}
  400632:	480e      	ldr	r0, [pc, #56]	; (40066c <sysclk_init+0x3c>)
  400634:	4c0e      	ldr	r4, [pc, #56]	; (400670 <sysclk_init+0x40>)
  400636:	47a0      	blx	r4
  400638:	2000      	movs	r0, #0
  40063a:	213e      	movs	r1, #62	; 0x3e
  40063c:	4b0d      	ldr	r3, [pc, #52]	; (400674 <sysclk_init+0x44>)
  40063e:	4798      	blx	r3
  400640:	4b0d      	ldr	r3, [pc, #52]	; (400678 <sysclk_init+0x48>)
  400642:	4798      	blx	r3
  400644:	2800      	cmp	r0, #0
  400646:	d0fb      	beq.n	400640 <sysclk_init+0x10>
  400648:	4b0c      	ldr	r3, [pc, #48]	; (40067c <sysclk_init+0x4c>)
  40064a:	4798      	blx	r3
  40064c:	4a0c      	ldr	r2, [pc, #48]	; (400680 <sysclk_init+0x50>)
  40064e:	4b0d      	ldr	r3, [pc, #52]	; (400684 <sysclk_init+0x54>)
  400650:	629a      	str	r2, [r3, #40]	; 0x28
  400652:	4b0d      	ldr	r3, [pc, #52]	; (400688 <sysclk_init+0x58>)
  400654:	4798      	blx	r3
  400656:	2800      	cmp	r0, #0
  400658:	d0fb      	beq.n	400652 <sysclk_init+0x22>
  40065a:	4b0c      	ldr	r3, [pc, #48]	; (40068c <sysclk_init+0x5c>)
  40065c:	2010      	movs	r0, #16
  40065e:	4798      	blx	r3
  400660:	4b0b      	ldr	r3, [pc, #44]	; (400690 <sysclk_init+0x60>)
  400662:	4798      	blx	r3
  400664:	4801      	ldr	r0, [pc, #4]	; (40066c <sysclk_init+0x3c>)
  400666:	47a0      	blx	r4
  400668:	bd10      	pop	{r4, pc}
  40066a:	bf00      	nop
  40066c:	02dc6c00 	.word	0x02dc6c00
  400670:	20000089 	.word	0x20000089
  400674:	00401ee9 	.word	0x00401ee9
  400678:	00401f35 	.word	0x00401f35
  40067c:	00401f45 	.word	0x00401f45
  400680:	20073f01 	.word	0x20073f01
  400684:	400e0400 	.word	0x400e0400
  400688:	00401f55 	.word	0x00401f55
  40068c:	00401ea5 	.word	0x00401ea5
  400690:	00402251 	.word	0x00402251

00400694 <get_pdc_peripheral_details>:
  400694:	b510      	push	{r4, lr}
  400696:	2300      	movs	r3, #0
  400698:	428b      	cmp	r3, r1
  40069a:	d005      	beq.n	4006a8 <get_pdc_peripheral_details+0x14>
  40069c:	011c      	lsls	r4, r3, #4
  40069e:	5904      	ldr	r4, [r0, r4]
  4006a0:	4294      	cmp	r4, r2
  4006a2:	d001      	beq.n	4006a8 <get_pdc_peripheral_details+0x14>
  4006a4:	3301      	adds	r3, #1
  4006a6:	e7f7      	b.n	400698 <get_pdc_peripheral_details+0x4>
  4006a8:	4618      	mov	r0, r3
  4006aa:	bd10      	pop	{r4, pc}

004006ac <check_requested_operating_mode>:
  4006ac:	b510      	push	{r4, lr}
  4006ae:	2300      	movs	r3, #0
  4006b0:	4293      	cmp	r3, r2
  4006b2:	da04      	bge.n	4006be <check_requested_operating_mode+0x12>
  4006b4:	5ccc      	ldrb	r4, [r1, r3]
  4006b6:	4284      	cmp	r4, r0
  4006b8:	d003      	beq.n	4006c2 <check_requested_operating_mode+0x16>
  4006ba:	3301      	adds	r3, #1
  4006bc:	e7f8      	b.n	4006b0 <check_requested_operating_mode+0x4>
  4006be:	2000      	movs	r0, #0
  4006c0:	bd10      	pop	{r4, pc}
  4006c2:	2001      	movs	r0, #1
  4006c4:	bd10      	pop	{r4, pc}
	...

004006c8 <create_peripheral_control_semaphores>:
  4006c8:	b5f8      	push	{r3, r4, r5, r6, r7, lr}
  4006ca:	4614      	mov	r4, r2
  4006cc:	07c2      	lsls	r2, r0, #31
  4006ce:	4606      	mov	r6, r0
  4006d0:	460d      	mov	r5, r1
  4006d2:	d508      	bpl.n	4006e6 <create_peripheral_control_semaphores+0x1e>
  4006d4:	2001      	movs	r0, #1
  4006d6:	4b22      	ldr	r3, [pc, #136]	; (400760 <create_peripheral_control_semaphores+0x98>)
  4006d8:	4798      	blx	r3
  4006da:	6068      	str	r0, [r5, #4]
  4006dc:	b918      	cbnz	r0, 4006e6 <create_peripheral_control_semaphores+0x1e>
  4006de:	4b21      	ldr	r3, [pc, #132]	; (400764 <create_peripheral_control_semaphores+0x9c>)
  4006e0:	4798      	blx	r3
  4006e2:	bf00      	nop
  4006e4:	e7fd      	b.n	4006e2 <create_peripheral_control_semaphores+0x1a>
  4006e6:	f006 0304 	and.w	r3, r6, #4
  4006ea:	f003 02ff 	and.w	r2, r3, #255	; 0xff
  4006ee:	b1bb      	cbz	r3, 400720 <create_peripheral_control_semaphores+0x58>
  4006f0:	2001      	movs	r0, #1
  4006f2:	2100      	movs	r1, #0
  4006f4:	2203      	movs	r2, #3
  4006f6:	4b1c      	ldr	r3, [pc, #112]	; (400768 <create_peripheral_control_semaphores+0xa0>)
  4006f8:	4798      	blx	r3
  4006fa:	6028      	str	r0, [r5, #0]
  4006fc:	b120      	cbz	r0, 400708 <create_peripheral_control_semaphores+0x40>
  4006fe:	2100      	movs	r1, #0
  400700:	460a      	mov	r2, r1
  400702:	460b      	mov	r3, r1
  400704:	4f19      	ldr	r7, [pc, #100]	; (40076c <create_peripheral_control_semaphores+0xa4>)
  400706:	47b8      	blx	r7
  400708:	6828      	ldr	r0, [r5, #0]
  40070a:	b918      	cbnz	r0, 400714 <create_peripheral_control_semaphores+0x4c>
  40070c:	4b15      	ldr	r3, [pc, #84]	; (400764 <create_peripheral_control_semaphores+0x9c>)
  40070e:	4798      	blx	r3
  400710:	bf00      	nop
  400712:	e7fd      	b.n	400710 <create_peripheral_control_semaphores+0x48>
  400714:	2100      	movs	r1, #0
  400716:	460a      	mov	r2, r1
  400718:	460b      	mov	r3, r1
  40071a:	4d15      	ldr	r5, [pc, #84]	; (400770 <create_peripheral_control_semaphores+0xa8>)
  40071c:	47a8      	blx	r5
  40071e:	e000      	b.n	400722 <create_peripheral_control_semaphores+0x5a>
  400720:	602a      	str	r2, [r5, #0]
  400722:	0733      	lsls	r3, r6, #28
  400724:	d518      	bpl.n	400758 <create_peripheral_control_semaphores+0x90>
  400726:	b1bc      	cbz	r4, 400758 <create_peripheral_control_semaphores+0x90>
  400728:	2001      	movs	r0, #1
  40072a:	2100      	movs	r1, #0
  40072c:	2203      	movs	r2, #3
  40072e:	4b0e      	ldr	r3, [pc, #56]	; (400768 <create_peripheral_control_semaphores+0xa0>)
  400730:	4798      	blx	r3
  400732:	6020      	str	r0, [r4, #0]
  400734:	b120      	cbz	r0, 400740 <create_peripheral_control_semaphores+0x78>
  400736:	2100      	movs	r1, #0
  400738:	460a      	mov	r2, r1
  40073a:	460b      	mov	r3, r1
  40073c:	4d0b      	ldr	r5, [pc, #44]	; (40076c <create_peripheral_control_semaphores+0xa4>)
  40073e:	47a8      	blx	r5
  400740:	6820      	ldr	r0, [r4, #0]
  400742:	b918      	cbnz	r0, 40074c <create_peripheral_control_semaphores+0x84>
  400744:	4b07      	ldr	r3, [pc, #28]	; (400764 <create_peripheral_control_semaphores+0x9c>)
  400746:	4798      	blx	r3
  400748:	bf00      	nop
  40074a:	e7fd      	b.n	400748 <create_peripheral_control_semaphores+0x80>
  40074c:	2100      	movs	r1, #0
  40074e:	460a      	mov	r2, r1
  400750:	460b      	mov	r3, r1
  400752:	4c07      	ldr	r4, [pc, #28]	; (400770 <create_peripheral_control_semaphores+0xa8>)
  400754:	47a0      	blx	r4
  400756:	bdf8      	pop	{r3, r4, r5, r6, r7, pc}
  400758:	2300      	movs	r3, #0
  40075a:	6023      	str	r3, [r4, #0]
  40075c:	bdf8      	pop	{r3, r4, r5, r6, r7, pc}
  40075e:	bf00      	nop
  400760:	00402995 	.word	0x00402995
  400764:	00402441 	.word	0x00402441
  400768:	00402805 	.word	0x00402805
  40076c:	00402881 	.word	0x00402881
  400770:	00402a71 	.word	0x00402a71

00400774 <configure_interrupt_controller>:
  400774:	290f      	cmp	r1, #15
  400776:	b510      	push	{r4, lr}
  400778:	d903      	bls.n	400782 <configure_interrupt_controller+0xe>
  40077a:	4b15      	ldr	r3, [pc, #84]	; (4007d0 <configure_interrupt_controller+0x5c>)
  40077c:	4798      	blx	r3
  40077e:	bf00      	nop
  400780:	e7fd      	b.n	40077e <configure_interrupt_controller+0xa>
  400782:	2909      	cmp	r1, #9
  400784:	d803      	bhi.n	40078e <configure_interrupt_controller+0x1a>
  400786:	4b12      	ldr	r3, [pc, #72]	; (4007d0 <configure_interrupt_controller+0x5c>)
  400788:	4798      	blx	r3
  40078a:	bf00      	nop
  40078c:	e7fd      	b.n	40078a <configure_interrupt_controller+0x16>
  40078e:	b2c2      	uxtb	r2, r0
  400790:	f002 031f 	and.w	r3, r2, #31
  400794:	2401      	movs	r4, #1
  400796:	409c      	lsls	r4, r3
  400798:	0943      	lsrs	r3, r0, #5
  40079a:	009b      	lsls	r3, r3, #2
  40079c:	f103 4360 	add.w	r3, r3, #3758096384	; 0xe0000000
  4007a0:	f503 4361 	add.w	r3, r3, #57600	; 0xe100
  4007a4:	2800      	cmp	r0, #0
  4007a6:	f8c3 4180 	str.w	r4, [r3, #384]	; 0x180
  4007aa:	ea4f 1101 	mov.w	r1, r1, lsl #4
  4007ae:	da05      	bge.n	4007bc <configure_interrupt_controller+0x48>
  4007b0:	f002 000f 	and.w	r0, r2, #15
  4007b4:	4a07      	ldr	r2, [pc, #28]	; (4007d4 <configure_interrupt_controller+0x60>)
  4007b6:	b2c9      	uxtb	r1, r1
  4007b8:	5411      	strb	r1, [r2, r0]
  4007ba:	e006      	b.n	4007ca <configure_interrupt_controller+0x56>
  4007bc:	f100 4060 	add.w	r0, r0, #3758096384	; 0xe0000000
  4007c0:	b2c9      	uxtb	r1, r1
  4007c2:	f500 4061 	add.w	r0, r0, #57600	; 0xe100
  4007c6:	f880 1300 	strb.w	r1, [r0, #768]	; 0x300
  4007ca:	601c      	str	r4, [r3, #0]
  4007cc:	bd10      	pop	{r4, pc}
  4007ce:	bf00      	nop
  4007d0:	00402441 	.word	0x00402441
  4007d4:	e000ed14 	.word	0xe000ed14

004007d8 <freertos_obtain_peripheral_access_mutex>:
  4007d8:	b537      	push	{r0, r1, r2, r4, r5, lr}
  4007da:	6843      	ldr	r3, [r0, #4]
  4007dc:	4605      	mov	r5, r0
  4007de:	460c      	mov	r4, r1
  4007e0:	b90b      	cbnz	r3, 4007e6 <freertos_obtain_peripheral_access_mutex+0xe>
  4007e2:	2000      	movs	r0, #0
  4007e4:	e013      	b.n	40080e <freertos_obtain_peripheral_access_mutex+0x36>
  4007e6:	4668      	mov	r0, sp
  4007e8:	4b0a      	ldr	r3, [pc, #40]	; (400814 <freertos_obtain_peripheral_access_mutex+0x3c>)
  4007ea:	4798      	blx	r3
  4007ec:	2100      	movs	r1, #0
  4007ee:	6868      	ldr	r0, [r5, #4]
  4007f0:	6822      	ldr	r2, [r4, #0]
  4007f2:	460b      	mov	r3, r1
  4007f4:	4d08      	ldr	r5, [pc, #32]	; (400818 <freertos_obtain_peripheral_access_mutex+0x40>)
  4007f6:	47a8      	blx	r5
  4007f8:	b140      	cbz	r0, 40080c <freertos_obtain_peripheral_access_mutex+0x34>
  4007fa:	4668      	mov	r0, sp
  4007fc:	4621      	mov	r1, r4
  4007fe:	4b07      	ldr	r3, [pc, #28]	; (40081c <freertos_obtain_peripheral_access_mutex+0x44>)
  400800:	4798      	blx	r3
  400802:	2801      	cmp	r0, #1
  400804:	d1ed      	bne.n	4007e2 <freertos_obtain_peripheral_access_mutex+0xa>
  400806:	2000      	movs	r0, #0
  400808:	6020      	str	r0, [r4, #0]
  40080a:	e000      	b.n	40080e <freertos_obtain_peripheral_access_mutex+0x36>
  40080c:	20fd      	movs	r0, #253	; 0xfd
  40080e:	b240      	sxtb	r0, r0
  400810:	b003      	add	sp, #12
  400812:	bd30      	pop	{r4, r5, pc}
  400814:	004033a9 	.word	0x004033a9
  400818:	00402a71 	.word	0x00402a71
  40081c:	004033d1 	.word	0x004033d1

00400820 <freertos_start_pdc_transfer>:
  400820:	b5f7      	push	{r0, r1, r2, r4, r5, r6, r7, lr}
  400822:	461c      	mov	r4, r3
  400824:	9b08      	ldr	r3, [sp, #32]
  400826:	460f      	mov	r7, r1
  400828:	4615      	mov	r5, r2
  40082a:	f89d 6024 	ldrb.w	r6, [sp, #36]	; 0x24
  40082e:	b103      	cbz	r3, 400832 <freertos_start_pdc_transfer+0x12>
  400830:	6003      	str	r3, [r0, #0]
  400832:	6800      	ldr	r0, [r0, #0]
  400834:	b128      	cbz	r0, 400842 <freertos_start_pdc_transfer+0x22>
  400836:	2100      	movs	r1, #0
  400838:	460a      	mov	r2, r1
  40083a:	460b      	mov	r3, r1
  40083c:	f8df c050 	ldr.w	ip, [pc, #80]	; 400890 <freertos_start_pdc_transfer+0x70>
  400840:	47e0      	blx	ip
  400842:	9501      	str	r5, [sp, #4]
  400844:	9700      	str	r7, [sp, #0]
  400846:	4b0e      	ldr	r3, [pc, #56]	; (400880 <freertos_start_pdc_transfer+0x60>)
  400848:	4d0e      	ldr	r5, [pc, #56]	; (400884 <freertos_start_pdc_transfer+0x64>)
  40084a:	4620      	mov	r0, r4
  40084c:	b15e      	cbz	r6, 400866 <freertos_start_pdc_transfer+0x46>
  40084e:	f44f 7100 	mov.w	r1, #512	; 0x200
  400852:	4798      	blx	r3
  400854:	4620      	mov	r0, r4
  400856:	4669      	mov	r1, sp
  400858:	2200      	movs	r2, #0
  40085a:	4b0b      	ldr	r3, [pc, #44]	; (400888 <freertos_start_pdc_transfer+0x68>)
  40085c:	4798      	blx	r3
  40085e:	4620      	mov	r0, r4
  400860:	f44f 7180 	mov.w	r1, #256	; 0x100
  400864:	e008      	b.n	400878 <freertos_start_pdc_transfer+0x58>
  400866:	2102      	movs	r1, #2
  400868:	4798      	blx	r3
  40086a:	4620      	mov	r0, r4
  40086c:	4669      	mov	r1, sp
  40086e:	4632      	mov	r2, r6
  400870:	4b06      	ldr	r3, [pc, #24]	; (40088c <freertos_start_pdc_transfer+0x6c>)
  400872:	4798      	blx	r3
  400874:	4620      	mov	r0, r4
  400876:	2101      	movs	r1, #1
  400878:	47a8      	blx	r5
  40087a:	b003      	add	sp, #12
  40087c:	bdf0      	pop	{r4, r5, r6, r7, pc}
  40087e:	bf00      	nop
  400880:	00401b21 	.word	0x00401b21
  400884:	00401b15 	.word	0x00401b15
  400888:	00401ae9 	.word	0x00401ae9
  40088c:	00401aff 	.word	0x00401aff
  400890:	00402a71 	.word	0x00402a71

00400894 <freertos_optionally_wait_transfer_completion>:
  400894:	b510      	push	{r4, lr}
  400896:	460b      	mov	r3, r1
  400898:	b109      	cbz	r1, 40089e <freertos_optionally_wait_transfer_completion+0xa>
  40089a:	2000      	movs	r0, #0
  40089c:	e007      	b.n	4008ae <freertos_optionally_wait_transfer_completion+0x1a>
  40089e:	6800      	ldr	r0, [r0, #0]
  4008a0:	2800      	cmp	r0, #0
  4008a2:	d0fa      	beq.n	40089a <freertos_optionally_wait_transfer_completion+0x6>
  4008a4:	4c03      	ldr	r4, [pc, #12]	; (4008b4 <freertos_optionally_wait_transfer_completion+0x20>)
  4008a6:	47a0      	blx	r4
  4008a8:	2801      	cmp	r0, #1
  4008aa:	d0f6      	beq.n	40089a <freertos_optionally_wait_transfer_completion+0x6>
  4008ac:	20fd      	movs	r0, #253	; 0xfd
  4008ae:	b240      	sxtb	r0, r0
  4008b0:	bd10      	pop	{r4, pc}
  4008b2:	bf00      	nop
  4008b4:	00402a71 	.word	0x00402a71

004008b8 <local_twi_handler>:
  4008b8:	e92d 4ff7 	stmdb	sp!, {r0, r1, r2, r4, r5, r6, r7, r8, r9, sl, fp, lr}
  4008bc:	4d67      	ldr	r5, [pc, #412]	; (400a5c <local_twi_handler+0x1a4>)
  4008be:	ea4f 1900 	mov.w	r9, r0, lsl #4
  4008c2:	f855 4009 	ldr.w	r4, [r5, r9]
  4008c6:	4b66      	ldr	r3, [pc, #408]	; (400a60 <local_twi_handler+0x1a8>)
  4008c8:	4606      	mov	r6, r0
  4008ca:	f04f 0b00 	mov.w	fp, #0
  4008ce:	4620      	mov	r0, r4
  4008d0:	f8cd b004 	str.w	fp, [sp, #4]
  4008d4:	4798      	blx	r3
  4008d6:	4b63      	ldr	r3, [pc, #396]	; (400a64 <local_twi_handler+0x1ac>)
  4008d8:	4607      	mov	r7, r0
  4008da:	4620      	mov	r0, r4
  4008dc:	4798      	blx	r3
  4008de:	4007      	ands	r7, r0
  4008e0:	f417 5300 	ands.w	r3, r7, #8192	; 0x2000
  4008e4:	eb05 0809 	add.w	r8, r5, r9
  4008e8:	46aa      	mov	sl, r5
  4008ea:	d040      	beq.n	40096e <local_twi_handler+0xb6>
  4008ec:	f8d8 0004 	ldr.w	r0, [r8, #4]
  4008f0:	f44f 7100 	mov.w	r1, #512	; 0x200
  4008f4:	4b5c      	ldr	r3, [pc, #368]	; (400a68 <local_twi_handler+0x1b0>)
  4008f6:	4798      	blx	r3
  4008f8:	4620      	mov	r0, r4
  4008fa:	f44f 5100 	mov.w	r1, #8192	; 0x2000
  4008fe:	4b5b      	ldr	r3, [pc, #364]	; (400a6c <local_twi_handler+0x1b4>)
  400900:	4798      	blx	r3
  400902:	465d      	mov	r5, fp
  400904:	6a23      	ldr	r3, [r4, #32]
  400906:	0759      	lsls	r1, r3, #29
  400908:	d405      	bmi.n	400916 <local_twi_handler+0x5e>
  40090a:	3501      	adds	r5, #1
  40090c:	1c6a      	adds	r2, r5, #1
  40090e:	d1f9      	bne.n	400904 <local_twi_handler+0x4c>
  400910:	f04f 0801 	mov.w	r8, #1
  400914:	e001      	b.n	40091a <local_twi_handler+0x62>
  400916:	f04f 0800 	mov.w	r8, #0
  40091a:	2302      	movs	r3, #2
  40091c:	6023      	str	r3, [r4, #0]
  40091e:	4b54      	ldr	r3, [pc, #336]	; (400a70 <local_twi_handler+0x1b8>)
  400920:	00f2      	lsls	r2, r6, #3
  400922:	f853 1036 	ldr.w	r1, [r3, r6, lsl #3]
  400926:	4413      	add	r3, r2
  400928:	685b      	ldr	r3, [r3, #4]
  40092a:	440b      	add	r3, r1
  40092c:	f813 3c01 	ldrb.w	r3, [r3, #-1]
  400930:	6363      	str	r3, [r4, #52]	; 0x34
  400932:	6a23      	ldr	r3, [r4, #32]
  400934:	07db      	lsls	r3, r3, #31
  400936:	d404      	bmi.n	400942 <local_twi_handler+0x8a>
  400938:	3501      	adds	r5, #1
  40093a:	1c68      	adds	r0, r5, #1
  40093c:	d1f9      	bne.n	400932 <local_twi_handler+0x7a>
  40093e:	f04f 0801 	mov.w	r8, #1
  400942:	4b4c      	ldr	r3, [pc, #304]	; (400a74 <local_twi_handler+0x1bc>)
  400944:	441a      	add	r2, r3
  400946:	6850      	ldr	r0, [r2, #4]
  400948:	469b      	mov	fp, r3
  40094a:	b128      	cbz	r0, 400958 <local_twi_handler+0xa0>
  40094c:	2100      	movs	r1, #0
  40094e:	aa01      	add	r2, sp, #4
  400950:	460b      	mov	r3, r1
  400952:	f8df c124 	ldr.w	ip, [pc, #292]	; 400a78 <local_twi_handler+0x1c0>
  400956:	47e0      	blx	ip
  400958:	3501      	adds	r5, #1
  40095a:	d009      	beq.n	400970 <local_twi_handler+0xb8>
  40095c:	f85b 0036 	ldr.w	r0, [fp, r6, lsl #3]
  400960:	b130      	cbz	r0, 400970 <local_twi_handler+0xb8>
  400962:	2100      	movs	r1, #0
  400964:	aa01      	add	r2, sp, #4
  400966:	460b      	mov	r3, r1
  400968:	4d43      	ldr	r5, [pc, #268]	; (400a78 <local_twi_handler+0x1c0>)
  40096a:	47a8      	blx	r5
  40096c:	e000      	b.n	400970 <local_twi_handler+0xb8>
  40096e:	4698      	mov	r8, r3
  400970:	04f9      	lsls	r1, r7, #19
  400972:	d547      	bpl.n	400a04 <local_twi_handler+0x14c>
  400974:	eb0a 0309 	add.w	r3, sl, r9
  400978:	6858      	ldr	r0, [r3, #4]
  40097a:	2102      	movs	r1, #2
  40097c:	4b3a      	ldr	r3, [pc, #232]	; (400a68 <local_twi_handler+0x1b0>)
  40097e:	4798      	blx	r3
  400980:	4620      	mov	r0, r4
  400982:	f44f 5180 	mov.w	r1, #4096	; 0x1000
  400986:	4b39      	ldr	r3, [pc, #228]	; (400a6c <local_twi_handler+0x1b4>)
  400988:	4798      	blx	r3
  40098a:	2500      	movs	r5, #0
  40098c:	6a23      	ldr	r3, [r4, #32]
  40098e:	079a      	lsls	r2, r3, #30
  400990:	d402      	bmi.n	400998 <local_twi_handler+0xe0>
  400992:	3501      	adds	r5, #1
  400994:	1c6b      	adds	r3, r5, #1
  400996:	d1f9      	bne.n	40098c <local_twi_handler+0xd4>
  400998:	2302      	movs	r3, #2
  40099a:	4935      	ldr	r1, [pc, #212]	; (400a70 <local_twi_handler+0x1b8>)
  40099c:	6023      	str	r3, [r4, #0]
  40099e:	00f3      	lsls	r3, r6, #3
  4009a0:	f851 0036 	ldr.w	r0, [r1, r6, lsl #3]
  4009a4:	4419      	add	r1, r3
  4009a6:	684a      	ldr	r2, [r1, #4]
  4009a8:	6b21      	ldr	r1, [r4, #48]	; 0x30
  4009aa:	4402      	add	r2, r0
  4009ac:	f802 1c02 	strb.w	r1, [r2, #-2]
  4009b0:	6a21      	ldr	r1, [r4, #32]
  4009b2:	0788      	lsls	r0, r1, #30
  4009b4:	d403      	bmi.n	4009be <local_twi_handler+0x106>
  4009b6:	3501      	adds	r5, #1
  4009b8:	1c69      	adds	r1, r5, #1
  4009ba:	d1f9      	bne.n	4009b0 <local_twi_handler+0xf8>
  4009bc:	e00d      	b.n	4009da <local_twi_handler+0x122>
  4009be:	1c68      	adds	r0, r5, #1
  4009c0:	d00b      	beq.n	4009da <local_twi_handler+0x122>
  4009c2:	6b21      	ldr	r1, [r4, #48]	; 0x30
  4009c4:	2500      	movs	r5, #0
  4009c6:	f802 1c01 	strb.w	r1, [r2, #-1]
  4009ca:	6a22      	ldr	r2, [r4, #32]
  4009cc:	07d1      	lsls	r1, r2, #31
  4009ce:	d404      	bmi.n	4009da <local_twi_handler+0x122>
  4009d0:	3501      	adds	r5, #1
  4009d2:	1c6a      	adds	r2, r5, #1
  4009d4:	d1f9      	bne.n	4009ca <local_twi_handler+0x112>
  4009d6:	f04f 0801 	mov.w	r8, #1
  4009da:	4a26      	ldr	r2, [pc, #152]	; (400a74 <local_twi_handler+0x1bc>)
  4009dc:	4413      	add	r3, r2
  4009de:	6858      	ldr	r0, [r3, #4]
  4009e0:	b128      	cbz	r0, 4009ee <local_twi_handler+0x136>
  4009e2:	2100      	movs	r1, #0
  4009e4:	aa01      	add	r2, sp, #4
  4009e6:	460b      	mov	r3, r1
  4009e8:	f8df c08c 	ldr.w	ip, [pc, #140]	; 400a78 <local_twi_handler+0x1c0>
  4009ec:	47e0      	blx	ip
  4009ee:	3501      	adds	r5, #1
  4009f0:	d008      	beq.n	400a04 <local_twi_handler+0x14c>
  4009f2:	4b22      	ldr	r3, [pc, #136]	; (400a7c <local_twi_handler+0x1c4>)
  4009f4:	f853 0036 	ldr.w	r0, [r3, r6, lsl #3]
  4009f8:	b120      	cbz	r0, 400a04 <local_twi_handler+0x14c>
  4009fa:	2100      	movs	r1, #0
  4009fc:	aa01      	add	r2, sp, #4
  4009fe:	460b      	mov	r3, r1
  400a00:	4d1d      	ldr	r5, [pc, #116]	; (400a78 <local_twi_handler+0x1c0>)
  400a02:	47a8      	blx	r5
  400a04:	f417 7f50 	tst.w	r7, #832	; 0x340
  400a08:	d102      	bne.n	400a10 <local_twi_handler+0x158>
  400a0a:	f1b8 0f00 	cmp.w	r8, #0
  400a0e:	d01d      	beq.n	400a4c <local_twi_handler+0x194>
  400a10:	eb0a 0509 	add.w	r5, sl, r9
  400a14:	4b14      	ldr	r3, [pc, #80]	; (400a68 <local_twi_handler+0x1b0>)
  400a16:	6868      	ldr	r0, [r5, #4]
  400a18:	f240 2102 	movw	r1, #514	; 0x202
  400a1c:	4798      	blx	r3
  400a1e:	05fb      	lsls	r3, r7, #23
  400a20:	bf5c      	itt	pl
  400a22:	2302      	movpl	r3, #2
  400a24:	6023      	strpl	r3, [r4, #0]
  400a26:	4620      	mov	r0, r4
  400a28:	f44f 5100 	mov.w	r1, #8192	; 0x2000
  400a2c:	4d0f      	ldr	r5, [pc, #60]	; (400a6c <local_twi_handler+0x1b4>)
  400a2e:	47a8      	blx	r5
  400a30:	4620      	mov	r0, r4
  400a32:	f44f 5180 	mov.w	r1, #4096	; 0x1000
  400a36:	47a8      	blx	r5
  400a38:	4b0e      	ldr	r3, [pc, #56]	; (400a74 <local_twi_handler+0x1bc>)
  400a3a:	eb03 06c6 	add.w	r6, r3, r6, lsl #3
  400a3e:	6870      	ldr	r0, [r6, #4]
  400a40:	b120      	cbz	r0, 400a4c <local_twi_handler+0x194>
  400a42:	2100      	movs	r1, #0
  400a44:	aa01      	add	r2, sp, #4
  400a46:	460b      	mov	r3, r1
  400a48:	4c0b      	ldr	r4, [pc, #44]	; (400a78 <local_twi_handler+0x1c0>)
  400a4a:	47a0      	blx	r4
  400a4c:	9b01      	ldr	r3, [sp, #4]
  400a4e:	b10b      	cbz	r3, 400a54 <local_twi_handler+0x19c>
  400a50:	4b0b      	ldr	r3, [pc, #44]	; (400a80 <local_twi_handler+0x1c8>)
  400a52:	4798      	blx	r3
  400a54:	b003      	add	sp, #12
  400a56:	e8bd 8ff0 	ldmia.w	sp!, {r4, r5, r6, r7, r8, r9, sl, fp, pc}
  400a5a:	bf00      	nop
  400a5c:	0040bc48 	.word	0x0040bc48
  400a60:	0040210f 	.word	0x0040210f
  400a64:	00402113 	.word	0x00402113
  400a68:	00401b21 	.word	0x00401b21
  400a6c:	00402109 	.word	0x00402109
  400a70:	200009a4 	.word	0x200009a4
  400a74:	200009ac 	.word	0x200009ac
  400a78:	004029f5 	.word	0x004029f5
  400a7c:	2000099c 	.word	0x2000099c
  400a80:	00402431 	.word	0x00402431

00400a84 <freertos_twi_master_init>:
  400a84:	e92d 47f3 	stmdb	sp!, {r0, r1, r4, r5, r6, r7, r8, r9, sl, lr}
  400a88:	f8df 8100 	ldr.w	r8, [pc, #256]	; 400b8c <freertos_twi_master_init+0x108>
  400a8c:	4604      	mov	r4, r0
  400a8e:	ae02      	add	r6, sp, #8
  400a90:	2303      	movs	r3, #3
  400a92:	f806 3d04 	strb.w	r3, [r6, #-4]!
  400a96:	460d      	mov	r5, r1
  400a98:	4622      	mov	r2, r4
  400a9a:	2101      	movs	r1, #1
  400a9c:	4b2c      	ldr	r3, [pc, #176]	; (400b50 <freertos_twi_master_init+0xcc>)
  400a9e:	4640      	mov	r0, r8
  400aa0:	4798      	blx	r3
  400aa2:	4631      	mov	r1, r6
  400aa4:	4607      	mov	r7, r0
  400aa6:	2201      	movs	r2, #1
  400aa8:	7b28      	ldrb	r0, [r5, #12]
  400aaa:	4b2a      	ldr	r3, [pc, #168]	; (400b54 <freertos_twi_master_init+0xd0>)
  400aac:	4798      	blx	r3
  400aae:	2f00      	cmp	r7, #0
  400ab0:	dc47      	bgt.n	400b42 <freertos_twi_master_init+0xbe>
  400ab2:	2800      	cmp	r0, #0
  400ab4:	d047      	beq.n	400b46 <freertos_twi_master_init+0xc2>
  400ab6:	4b28      	ldr	r3, [pc, #160]	; (400b58 <freertos_twi_master_init+0xd4>)
  400ab8:	ea4f 09c7 	mov.w	r9, r7, lsl #3
  400abc:	eb03 0a09 	add.w	sl, r3, r9
  400ac0:	4650      	mov	r0, sl
  400ac2:	4926      	ldr	r1, [pc, #152]	; (400b5c <freertos_twi_master_init+0xd8>)
  400ac4:	2208      	movs	r2, #8
  400ac6:	4e26      	ldr	r6, [pc, #152]	; (400b60 <freertos_twi_master_init+0xdc>)
  400ac8:	47b0      	blx	r6
  400aca:	b118      	cbz	r0, 400ad4 <freertos_twi_master_init+0x50>
  400acc:	4b25      	ldr	r3, [pc, #148]	; (400b64 <freertos_twi_master_init+0xe0>)
  400ace:	4798      	blx	r3
  400ad0:	bf00      	nop
  400ad2:	e7fd      	b.n	400ad0 <freertos_twi_master_init+0x4c>
  400ad4:	4b24      	ldr	r3, [pc, #144]	; (400b68 <freertos_twi_master_init+0xe4>)
  400ad6:	4921      	ldr	r1, [pc, #132]	; (400b5c <freertos_twi_master_init+0xd8>)
  400ad8:	4499      	add	r9, r3
  400ada:	4648      	mov	r0, r9
  400adc:	2208      	movs	r2, #8
  400ade:	47b0      	blx	r6
  400ae0:	b118      	cbz	r0, 400aea <freertos_twi_master_init+0x66>
  400ae2:	4b20      	ldr	r3, [pc, #128]	; (400b64 <freertos_twi_master_init+0xe0>)
  400ae4:	4798      	blx	r3
  400ae6:	bf00      	nop
  400ae8:	e7fd      	b.n	400ae6 <freertos_twi_master_init+0x62>
  400aea:	013f      	lsls	r7, r7, #4
  400aec:	eb08 0607 	add.w	r6, r8, r7
  400af0:	68b0      	ldr	r0, [r6, #8]
  400af2:	4b1e      	ldr	r3, [pc, #120]	; (400b6c <freertos_twi_master_init+0xe8>)
  400af4:	4798      	blx	r3
  400af6:	6870      	ldr	r0, [r6, #4]
  400af8:	f240 2102 	movw	r1, #514	; 0x202
  400afc:	4b1c      	ldr	r3, [pc, #112]	; (400b70 <freertos_twi_master_init+0xec>)
  400afe:	4798      	blx	r3
  400b00:	f858 6007 	ldr.w	r6, [r8, r7]
  400b04:	f04f 31ff 	mov.w	r1, #4294967295
  400b08:	4630      	mov	r0, r6
  400b0a:	4b1a      	ldr	r3, [pc, #104]	; (400b74 <freertos_twi_master_init+0xf0>)
  400b0c:	4798      	blx	r3
  400b0e:	4b1a      	ldr	r3, [pc, #104]	; (400b78 <freertos_twi_master_init+0xf4>)
  400b10:	4630      	mov	r0, r6
  400b12:	4798      	blx	r3
  400b14:	7b2b      	ldrb	r3, [r5, #12]
  400b16:	2b03      	cmp	r3, #3
  400b18:	d102      	bne.n	400b20 <freertos_twi_master_init+0x9c>
  400b1a:	4630      	mov	r0, r6
  400b1c:	4b17      	ldr	r3, [pc, #92]	; (400b7c <freertos_twi_master_init+0xf8>)
  400b1e:	4798      	blx	r3
  400b20:	7b68      	ldrb	r0, [r5, #13]
  400b22:	4651      	mov	r1, sl
  400b24:	464a      	mov	r2, r9
  400b26:	4b16      	ldr	r3, [pc, #88]	; (400b80 <freertos_twi_master_init+0xfc>)
  400b28:	4798      	blx	r3
  400b2a:	4447      	add	r7, r8
  400b2c:	4630      	mov	r0, r6
  400b2e:	f44f 7150 	mov.w	r1, #832	; 0x340
  400b32:	4b14      	ldr	r3, [pc, #80]	; (400b84 <freertos_twi_master_init+0x100>)
  400b34:	4798      	blx	r3
  400b36:	f997 000c 	ldrsb.w	r0, [r7, #12]
  400b3a:	68a9      	ldr	r1, [r5, #8]
  400b3c:	4b12      	ldr	r3, [pc, #72]	; (400b88 <freertos_twi_master_init+0x104>)
  400b3e:	4798      	blx	r3
  400b40:	e002      	b.n	400b48 <freertos_twi_master_init+0xc4>
  400b42:	2400      	movs	r4, #0
  400b44:	e000      	b.n	400b48 <freertos_twi_master_init+0xc4>
  400b46:	4604      	mov	r4, r0
  400b48:	4620      	mov	r0, r4
  400b4a:	b002      	add	sp, #8
  400b4c:	e8bd 87f0 	ldmia.w	sp!, {r4, r5, r6, r7, r8, r9, sl, pc}
  400b50:	00400695 	.word	0x00400695
  400b54:	004006ad 	.word	0x004006ad
  400b58:	200009ac 	.word	0x200009ac
  400b5c:	0040bc58 	.word	0x0040bc58
  400b60:	0040640d 	.word	0x0040640d
  400b64:	00402441 	.word	0x00402441
  400b68:	2000099c 	.word	0x2000099c
  400b6c:	00401f65 	.word	0x00401f65
  400b70:	00401b21 	.word	0x00401b21
  400b74:	00402109 	.word	0x00402109
  400b78:	0040211d 	.word	0x0040211d
  400b7c:	004020bb 	.word	0x004020bb
  400b80:	004006c9 	.word	0x004006c9
  400b84:	00402105 	.word	0x00402105
  400b88:	00400775 	.word	0x00400775
  400b8c:	0040bc48 	.word	0x0040bc48

00400b90 <freertos_twi_write_packet_async>:
  400b90:	e92d 4ff0 	stmdb	sp!, {r4, r5, r6, r7, r8, r9, sl, fp, lr}
  400b94:	4605      	mov	r5, r0
  400b96:	b085      	sub	sp, #20
  400b98:	9203      	str	r2, [sp, #12]
  400b9a:	460c      	mov	r4, r1
  400b9c:	469a      	mov	sl, r3
  400b9e:	484a      	ldr	r0, [pc, #296]	; (400cc8 <freertos_twi_write_packet_async+0x138>)
  400ba0:	2101      	movs	r1, #1
  400ba2:	462a      	mov	r2, r5
  400ba4:	4b49      	ldr	r3, [pc, #292]	; (400ccc <freertos_twi_write_packet_async+0x13c>)
  400ba6:	4798      	blx	r3
  400ba8:	f1b0 0b00 	subs.w	fp, r0, #0
  400bac:	f300 8085 	bgt.w	400cba <freertos_twi_write_packet_async+0x12a>
  400bb0:	68e3      	ldr	r3, [r4, #12]
  400bb2:	2b00      	cmp	r3, #0
  400bb4:	f000 8081 	beq.w	400cba <freertos_twi_write_packet_async+0x12a>
  400bb8:	f8df 9130 	ldr.w	r9, [pc, #304]	; 400cec <freertos_twi_write_packet_async+0x15c>
  400bbc:	ea4f 07cb 	mov.w	r7, fp, lsl #3
  400bc0:	eb09 0807 	add.w	r8, r9, r7
  400bc4:	4640      	mov	r0, r8
  400bc6:	a903      	add	r1, sp, #12
  400bc8:	4b41      	ldr	r3, [pc, #260]	; (400cd0 <freertos_twi_write_packet_async+0x140>)
  400bca:	4798      	blx	r3
  400bcc:	4606      	mov	r6, r0
  400bce:	2800      	cmp	r0, #0
  400bd0:	d175      	bne.n	400cbe <freertos_twi_write_packet_async+0x12e>
  400bd2:	6068      	str	r0, [r5, #4]
  400bd4:	7c22      	ldrb	r2, [r4, #16]
  400bd6:	6863      	ldr	r3, [r4, #4]
  400bd8:	0412      	lsls	r2, r2, #16
  400bda:	021b      	lsls	r3, r3, #8
  400bdc:	f402 02fe 	and.w	r2, r2, #8323072	; 0x7f0000
  400be0:	f403 7340 	and.w	r3, r3, #768	; 0x300
  400be4:	4313      	orrs	r3, r2
  400be6:	606b      	str	r3, [r5, #4]
  400be8:	6863      	ldr	r3, [r4, #4]
  400bea:	b15b      	cbz	r3, 400c04 <freertos_twi_write_packet_async+0x74>
  400bec:	2b01      	cmp	r3, #1
  400bee:	7822      	ldrb	r2, [r4, #0]
  400bf0:	d909      	bls.n	400c06 <freertos_twi_write_packet_async+0x76>
  400bf2:	7861      	ldrb	r1, [r4, #1]
  400bf4:	2b02      	cmp	r3, #2
  400bf6:	ea41 2202 	orr.w	r2, r1, r2, lsl #8
  400bfa:	d004      	beq.n	400c06 <freertos_twi_write_packet_async+0x76>
  400bfc:	78a3      	ldrb	r3, [r4, #2]
  400bfe:	ea43 2202 	orr.w	r2, r3, r2, lsl #8
  400c02:	e000      	b.n	400c06 <freertos_twi_write_packet_async+0x76>
  400c04:	4602      	mov	r2, r0
  400c06:	60ea      	str	r2, [r5, #12]
  400c08:	68e2      	ldr	r2, [r4, #12]
  400c0a:	482f      	ldr	r0, [pc, #188]	; (400cc8 <freertos_twi_write_packet_async+0x138>)
  400c0c:	2a01      	cmp	r2, #1
  400c0e:	ea4f 130b 	mov.w	r3, fp, lsl #4
  400c12:	d137      	bne.n	400c84 <freertos_twi_write_packet_async+0xf4>
  400c14:	f850 8003 	ldr.w	r8, [r0, r3]
  400c18:	f44f 7150 	mov.w	r1, #832	; 0x340
  400c1c:	4b2d      	ldr	r3, [pc, #180]	; (400cd4 <freertos_twi_write_packet_async+0x144>)
  400c1e:	4640      	mov	r0, r8
  400c20:	4798      	blx	r3
  400c22:	68a3      	ldr	r3, [r4, #8]
  400c24:	781b      	ldrb	r3, [r3, #0]
  400c26:	636b      	str	r3, [r5, #52]	; 0x34
  400c28:	2300      	movs	r3, #0
  400c2a:	6a2a      	ldr	r2, [r5, #32]
  400c2c:	05d1      	lsls	r1, r2, #23
  400c2e:	d50d      	bpl.n	400c4c <freertos_twi_write_packet_async+0xbc>
  400c30:	4640      	mov	r0, r8
  400c32:	f44f 7150 	mov.w	r1, #832	; 0x340
  400c36:	4b28      	ldr	r3, [pc, #160]	; (400cd8 <freertos_twi_write_packet_async+0x148>)
  400c38:	4798      	blx	r3
  400c3a:	444f      	add	r7, r9
  400c3c:	2100      	movs	r1, #0
  400c3e:	6878      	ldr	r0, [r7, #4]
  400c40:	460a      	mov	r2, r1
  400c42:	460b      	mov	r3, r1
  400c44:	4c25      	ldr	r4, [pc, #148]	; (400cdc <freertos_twi_write_packet_async+0x14c>)
  400c46:	47a0      	blx	r4
  400c48:	20f6      	movs	r0, #246	; 0xf6
  400c4a:	e039      	b.n	400cc0 <freertos_twi_write_packet_async+0x130>
  400c4c:	0754      	lsls	r4, r2, #29
  400c4e:	d403      	bmi.n	400c58 <freertos_twi_write_packet_async+0xc8>
  400c50:	3301      	adds	r3, #1
  400c52:	1c58      	adds	r0, r3, #1
  400c54:	d1e9      	bne.n	400c2a <freertos_twi_write_packet_async+0x9a>
  400c56:	26fd      	movs	r6, #253	; 0xfd
  400c58:	2202      	movs	r2, #2
  400c5a:	602a      	str	r2, [r5, #0]
  400c5c:	6a2a      	ldr	r2, [r5, #32]
  400c5e:	07d2      	lsls	r2, r2, #31
  400c60:	d403      	bmi.n	400c6a <freertos_twi_write_packet_async+0xda>
  400c62:	3301      	adds	r3, #1
  400c64:	1c59      	adds	r1, r3, #1
  400c66:	d1f9      	bne.n	400c5c <freertos_twi_write_packet_async+0xcc>
  400c68:	26fd      	movs	r6, #253	; 0xfd
  400c6a:	4640      	mov	r0, r8
  400c6c:	f44f 7150 	mov.w	r1, #832	; 0x340
  400c70:	4b19      	ldr	r3, [pc, #100]	; (400cd8 <freertos_twi_write_packet_async+0x148>)
  400c72:	4798      	blx	r3
  400c74:	444f      	add	r7, r9
  400c76:	2100      	movs	r1, #0
  400c78:	6878      	ldr	r0, [r7, #4]
  400c7a:	460a      	mov	r2, r1
  400c7c:	460b      	mov	r3, r1
  400c7e:	4c17      	ldr	r4, [pc, #92]	; (400cdc <freertos_twi_write_packet_async+0x14c>)
  400c80:	47a0      	blx	r4
  400c82:	e01c      	b.n	400cbe <freertos_twi_write_packet_async+0x12e>
  400c84:	68a1      	ldr	r1, [r4, #8]
  400c86:	4c16      	ldr	r4, [pc, #88]	; (400ce0 <freertos_twi_write_packet_async+0x150>)
  400c88:	4403      	add	r3, r0
  400c8a:	4427      	add	r7, r4
  400c8c:	2001      	movs	r0, #1
  400c8e:	f844 103b 	str.w	r1, [r4, fp, lsl #3]
  400c92:	685b      	ldr	r3, [r3, #4]
  400c94:	607a      	str	r2, [r7, #4]
  400c96:	4c13      	ldr	r4, [pc, #76]	; (400ce4 <freertos_twi_write_packet_async+0x154>)
  400c98:	9001      	str	r0, [sp, #4]
  400c9a:	3a01      	subs	r2, #1
  400c9c:	4640      	mov	r0, r8
  400c9e:	f8cd a000 	str.w	sl, [sp]
  400ca2:	47a0      	blx	r4
  400ca4:	4628      	mov	r0, r5
  400ca6:	f44f 5100 	mov.w	r1, #8192	; 0x2000
  400caa:	4b0b      	ldr	r3, [pc, #44]	; (400cd8 <freertos_twi_write_packet_async+0x148>)
  400cac:	4798      	blx	r3
  400cae:	4640      	mov	r0, r8
  400cb0:	4651      	mov	r1, sl
  400cb2:	9a03      	ldr	r2, [sp, #12]
  400cb4:	4b0c      	ldr	r3, [pc, #48]	; (400ce8 <freertos_twi_write_packet_async+0x158>)
  400cb6:	4798      	blx	r3
  400cb8:	e002      	b.n	400cc0 <freertos_twi_write_packet_async+0x130>
  400cba:	20f8      	movs	r0, #248	; 0xf8
  400cbc:	e000      	b.n	400cc0 <freertos_twi_write_packet_async+0x130>
  400cbe:	4630      	mov	r0, r6
  400cc0:	b240      	sxtb	r0, r0
  400cc2:	b005      	add	sp, #20
  400cc4:	e8bd 8ff0 	ldmia.w	sp!, {r4, r5, r6, r7, r8, r9, sl, fp, pc}
  400cc8:	0040bc48 	.word	0x0040bc48
  400ccc:	00400695 	.word	0x00400695
  400cd0:	004007d9 	.word	0x004007d9
  400cd4:	00402109 	.word	0x00402109
  400cd8:	00402105 	.word	0x00402105
  400cdc:	00402881 	.word	0x00402881
  400ce0:	200009a4 	.word	0x200009a4
  400ce4:	00400821 	.word	0x00400821
  400ce8:	00400895 	.word	0x00400895
  400cec:	200009ac 	.word	0x200009ac

00400cf0 <freertos_twi_read_packet_async>:
  400cf0:	e92d 47ff 	stmdb	sp!, {r0, r1, r2, r3, r4, r5, r6, r7, r8, r9, sl, lr}
  400cf4:	4604      	mov	r4, r0
  400cf6:	9203      	str	r2, [sp, #12]
  400cf8:	460d      	mov	r5, r1
  400cfa:	469a      	mov	sl, r3
  400cfc:	4859      	ldr	r0, [pc, #356]	; (400e64 <freertos_twi_read_packet_async+0x174>)
  400cfe:	2101      	movs	r1, #1
  400d00:	4622      	mov	r2, r4
  400d02:	4b59      	ldr	r3, [pc, #356]	; (400e68 <freertos_twi_read_packet_async+0x178>)
  400d04:	4798      	blx	r3
  400d06:	f1b0 0900 	subs.w	r9, r0, #0
  400d0a:	f300 80a3 	bgt.w	400e54 <freertos_twi_read_packet_async+0x164>
  400d0e:	68eb      	ldr	r3, [r5, #12]
  400d10:	2b00      	cmp	r3, #0
  400d12:	f000 809f 	beq.w	400e54 <freertos_twi_read_packet_async+0x164>
  400d16:	f8df 8178 	ldr.w	r8, [pc, #376]	; 400e90 <freertos_twi_read_packet_async+0x1a0>
  400d1a:	ea4f 07c9 	mov.w	r7, r9, lsl #3
  400d1e:	eb08 0007 	add.w	r0, r8, r7
  400d22:	a903      	add	r1, sp, #12
  400d24:	4b51      	ldr	r3, [pc, #324]	; (400e6c <freertos_twi_read_packet_async+0x17c>)
  400d26:	4798      	blx	r3
  400d28:	4606      	mov	r6, r0
  400d2a:	2800      	cmp	r0, #0
  400d2c:	f040 8094 	bne.w	400e58 <freertos_twi_read_packet_async+0x168>
  400d30:	4b4f      	ldr	r3, [pc, #316]	; (400e70 <freertos_twi_read_packet_async+0x180>)
  400d32:	4620      	mov	r0, r4
  400d34:	4798      	blx	r3
  400d36:	6066      	str	r6, [r4, #4]
  400d38:	686b      	ldr	r3, [r5, #4]
  400d3a:	7c2a      	ldrb	r2, [r5, #16]
  400d3c:	021b      	lsls	r3, r3, #8
  400d3e:	f403 7340 	and.w	r3, r3, #768	; 0x300
  400d42:	0412      	lsls	r2, r2, #16
  400d44:	f443 5380 	orr.w	r3, r3, #4096	; 0x1000
  400d48:	f402 02fe 	and.w	r2, r2, #8323072	; 0x7f0000
  400d4c:	4313      	orrs	r3, r2
  400d4e:	6063      	str	r3, [r4, #4]
  400d50:	686b      	ldr	r3, [r5, #4]
  400d52:	b15b      	cbz	r3, 400d6c <freertos_twi_read_packet_async+0x7c>
  400d54:	2b01      	cmp	r3, #1
  400d56:	782a      	ldrb	r2, [r5, #0]
  400d58:	d909      	bls.n	400d6e <freertos_twi_read_packet_async+0x7e>
  400d5a:	7869      	ldrb	r1, [r5, #1]
  400d5c:	2b02      	cmp	r3, #2
  400d5e:	ea41 2202 	orr.w	r2, r1, r2, lsl #8
  400d62:	d004      	beq.n	400d6e <freertos_twi_read_packet_async+0x7e>
  400d64:	78ab      	ldrb	r3, [r5, #2]
  400d66:	ea43 2202 	orr.w	r2, r3, r2, lsl #8
  400d6a:	e000      	b.n	400d6e <freertos_twi_read_packet_async+0x7e>
  400d6c:	4632      	mov	r2, r6
  400d6e:	60e2      	str	r2, [r4, #12]
  400d70:	68ea      	ldr	r2, [r5, #12]
  400d72:	483c      	ldr	r0, [pc, #240]	; (400e64 <freertos_twi_read_packet_async+0x174>)
  400d74:	2a02      	cmp	r2, #2
  400d76:	ea4f 1309 	mov.w	r3, r9, lsl #4
  400d7a:	d84c      	bhi.n	400e16 <freertos_twi_read_packet_async+0x126>
  400d7c:	f850 9003 	ldr.w	r9, [r0, r3]
  400d80:	f44f 7150 	mov.w	r1, #832	; 0x340
  400d84:	4648      	mov	r0, r9
  400d86:	4b3b      	ldr	r3, [pc, #236]	; (400e74 <freertos_twi_read_packet_async+0x184>)
  400d88:	4798      	blx	r3
  400d8a:	68eb      	ldr	r3, [r5, #12]
  400d8c:	68a8      	ldr	r0, [r5, #8]
  400d8e:	2b01      	cmp	r3, #1
  400d90:	d103      	bne.n	400d9a <freertos_twi_read_packet_async+0xaa>
  400d92:	2203      	movs	r2, #3
  400d94:	6022      	str	r2, [r4, #0]
  400d96:	461a      	mov	r2, r3
  400d98:	e00b      	b.n	400db2 <freertos_twi_read_packet_async+0xc2>
  400d9a:	2201      	movs	r2, #1
  400d9c:	6022      	str	r2, [r4, #0]
  400d9e:	2200      	movs	r2, #0
  400da0:	e007      	b.n	400db2 <freertos_twi_read_packet_async+0xc2>
  400da2:	2b01      	cmp	r3, #1
  400da4:	d019      	beq.n	400dda <freertos_twi_read_packet_async+0xea>
  400da6:	07ad      	lsls	r5, r5, #30
  400da8:	d51c      	bpl.n	400de4 <freertos_twi_read_packet_async+0xf4>
  400daa:	6b21      	ldr	r1, [r4, #48]	; 0x30
  400dac:	3b01      	subs	r3, #1
  400dae:	7001      	strb	r1, [r0, #0]
  400db0:	3001      	adds	r0, #1
  400db2:	2100      	movs	r1, #0
  400db4:	b1d3      	cbz	r3, 400dec <freertos_twi_read_packet_async+0xfc>
  400db6:	6a25      	ldr	r5, [r4, #32]
  400db8:	f415 7f80 	tst.w	r5, #256	; 0x100
  400dbc:	d0f1      	beq.n	400da2 <freertos_twi_read_packet_async+0xb2>
  400dbe:	4648      	mov	r0, r9
  400dc0:	f44f 7150 	mov.w	r1, #832	; 0x340
  400dc4:	4b2c      	ldr	r3, [pc, #176]	; (400e78 <freertos_twi_read_packet_async+0x188>)
  400dc6:	4798      	blx	r3
  400dc8:	4447      	add	r7, r8
  400dca:	2100      	movs	r1, #0
  400dcc:	6878      	ldr	r0, [r7, #4]
  400dce:	460a      	mov	r2, r1
  400dd0:	460b      	mov	r3, r1
  400dd2:	4c2a      	ldr	r4, [pc, #168]	; (400e7c <freertos_twi_read_packet_async+0x18c>)
  400dd4:	47a0      	blx	r4
  400dd6:	20f6      	movs	r0, #246	; 0xf6
  400dd8:	e03f      	b.n	400e5a <freertos_twi_read_packet_async+0x16a>
  400dda:	b90a      	cbnz	r2, 400de0 <freertos_twi_read_packet_async+0xf0>
  400ddc:	2202      	movs	r2, #2
  400dde:	6022      	str	r2, [r4, #0]
  400de0:	461a      	mov	r2, r3
  400de2:	e7e0      	b.n	400da6 <freertos_twi_read_packet_async+0xb6>
  400de4:	3101      	adds	r1, #1
  400de6:	1c4d      	adds	r5, r1, #1
  400de8:	d1e4      	bne.n	400db4 <freertos_twi_read_packet_async+0xc4>
  400dea:	26fd      	movs	r6, #253	; 0xfd
  400dec:	f04f 33ff 	mov.w	r3, #4294967295
  400df0:	6a22      	ldr	r2, [r4, #32]
  400df2:	07d2      	lsls	r2, r2, #31
  400df4:	d402      	bmi.n	400dfc <freertos_twi_read_packet_async+0x10c>
  400df6:	3b01      	subs	r3, #1
  400df8:	d1fa      	bne.n	400df0 <freertos_twi_read_packet_async+0x100>
  400dfa:	26fd      	movs	r6, #253	; 0xfd
  400dfc:	4648      	mov	r0, r9
  400dfe:	f44f 7150 	mov.w	r1, #832	; 0x340
  400e02:	4b1d      	ldr	r3, [pc, #116]	; (400e78 <freertos_twi_read_packet_async+0x188>)
  400e04:	4798      	blx	r3
  400e06:	4447      	add	r7, r8
  400e08:	2100      	movs	r1, #0
  400e0a:	6878      	ldr	r0, [r7, #4]
  400e0c:	460a      	mov	r2, r1
  400e0e:	460b      	mov	r3, r1
  400e10:	4c1a      	ldr	r4, [pc, #104]	; (400e7c <freertos_twi_read_packet_async+0x18c>)
  400e12:	47a0      	blx	r4
  400e14:	e020      	b.n	400e58 <freertos_twi_read_packet_async+0x168>
  400e16:	68a9      	ldr	r1, [r5, #8]
  400e18:	4d19      	ldr	r5, [pc, #100]	; (400e80 <freertos_twi_read_packet_async+0x190>)
  400e1a:	4403      	add	r3, r0
  400e1c:	f845 1039 	str.w	r1, [r5, r9, lsl #3]
  400e20:	443d      	add	r5, r7
  400e22:	606a      	str	r2, [r5, #4]
  400e24:	4d17      	ldr	r5, [pc, #92]	; (400e84 <freertos_twi_read_packet_async+0x194>)
  400e26:	2000      	movs	r0, #0
  400e28:	442f      	add	r7, r5
  400e2a:	9001      	str	r0, [sp, #4]
  400e2c:	3a02      	subs	r2, #2
  400e2e:	4638      	mov	r0, r7
  400e30:	f8cd a000 	str.w	sl, [sp]
  400e34:	685b      	ldr	r3, [r3, #4]
  400e36:	4d14      	ldr	r5, [pc, #80]	; (400e88 <freertos_twi_read_packet_async+0x198>)
  400e38:	47a8      	blx	r5
  400e3a:	2301      	movs	r3, #1
  400e3c:	6023      	str	r3, [r4, #0]
  400e3e:	4620      	mov	r0, r4
  400e40:	f44f 5180 	mov.w	r1, #4096	; 0x1000
  400e44:	4b0c      	ldr	r3, [pc, #48]	; (400e78 <freertos_twi_read_packet_async+0x188>)
  400e46:	4798      	blx	r3
  400e48:	4638      	mov	r0, r7
  400e4a:	4651      	mov	r1, sl
  400e4c:	9a03      	ldr	r2, [sp, #12]
  400e4e:	4b0f      	ldr	r3, [pc, #60]	; (400e8c <freertos_twi_read_packet_async+0x19c>)
  400e50:	4798      	blx	r3
  400e52:	e002      	b.n	400e5a <freertos_twi_read_packet_async+0x16a>
  400e54:	20f8      	movs	r0, #248	; 0xf8
  400e56:	e000      	b.n	400e5a <freertos_twi_read_packet_async+0x16a>
  400e58:	4630      	mov	r0, r6
  400e5a:	b240      	sxtb	r0, r0
  400e5c:	b004      	add	sp, #16
  400e5e:	e8bd 87f0 	ldmia.w	sp!, {r4, r5, r6, r7, r8, r9, sl, pc}
  400e62:	bf00      	nop
  400e64:	0040bc48 	.word	0x0040bc48
  400e68:	00400695 	.word	0x00400695
  400e6c:	004007d9 	.word	0x004007d9
  400e70:	00402117 	.word	0x00402117
  400e74:	00402109 	.word	0x00402109
  400e78:	00402105 	.word	0x00402105
  400e7c:	00402881 	.word	0x00402881
  400e80:	200009a4 	.word	0x200009a4
  400e84:	2000099c 	.word	0x2000099c
  400e88:	00400821 	.word	0x00400821
  400e8c:	00400895 	.word	0x00400895
  400e90:	200009ac 	.word	0x200009ac

00400e94 <TWI0_Handler>:
  400e94:	b508      	push	{r3, lr}
  400e96:	2000      	movs	r0, #0
  400e98:	4b01      	ldr	r3, [pc, #4]	; (400ea0 <TWI0_Handler+0xc>)
  400e9a:	4798      	blx	r3
  400e9c:	bd08      	pop	{r3, pc}
  400e9e:	bf00      	nop
  400ea0:	004008b9 	.word	0x004008b9

00400ea4 <TWI1_Handler>:
  400ea4:	b508      	push	{r3, lr}
  400ea6:	2001      	movs	r0, #1
  400ea8:	4b01      	ldr	r3, [pc, #4]	; (400eb0 <TWI1_Handler+0xc>)
  400eaa:	4798      	blx	r3
  400eac:	bd08      	pop	{r3, pc}
  400eae:	bf00      	nop
  400eb0:	004008b9 	.word	0x004008b9

00400eb4 <configure_rx_dma>:
  400eb4:	4b18      	ldr	r3, [pc, #96]	; (400f18 <configure_rx_dma+0x64>)
  400eb6:	b570      	push	{r4, r5, r6, lr}
  400eb8:	221c      	movs	r2, #28
  400eba:	fb02 3300 	mla	r3, r2, r0, r3
  400ebe:	699c      	ldr	r4, [r3, #24]
  400ec0:	689a      	ldr	r2, [r3, #8]
  400ec2:	685d      	ldr	r5, [r3, #4]
  400ec4:	4294      	cmp	r4, r2
  400ec6:	d101      	bne.n	400ecc <configure_rx_dma+0x18>
  400ec8:	b921      	cbnz	r1, 400ed4 <configure_rx_dma+0x20>
  400eca:	e004      	b.n	400ed6 <configure_rx_dma+0x22>
  400ecc:	d902      	bls.n	400ed4 <configure_rx_dma+0x20>
  400ece:	1aa4      	subs	r4, r4, r2
  400ed0:	60dc      	str	r4, [r3, #12]
  400ed2:	e001      	b.n	400ed8 <configure_rx_dma+0x24>
  400ed4:	1aa9      	subs	r1, r5, r2
  400ed6:	60d9      	str	r1, [r3, #12]
  400ed8:	68d9      	ldr	r1, [r3, #12]
  400eda:	440a      	add	r2, r1
  400edc:	42aa      	cmp	r2, r5
  400ede:	d903      	bls.n	400ee8 <configure_rx_dma+0x34>
  400ee0:	4b0e      	ldr	r3, [pc, #56]	; (400f1c <configure_rx_dma+0x68>)
  400ee2:	4798      	blx	r3
  400ee4:	bf00      	nop
  400ee6:	e7fd      	b.n	400ee4 <configure_rx_dma+0x30>
  400ee8:	4d0d      	ldr	r5, [pc, #52]	; (400f20 <configure_rx_dma+0x6c>)
  400eea:	0104      	lsls	r4, r0, #4
  400eec:	b179      	cbz	r1, 400f0e <configure_rx_dma+0x5a>
  400eee:	192a      	adds	r2, r5, r4
  400ef0:	6856      	ldr	r6, [r2, #4]
  400ef2:	f103 0108 	add.w	r1, r3, #8
  400ef6:	4630      	mov	r0, r6
  400ef8:	2200      	movs	r2, #0
  400efa:	4b0a      	ldr	r3, [pc, #40]	; (400f24 <configure_rx_dma+0x70>)
  400efc:	4798      	blx	r3
  400efe:	4630      	mov	r0, r6
  400f00:	2101      	movs	r1, #1
  400f02:	4b09      	ldr	r3, [pc, #36]	; (400f28 <configure_rx_dma+0x74>)
  400f04:	4798      	blx	r3
  400f06:	5928      	ldr	r0, [r5, r4]
  400f08:	2109      	movs	r1, #9
  400f0a:	4b08      	ldr	r3, [pc, #32]	; (400f2c <configure_rx_dma+0x78>)
  400f0c:	e002      	b.n	400f14 <configure_rx_dma+0x60>
  400f0e:	5928      	ldr	r0, [r5, r4]
  400f10:	4b07      	ldr	r3, [pc, #28]	; (400f30 <configure_rx_dma+0x7c>)
  400f12:	2109      	movs	r1, #9
  400f14:	4798      	blx	r3
  400f16:	bd70      	pop	{r4, r5, r6, pc}
  400f18:	200009b4 	.word	0x200009b4
  400f1c:	00402441 	.word	0x00402441
  400f20:	0040bc60 	.word	0x0040bc60
  400f24:	00401aff 	.word	0x00401aff
  400f28:	00401b15 	.word	0x00401b15
  400f2c:	00402171 	.word	0x00402171
  400f30:	00402175 	.word	0x00402175

00400f34 <local_uart_handler>:
  400f34:	e92d 4ff7 	stmdb	sp!, {r0, r1, r2, r4, r5, r6, r7, r8, r9, sl, fp, lr}
  400f38:	4a3a      	ldr	r2, [pc, #232]	; (401024 <local_uart_handler+0xf0>)
  400f3a:	0103      	lsls	r3, r0, #4
  400f3c:	58d7      	ldr	r7, [r2, r3]
  400f3e:	4605      	mov	r5, r0
  400f40:	4b39      	ldr	r3, [pc, #228]	; (401028 <local_uart_handler+0xf4>)
  400f42:	f04f 0a00 	mov.w	sl, #0
  400f46:	4638      	mov	r0, r7
  400f48:	f8cd a004 	str.w	sl, [sp, #4]
  400f4c:	4798      	blx	r3
  400f4e:	4b37      	ldr	r3, [pc, #220]	; (40102c <local_uart_handler+0xf8>)
  400f50:	4606      	mov	r6, r0
  400f52:	4638      	mov	r0, r7
  400f54:	4798      	blx	r3
  400f56:	f04f 081c 	mov.w	r8, #28
  400f5a:	fb08 f805 	mul.w	r8, r8, r5
  400f5e:	4006      	ands	r6, r0
  400f60:	f8df 90e8 	ldr.w	r9, [pc, #232]	; 40104c <local_uart_handler+0x118>
  400f64:	06f2      	lsls	r2, r6, #27
  400f66:	eb09 0408 	add.w	r4, r9, r8
  400f6a:	d518      	bpl.n	400f9e <local_uart_handler+0x6a>
  400f6c:	4638      	mov	r0, r7
  400f6e:	4b30      	ldr	r3, [pc, #192]	; (401030 <local_uart_handler+0xfc>)
  400f70:	2110      	movs	r1, #16
  400f72:	4798      	blx	r3
  400f74:	4b2f      	ldr	r3, [pc, #188]	; (401034 <local_uart_handler+0x100>)
  400f76:	eb03 02c5 	add.w	r2, r3, r5, lsl #3
  400f7a:	6850      	ldr	r0, [r2, #4]
  400f7c:	469b      	mov	fp, r3
  400f7e:	b128      	cbz	r0, 400f8c <local_uart_handler+0x58>
  400f80:	4651      	mov	r1, sl
  400f82:	aa01      	add	r2, sp, #4
  400f84:	4653      	mov	r3, sl
  400f86:	f8df c0b8 	ldr.w	ip, [pc, #184]	; 401040 <local_uart_handler+0x10c>
  400f8a:	47e0      	blx	ip
  400f8c:	f85b 0035 	ldr.w	r0, [fp, r5, lsl #3]
  400f90:	b128      	cbz	r0, 400f9e <local_uart_handler+0x6a>
  400f92:	2100      	movs	r1, #0
  400f94:	aa01      	add	r2, sp, #4
  400f96:	460b      	mov	r3, r1
  400f98:	f8df c0a4 	ldr.w	ip, [pc, #164]	; 401040 <local_uart_handler+0x10c>
  400f9c:	47e0      	blx	ip
  400f9e:	0733      	lsls	r3, r6, #28
  400fa0:	d521      	bpl.n	400fe6 <local_uart_handler+0xb2>
  400fa2:	69a3      	ldr	r3, [r4, #24]
  400fa4:	b91b      	cbnz	r3, 400fae <local_uart_handler+0x7a>
  400fa6:	4b24      	ldr	r3, [pc, #144]	; (401038 <local_uart_handler+0x104>)
  400fa8:	4798      	blx	r3
  400faa:	bf00      	nop
  400fac:	e7fd      	b.n	400faa <local_uart_handler+0x76>
  400fae:	2b01      	cmp	r3, #1
  400fb0:	d103      	bne.n	400fba <local_uart_handler+0x86>
  400fb2:	4b21      	ldr	r3, [pc, #132]	; (401038 <local_uart_handler+0x104>)
  400fb4:	4798      	blx	r3
  400fb6:	bf00      	nop
  400fb8:	e7fd      	b.n	400fb6 <local_uart_handler+0x82>
  400fba:	68a3      	ldr	r3, [r4, #8]
  400fbc:	68e2      	ldr	r2, [r4, #12]
  400fbe:	4628      	mov	r0, r5
  400fc0:	4413      	add	r3, r2
  400fc2:	6862      	ldr	r2, [r4, #4]
  400fc4:	60a3      	str	r3, [r4, #8]
  400fc6:	4293      	cmp	r3, r2
  400fc8:	bf28      	it	cs
  400fca:	f859 3008 	ldrcs.w	r3, [r9, r8]
  400fce:	f04f 0100 	mov.w	r1, #0
  400fd2:	bf28      	it	cs
  400fd4:	60a3      	strcs	r3, [r4, #8]
  400fd6:	4b19      	ldr	r3, [pc, #100]	; (40103c <local_uart_handler+0x108>)
  400fd8:	4798      	blx	r3
  400fda:	6920      	ldr	r0, [r4, #16]
  400fdc:	b158      	cbz	r0, 400ff6 <local_uart_handler+0xc2>
  400fde:	2100      	movs	r1, #0
  400fe0:	aa01      	add	r2, sp, #4
  400fe2:	460b      	mov	r3, r1
  400fe4:	e005      	b.n	400ff2 <local_uart_handler+0xbe>
  400fe6:	b936      	cbnz	r6, 400ff6 <local_uart_handler+0xc2>
  400fe8:	6920      	ldr	r0, [r4, #16]
  400fea:	b120      	cbz	r0, 400ff6 <local_uart_handler+0xc2>
  400fec:	4631      	mov	r1, r6
  400fee:	aa01      	add	r2, sp, #4
  400ff0:	4633      	mov	r3, r6
  400ff2:	4c13      	ldr	r4, [pc, #76]	; (401040 <local_uart_handler+0x10c>)
  400ff4:	47a0      	blx	r4
  400ff6:	f016 0fe0 	tst.w	r6, #224	; 0xe0
  400ffa:	d00c      	beq.n	401016 <local_uart_handler+0xe2>
  400ffc:	4638      	mov	r0, r7
  400ffe:	4b11      	ldr	r3, [pc, #68]	; (401044 <local_uart_handler+0x110>)
  401000:	4798      	blx	r3
  401002:	4b0c      	ldr	r3, [pc, #48]	; (401034 <local_uart_handler+0x100>)
  401004:	eb03 05c5 	add.w	r5, r3, r5, lsl #3
  401008:	6868      	ldr	r0, [r5, #4]
  40100a:	b120      	cbz	r0, 401016 <local_uart_handler+0xe2>
  40100c:	2100      	movs	r1, #0
  40100e:	aa01      	add	r2, sp, #4
  401010:	460b      	mov	r3, r1
  401012:	4c0b      	ldr	r4, [pc, #44]	; (401040 <local_uart_handler+0x10c>)
  401014:	47a0      	blx	r4
  401016:	9b01      	ldr	r3, [sp, #4]
  401018:	b10b      	cbz	r3, 40101e <local_uart_handler+0xea>
  40101a:	4b0b      	ldr	r3, [pc, #44]	; (401048 <local_uart_handler+0x114>)
  40101c:	4798      	blx	r3
  40101e:	b003      	add	sp, #12
  401020:	e8bd 8ff0 	ldmia.w	sp!, {r4, r5, r6, r7, r8, r9, sl, fp, pc}
  401024:	0040bc60 	.word	0x0040bc60
  401028:	0040217d 	.word	0x0040217d
  40102c:	00402179 	.word	0x00402179
  401030:	00402175 	.word	0x00402175
  401034:	200009d0 	.word	0x200009d0
  401038:	00402441 	.word	0x00402441
  40103c:	00400eb5 	.word	0x00400eb5
  401040:	004029f5 	.word	0x004029f5
  401044:	00402181 	.word	0x00402181
  401048:	00402431 	.word	0x00402431
  40104c:	200009b4 	.word	0x200009b4

00401050 <freertos_uart_serial_init>:
  401050:	e92d 4ff0 	stmdb	sp!, {r4, r5, r6, r7, r8, r9, sl, fp, lr}
  401054:	f8df 91a4 	ldr.w	r9, [pc, #420]	; 4011fc <freertos_uart_serial_init+0x1ac>
  401058:	b085      	sub	sp, #20
  40105a:	2601      	movs	r6, #1
  40105c:	4604      	mov	r4, r0
  40105e:	4615      	mov	r5, r2
  401060:	f10d 0810 	add.w	r8, sp, #16
  401064:	4622      	mov	r2, r4
  401066:	4b52      	ldr	r3, [pc, #328]	; (4011b0 <freertos_uart_serial_init+0x160>)
  401068:	468b      	mov	fp, r1
  40106a:	4648      	mov	r0, r9
  40106c:	4631      	mov	r1, r6
  40106e:	f808 6d04 	strb.w	r6, [r8, #-4]!
  401072:	4798      	blx	r3
  401074:	4641      	mov	r1, r8
  401076:	4607      	mov	r7, r0
  401078:	4632      	mov	r2, r6
  40107a:	7b28      	ldrb	r0, [r5, #12]
  40107c:	4b4d      	ldr	r3, [pc, #308]	; (4011b4 <freertos_uart_serial_init+0x164>)
  40107e:	4798      	blx	r3
  401080:	2f00      	cmp	r7, #0
  401082:	f300 808e 	bgt.w	4011a2 <freertos_uart_serial_init+0x152>
  401086:	2800      	cmp	r0, #0
  401088:	f000 808d 	beq.w	4011a6 <freertos_uart_serial_init+0x156>
  40108c:	4e4a      	ldr	r6, [pc, #296]	; (4011b8 <freertos_uart_serial_init+0x168>)
  40108e:	231c      	movs	r3, #28
  401090:	fb03 6307 	mla	r3, r3, r7, r6
  401094:	699b      	ldr	r3, [r3, #24]
  401096:	b11b      	cbz	r3, 4010a0 <freertos_uart_serial_init+0x50>
  401098:	4b48      	ldr	r3, [pc, #288]	; (4011bc <freertos_uart_serial_init+0x16c>)
  40109a:	4798      	blx	r3
  40109c:	bf00      	nop
  40109e:	e7fd      	b.n	40109c <freertos_uart_serial_init+0x4c>
  4010a0:	4620      	mov	r0, r4
  4010a2:	4b47      	ldr	r3, [pc, #284]	; (4011c0 <freertos_uart_serial_init+0x170>)
  4010a4:	4798      	blx	r3
  4010a6:	ea4f 1807 	mov.w	r8, r7, lsl #4
  4010aa:	4620      	mov	r0, r4
  4010ac:	4b45      	ldr	r3, [pc, #276]	; (4011c4 <freertos_uart_serial_init+0x174>)
  4010ae:	4798      	blx	r3
  4010b0:	eb09 0308 	add.w	r3, r9, r8
  4010b4:	f8d3 a004 	ldr.w	sl, [r3, #4]
  4010b8:	f240 2102 	movw	r1, #514	; 0x202
  4010bc:	4650      	mov	r0, sl
  4010be:	4a42      	ldr	r2, [pc, #264]	; (4011c8 <freertos_uart_serial_init+0x178>)
  4010c0:	9301      	str	r3, [sp, #4]
  4010c2:	4790      	blx	r2
  4010c4:	9b01      	ldr	r3, [sp, #4]
  4010c6:	6898      	ldr	r0, [r3, #8]
  4010c8:	4b40      	ldr	r3, [pc, #256]	; (4011cc <freertos_uart_serial_init+0x17c>)
  4010ca:	4798      	blx	r3
  4010cc:	7b2b      	ldrb	r3, [r5, #12]
  4010ce:	2b01      	cmp	r3, #1
  4010d0:	d103      	bne.n	4010da <freertos_uart_serial_init+0x8a>
  4010d2:	4620      	mov	r0, r4
  4010d4:	4659      	mov	r1, fp
  4010d6:	4b3e      	ldr	r3, [pc, #248]	; (4011d0 <freertos_uart_serial_init+0x180>)
  4010d8:	4798      	blx	r3
  4010da:	4620      	mov	r0, r4
  4010dc:	f04f 31ff 	mov.w	r1, #4294967295
  4010e0:	4b3c      	ldr	r3, [pc, #240]	; (4011d4 <freertos_uart_serial_init+0x184>)
  4010e2:	4798      	blx	r3
  4010e4:	493c      	ldr	r1, [pc, #240]	; (4011d8 <freertos_uart_serial_init+0x188>)
  4010e6:	4b3d      	ldr	r3, [pc, #244]	; (4011dc <freertos_uart_serial_init+0x18c>)
  4010e8:	7b68      	ldrb	r0, [r5, #13]
  4010ea:	eb01 01c7 	add.w	r1, r1, r7, lsl #3
  4010ee:	2200      	movs	r2, #0
  4010f0:	4798      	blx	r3
  4010f2:	682b      	ldr	r3, [r5, #0]
  4010f4:	2b00      	cmp	r3, #0
  4010f6:	d03c      	beq.n	401172 <freertos_uart_serial_init+0x122>
  4010f8:	4b39      	ldr	r3, [pc, #228]	; (4011e0 <freertos_uart_serial_init+0x190>)
  4010fa:	f04f 30ff 	mov.w	r0, #4294967295
  4010fe:	2100      	movs	r1, #0
  401100:	4798      	blx	r3
  401102:	231c      	movs	r3, #28
  401104:	437b      	muls	r3, r7
  401106:	441e      	add	r6, r3
  401108:	f8df b0ac 	ldr.w	fp, [pc, #172]	; 4011b8 <freertos_uart_serial_init+0x168>
  40110c:	f106 0710 	add.w	r7, r6, #16
  401110:	6130      	str	r0, [r6, #16]
  401112:	b918      	cbnz	r0, 40111c <freertos_uart_serial_init+0xcc>
  401114:	4b29      	ldr	r3, [pc, #164]	; (4011bc <freertos_uart_serial_init+0x16c>)
  401116:	4798      	blx	r3
  401118:	bf00      	nop
  40111a:	e7fd      	b.n	401118 <freertos_uart_serial_init+0xc8>
  40111c:	682a      	ldr	r2, [r5, #0]
  40111e:	f103 0108 	add.w	r1, r3, #8
  401122:	60b2      	str	r2, [r6, #8]
  401124:	686a      	ldr	r2, [r5, #4]
  401126:	4650      	mov	r0, sl
  401128:	60f2      	str	r2, [r6, #12]
  40112a:	4459      	add	r1, fp
  40112c:	2200      	movs	r2, #0
  40112e:	f8df c0d0 	ldr.w	ip, [pc, #208]	; 401200 <freertos_uart_serial_init+0x1b0>
  401132:	9301      	str	r3, [sp, #4]
  401134:	47e0      	blx	ip
  401136:	682a      	ldr	r2, [r5, #0]
  401138:	61b2      	str	r2, [r6, #24]
  40113a:	9b01      	ldr	r3, [sp, #4]
  40113c:	68b2      	ldr	r2, [r6, #8]
  40113e:	f84b 2003 	str.w	r2, [fp, r3]
  401142:	686b      	ldr	r3, [r5, #4]
  401144:	441a      	add	r2, r3
  401146:	6072      	str	r2, [r6, #4]
  401148:	7b6b      	ldrb	r3, [r5, #13]
  40114a:	079b      	lsls	r3, r3, #30
  40114c:	d508      	bpl.n	401160 <freertos_uart_serial_init+0x110>
  40114e:	2001      	movs	r0, #1
  401150:	4b24      	ldr	r3, [pc, #144]	; (4011e4 <freertos_uart_serial_init+0x194>)
  401152:	4798      	blx	r3
  401154:	6078      	str	r0, [r7, #4]
  401156:	b918      	cbnz	r0, 401160 <freertos_uart_serial_init+0x110>
  401158:	4b18      	ldr	r3, [pc, #96]	; (4011bc <freertos_uart_serial_init+0x16c>)
  40115a:	4798      	blx	r3
  40115c:	bf00      	nop
  40115e:	e7fd      	b.n	40115c <freertos_uart_serial_init+0x10c>
  401160:	4620      	mov	r0, r4
  401162:	2109      	movs	r1, #9
  401164:	4b20      	ldr	r3, [pc, #128]	; (4011e8 <freertos_uart_serial_init+0x198>)
  401166:	4798      	blx	r3
  401168:	4650      	mov	r0, sl
  40116a:	2101      	movs	r1, #1
  40116c:	4b1f      	ldr	r3, [pc, #124]	; (4011ec <freertos_uart_serial_init+0x19c>)
  40116e:	4798      	blx	r3
  401170:	e004      	b.n	40117c <freertos_uart_serial_init+0x12c>
  401172:	231c      	movs	r3, #28
  401174:	fb03 6607 	mla	r6, r3, r7, r6
  401178:	2301      	movs	r3, #1
  40117a:	61b3      	str	r3, [r6, #24]
  40117c:	eb09 0308 	add.w	r3, r9, r8
  401180:	f993 000c 	ldrsb.w	r0, [r3, #12]
  401184:	68a9      	ldr	r1, [r5, #8]
  401186:	4b1a      	ldr	r3, [pc, #104]	; (4011f0 <freertos_uart_serial_init+0x1a0>)
  401188:	4798      	blx	r3
  40118a:	f859 0008 	ldr.w	r0, [r9, r8]
  40118e:	21e0      	movs	r1, #224	; 0xe0
  401190:	4b15      	ldr	r3, [pc, #84]	; (4011e8 <freertos_uart_serial_init+0x198>)
  401192:	4798      	blx	r3
  401194:	4620      	mov	r0, r4
  401196:	4b17      	ldr	r3, [pc, #92]	; (4011f4 <freertos_uart_serial_init+0x1a4>)
  401198:	4798      	blx	r3
  40119a:	4620      	mov	r0, r4
  40119c:	4b16      	ldr	r3, [pc, #88]	; (4011f8 <freertos_uart_serial_init+0x1a8>)
  40119e:	4798      	blx	r3
  4011a0:	e002      	b.n	4011a8 <freertos_uart_serial_init+0x158>
  4011a2:	2400      	movs	r4, #0
  4011a4:	e000      	b.n	4011a8 <freertos_uart_serial_init+0x158>
  4011a6:	4604      	mov	r4, r0
  4011a8:	4620      	mov	r0, r4
  4011aa:	b005      	add	sp, #20
  4011ac:	e8bd 8ff0 	ldmia.w	sp!, {r4, r5, r6, r7, r8, r9, sl, fp, pc}
  4011b0:	00400695 	.word	0x00400695
  4011b4:	004006ad 	.word	0x004006ad
  4011b8:	200009b4 	.word	0x200009b4
  4011bc:	00402441 	.word	0x00402441
  4011c0:	0040215f 	.word	0x0040215f
  4011c4:	0040216b 	.word	0x0040216b
  4011c8:	00401b21 	.word	0x00401b21
  4011cc:	00401f65 	.word	0x00401f65
  4011d0:	00402125 	.word	0x00402125
  4011d4:	00402175 	.word	0x00402175
  4011d8:	200009d0 	.word	0x200009d0
  4011dc:	004006c9 	.word	0x004006c9
  4011e0:	0040285d 	.word	0x0040285d
  4011e4:	00402995 	.word	0x00402995
  4011e8:	00402171 	.word	0x00402171
  4011ec:	00401b15 	.word	0x00401b15
  4011f0:	00400775 	.word	0x00400775
  4011f4:	00402159 	.word	0x00402159
  4011f8:	00402165 	.word	0x00402165
  4011fc:	0040bc60 	.word	0x0040bc60
  401200:	00401aff 	.word	0x00401aff

00401204 <freertos_uart_write_packet_async>:
  401204:	e92d 47ff 	stmdb	sp!, {r0, r1, r2, r3, r4, r5, r6, r7, r8, r9, sl, lr}
  401208:	4f17      	ldr	r7, [pc, #92]	; (401268 <freertos_uart_write_packet_async+0x64>)
  40120a:	4606      	mov	r6, r0
  40120c:	9303      	str	r3, [sp, #12]
  40120e:	468a      	mov	sl, r1
  401210:	4691      	mov	r9, r2
  401212:	4638      	mov	r0, r7
  401214:	2101      	movs	r1, #1
  401216:	4632      	mov	r2, r6
  401218:	4b14      	ldr	r3, [pc, #80]	; (40126c <freertos_uart_write_packet_async+0x68>)
  40121a:	9d0c      	ldr	r5, [sp, #48]	; 0x30
  40121c:	4798      	blx	r3
  40121e:	f1b0 0800 	subs.w	r8, r0, #0
  401222:	dc1c      	bgt.n	40125e <freertos_uart_write_packet_async+0x5a>
  401224:	4c12      	ldr	r4, [pc, #72]	; (401270 <freertos_uart_write_packet_async+0x6c>)
  401226:	a903      	add	r1, sp, #12
  401228:	eb04 04c8 	add.w	r4, r4, r8, lsl #3
  40122c:	4620      	mov	r0, r4
  40122e:	4b11      	ldr	r3, [pc, #68]	; (401274 <freertos_uart_write_packet_async+0x70>)
  401230:	4798      	blx	r3
  401232:	b9a8      	cbnz	r0, 401260 <freertos_uart_write_packet_async+0x5c>
  401234:	eb07 1708 	add.w	r7, r7, r8, lsl #4
  401238:	2301      	movs	r3, #1
  40123a:	464a      	mov	r2, r9
  40123c:	9301      	str	r3, [sp, #4]
  40123e:	4620      	mov	r0, r4
  401240:	4651      	mov	r1, sl
  401242:	687b      	ldr	r3, [r7, #4]
  401244:	9500      	str	r5, [sp, #0]
  401246:	4f0c      	ldr	r7, [pc, #48]	; (401278 <freertos_uart_write_packet_async+0x74>)
  401248:	47b8      	blx	r7
  40124a:	4630      	mov	r0, r6
  40124c:	2110      	movs	r1, #16
  40124e:	4b0b      	ldr	r3, [pc, #44]	; (40127c <freertos_uart_write_packet_async+0x78>)
  401250:	4798      	blx	r3
  401252:	4620      	mov	r0, r4
  401254:	4629      	mov	r1, r5
  401256:	9a03      	ldr	r2, [sp, #12]
  401258:	4b09      	ldr	r3, [pc, #36]	; (401280 <freertos_uart_write_packet_async+0x7c>)
  40125a:	4798      	blx	r3
  40125c:	e000      	b.n	401260 <freertos_uart_write_packet_async+0x5c>
  40125e:	20f8      	movs	r0, #248	; 0xf8
  401260:	b240      	sxtb	r0, r0
  401262:	b004      	add	sp, #16
  401264:	e8bd 87f0 	ldmia.w	sp!, {r4, r5, r6, r7, r8, r9, sl, pc}
  401268:	0040bc60 	.word	0x0040bc60
  40126c:	00400695 	.word	0x00400695
  401270:	200009d0 	.word	0x200009d0
  401274:	004007d9 	.word	0x004007d9
  401278:	00400821 	.word	0x00400821
  40127c:	00402171 	.word	0x00402171
  401280:	00400895 	.word	0x00400895

00401284 <UART0_Handler>:
  401284:	b508      	push	{r3, lr}
  401286:	2000      	movs	r0, #0
  401288:	4b01      	ldr	r3, [pc, #4]	; (401290 <UART0_Handler+0xc>)
  40128a:	4798      	blx	r3
  40128c:	bd08      	pop	{r3, pc}
  40128e:	bf00      	nop
  401290:	00400f35 	.word	0x00400f35

00401294 <UART1_Handler>:
  401294:	b508      	push	{r3, lr}
  401296:	2001      	movs	r0, #1
  401298:	4b01      	ldr	r3, [pc, #4]	; (4012a0 <UART1_Handler+0xc>)
  40129a:	4798      	blx	r3
  40129c:	bd08      	pop	{r3, pc}
  40129e:	bf00      	nop
  4012a0:	00400f35 	.word	0x00400f35

004012a4 <spi_master_init>:
  4012a4:	b510      	push	{r4, lr}
  4012a6:	4b11      	ldr	r3, [pc, #68]	; (4012ec <spi_master_init+0x48>)
  4012a8:	4604      	mov	r4, r0
  4012aa:	4798      	blx	r3
  4012ac:	2380      	movs	r3, #128	; 0x80
  4012ae:	6023      	str	r3, [r4, #0]
  4012b0:	6863      	ldr	r3, [r4, #4]
  4012b2:	4620      	mov	r0, r4
  4012b4:	f043 0301 	orr.w	r3, r3, #1
  4012b8:	6063      	str	r3, [r4, #4]
  4012ba:	6863      	ldr	r3, [r4, #4]
  4012bc:	2100      	movs	r1, #0
  4012be:	f043 0310 	orr.w	r3, r3, #16
  4012c2:	6063      	str	r3, [r4, #4]
  4012c4:	6863      	ldr	r3, [r4, #4]
  4012c6:	f023 0380 	bic.w	r3, r3, #128	; 0x80
  4012ca:	6063      	str	r3, [r4, #4]
  4012cc:	4b08      	ldr	r3, [pc, #32]	; (4012f0 <spi_master_init+0x4c>)
  4012ce:	4798      	blx	r3
  4012d0:	6863      	ldr	r3, [r4, #4]
  4012d2:	4620      	mov	r0, r4
  4012d4:	f023 0302 	bic.w	r3, r3, #2
  4012d8:	6063      	str	r3, [r4, #4]
  4012da:	6863      	ldr	r3, [r4, #4]
  4012dc:	2100      	movs	r1, #0
  4012de:	f023 0304 	bic.w	r3, r3, #4
  4012e2:	6063      	str	r3, [r4, #4]
  4012e4:	4b03      	ldr	r3, [pc, #12]	; (4012f4 <spi_master_init+0x50>)
  4012e6:	4798      	blx	r3
  4012e8:	bd10      	pop	{r4, pc}
  4012ea:	bf00      	nop
  4012ec:	00401f8d 	.word	0x00401f8d
  4012f0:	00401f9d 	.word	0x00401f9d
  4012f4:	00401fb3 	.word	0x00401fb3

004012f8 <spi_master_setup_device>:
  4012f8:	b5f8      	push	{r3, r4, r5, r6, r7, lr}
  4012fa:	4605      	mov	r5, r0
  4012fc:	460c      	mov	r4, r1
  4012fe:	4618      	mov	r0, r3
  401300:	4914      	ldr	r1, [pc, #80]	; (401354 <spi_master_setup_device+0x5c>)
  401302:	4b15      	ldr	r3, [pc, #84]	; (401358 <spi_master_setup_device+0x60>)
  401304:	4616      	mov	r6, r2
  401306:	4798      	blx	r3
  401308:	2200      	movs	r2, #0
  40130a:	f8df c064 	ldr.w	ip, [pc, #100]	; 401370 <spi_master_setup_device+0x78>
  40130e:	4607      	mov	r7, r0
  401310:	6821      	ldr	r1, [r4, #0]
  401312:	4628      	mov	r0, r5
  401314:	4613      	mov	r3, r2
  401316:	47e0      	blx	ip
  401318:	4628      	mov	r0, r5
  40131a:	6821      	ldr	r1, [r4, #0]
  40131c:	2208      	movs	r2, #8
  40131e:	4b0f      	ldr	r3, [pc, #60]	; (40135c <spi_master_setup_device+0x64>)
  401320:	4798      	blx	r3
  401322:	4628      	mov	r0, r5
  401324:	6821      	ldr	r1, [r4, #0]
  401326:	b2fa      	uxtb	r2, r7
  401328:	4b0d      	ldr	r3, [pc, #52]	; (401360 <spi_master_setup_device+0x68>)
  40132a:	4798      	blx	r3
  40132c:	4628      	mov	r0, r5
  40132e:	6821      	ldr	r1, [r4, #0]
  401330:	2208      	movs	r2, #8
  401332:	4b0c      	ldr	r3, [pc, #48]	; (401364 <spi_master_setup_device+0x6c>)
  401334:	4798      	blx	r3
  401336:	4628      	mov	r0, r5
  401338:	6821      	ldr	r1, [r4, #0]
  40133a:	0872      	lsrs	r2, r6, #1
  40133c:	4b0a      	ldr	r3, [pc, #40]	; (401368 <spi_master_setup_device+0x70>)
  40133e:	4798      	blx	r3
  401340:	f006 0201 	and.w	r2, r6, #1
  401344:	4628      	mov	r0, r5
  401346:	6821      	ldr	r1, [r4, #0]
  401348:	f082 0201 	eor.w	r2, r2, #1
  40134c:	4b07      	ldr	r3, [pc, #28]	; (40136c <spi_master_setup_device+0x74>)
  40134e:	4798      	blx	r3
  401350:	bdf8      	pop	{r3, r4, r5, r6, r7, pc}
  401352:	bf00      	nop
  401354:	02dc6c00 	.word	0x02dc6c00
  401358:	00402075 	.word	0x00402075
  40135c:	00402061 	.word	0x00402061
  401360:	0040208d 	.word	0x0040208d
  401364:	00402021 	.word	0x00402021
  401368:	00401ff5 	.word	0x00401ff5
  40136c:	0040200b 	.word	0x0040200b
  401370:	004020a3 	.word	0x004020a3

00401374 <spi_select_device>:
  401374:	b508      	push	{r3, lr}
  401376:	6843      	ldr	r3, [r0, #4]
  401378:	6809      	ldr	r1, [r1, #0]
  40137a:	f013 0f04 	tst.w	r3, #4
  40137e:	d108      	bne.n	401392 <spi_select_device+0x1e>
  401380:	2903      	cmp	r1, #3
  401382:	d808      	bhi.n	401396 <spi_select_device+0x22>
  401384:	2301      	movs	r3, #1
  401386:	fa03 f101 	lsl.w	r1, r3, r1
  40138a:	43c9      	mvns	r1, r1
  40138c:	4b02      	ldr	r3, [pc, #8]	; (401398 <spi_select_device+0x24>)
  40138e:	4798      	blx	r3
  401390:	bd08      	pop	{r3, pc}
  401392:	290f      	cmp	r1, #15
  401394:	d9fa      	bls.n	40138c <spi_select_device+0x18>
  401396:	bd08      	pop	{r3, pc}
  401398:	00401f9d 	.word	0x00401f9d

0040139c <_read>:
  40139c:	b570      	push	{r4, r5, r6, lr}
  40139e:	460e      	mov	r6, r1
  4013a0:	4615      	mov	r5, r2
  4013a2:	b978      	cbnz	r0, 4013c4 <_read+0x28>
  4013a4:	4614      	mov	r4, r2
  4013a6:	1971      	adds	r1, r6, r5
  4013a8:	2c00      	cmp	r4, #0
  4013aa:	ebc4 0101 	rsb	r1, r4, r1
  4013ae:	dd06      	ble.n	4013be <_read+0x22>
  4013b0:	4b06      	ldr	r3, [pc, #24]	; (4013cc <_read+0x30>)
  4013b2:	3c01      	subs	r4, #1
  4013b4:	6818      	ldr	r0, [r3, #0]
  4013b6:	4b06      	ldr	r3, [pc, #24]	; (4013d0 <_read+0x34>)
  4013b8:	681b      	ldr	r3, [r3, #0]
  4013ba:	4798      	blx	r3
  4013bc:	e7f3      	b.n	4013a6 <_read+0xa>
  4013be:	ea25 70e5 	bic.w	r0, r5, r5, asr #31
  4013c2:	bd70      	pop	{r4, r5, r6, pc}
  4013c4:	f04f 30ff 	mov.w	r0, #4294967295
  4013c8:	bd70      	pop	{r4, r5, r6, pc}
  4013ca:	bf00      	nop
  4013cc:	20003ec8 	.word	0x20003ec8
  4013d0:	20003ec0 	.word	0x20003ec0

004013d4 <_write>:
  4013d4:	3801      	subs	r0, #1
  4013d6:	2802      	cmp	r0, #2
  4013d8:	b570      	push	{r4, r5, r6, lr}
  4013da:	460d      	mov	r5, r1
  4013dc:	4616      	mov	r6, r2
  4013de:	d801      	bhi.n	4013e4 <_write+0x10>
  4013e0:	2400      	movs	r4, #0
  4013e2:	e00b      	b.n	4013fc <_write+0x28>
  4013e4:	f04f 30ff 	mov.w	r0, #4294967295
  4013e8:	bd70      	pop	{r4, r5, r6, pc}
  4013ea:	4b06      	ldr	r3, [pc, #24]	; (401404 <_write+0x30>)
  4013ec:	5d29      	ldrb	r1, [r5, r4]
  4013ee:	6818      	ldr	r0, [r3, #0]
  4013f0:	4b05      	ldr	r3, [pc, #20]	; (401408 <_write+0x34>)
  4013f2:	681b      	ldr	r3, [r3, #0]
  4013f4:	4798      	blx	r3
  4013f6:	2800      	cmp	r0, #0
  4013f8:	dbf4      	blt.n	4013e4 <_write+0x10>
  4013fa:	3401      	adds	r4, #1
  4013fc:	42b4      	cmp	r4, r6
  4013fe:	d1f4      	bne.n	4013ea <_write+0x16>
  401400:	4620      	mov	r0, r4
  401402:	bd70      	pop	{r4, r5, r6, pc}
  401404:	20003ec8 	.word	0x20003ec8
  401408:	20003ec4 	.word	0x20003ec4

0040140c <board_init>:
  40140c:	4b33      	ldr	r3, [pc, #204]	; (4014dc <board_init+0xd0>)
  40140e:	f44f 4200 	mov.w	r2, #32768	; 0x8000
  401412:	b510      	push	{r4, lr}
  401414:	200b      	movs	r0, #11
  401416:	605a      	str	r2, [r3, #4]
  401418:	4c31      	ldr	r4, [pc, #196]	; (4014e0 <board_init+0xd4>)
  40141a:	47a0      	blx	r4
  40141c:	200c      	movs	r0, #12
  40141e:	47a0      	blx	r4
  401420:	200d      	movs	r0, #13
  401422:	47a0      	blx	r4
  401424:	4c2f      	ldr	r4, [pc, #188]	; (4014e4 <board_init+0xd8>)
  401426:	f04f 5160 	mov.w	r1, #939524096	; 0x38000000
  40142a:	2017      	movs	r0, #23
  40142c:	47a0      	blx	r4
  40142e:	f04f 5160 	mov.w	r1, #939524096	; 0x38000000
  401432:	202e      	movs	r0, #46	; 0x2e
  401434:	47a0      	blx	r4
  401436:	f04f 5160 	mov.w	r1, #939524096	; 0x38000000
  40143a:	2019      	movs	r0, #25
  40143c:	47a0      	blx	r4
  40143e:	492a      	ldr	r1, [pc, #168]	; (4014e8 <board_init+0xdc>)
  401440:	200f      	movs	r0, #15
  401442:	47a0      	blx	r4
  401444:	4929      	ldr	r1, [pc, #164]	; (4014ec <board_init+0xe0>)
  401446:	2010      	movs	r0, #16
  401448:	47a0      	blx	r4
  40144a:	f04f 6200 	mov.w	r2, #134217728	; 0x8000000
  40144e:	4b28      	ldr	r3, [pc, #160]	; (4014f0 <board_init+0xe4>)
  401450:	f44f 61c0 	mov.w	r1, #1536	; 0x600
  401454:	4827      	ldr	r0, [pc, #156]	; (4014f4 <board_init+0xe8>)
  401456:	4798      	blx	r3
  401458:	f04f 5180 	mov.w	r1, #268435456	; 0x10000000
  40145c:	2000      	movs	r0, #0
  40145e:	47a0      	blx	r4
  401460:	f04f 5180 	mov.w	r1, #268435456	; 0x10000000
  401464:	2008      	movs	r0, #8
  401466:	47a0      	blx	r4
  401468:	f04f 6100 	mov.w	r1, #134217728	; 0x8000000
  40146c:	2003      	movs	r0, #3
  40146e:	47a0      	blx	r4
  401470:	f04f 6100 	mov.w	r1, #134217728	; 0x8000000
  401474:	2004      	movs	r0, #4
  401476:	47a0      	blx	r4
  401478:	f04f 6100 	mov.w	r1, #134217728	; 0x8000000
  40147c:	200c      	movs	r0, #12
  40147e:	47a0      	blx	r4
  401480:	f04f 6100 	mov.w	r1, #134217728	; 0x8000000
  401484:	200d      	movs	r0, #13
  401486:	47a0      	blx	r4
  401488:	f04f 6100 	mov.w	r1, #134217728	; 0x8000000
  40148c:	200e      	movs	r0, #14
  40148e:	47a0      	blx	r4
  401490:	f04f 6100 	mov.w	r1, #134217728	; 0x8000000
  401494:	201f      	movs	r0, #31
  401496:	47a0      	blx	r4
  401498:	f04f 5180 	mov.w	r1, #268435456	; 0x10000000
  40149c:	201e      	movs	r0, #30
  40149e:	47a0      	blx	r4
  4014a0:	f04f 6100 	mov.w	r1, #134217728	; 0x8000000
  4014a4:	200c      	movs	r0, #12
  4014a6:	47a0      	blx	r4
  4014a8:	f04f 6100 	mov.w	r1, #134217728	; 0x8000000
  4014ac:	200d      	movs	r0, #13
  4014ae:	47a0      	blx	r4
  4014b0:	f04f 6100 	mov.w	r1, #134217728	; 0x8000000
  4014b4:	200e      	movs	r0, #14
  4014b6:	47a0      	blx	r4
  4014b8:	f04f 5180 	mov.w	r1, #268435456	; 0x10000000
  4014bc:	201e      	movs	r0, #30
  4014be:	47a0      	blx	r4
  4014c0:	f04f 5160 	mov.w	r1, #939524096	; 0x38000000
  4014c4:	201c      	movs	r0, #28
  4014c6:	47a0      	blx	r4
  4014c8:	f04f 5160 	mov.w	r1, #939524096	; 0x38000000
  4014cc:	201d      	movs	r0, #29
  4014ce:	47a0      	blx	r4
  4014d0:	f04f 5160 	mov.w	r1, #939524096	; 0x38000000
  4014d4:	204d      	movs	r0, #77	; 0x4d
  4014d6:	47a0      	blx	r4
  4014d8:	bd10      	pop	{r4, pc}
  4014da:	bf00      	nop
  4014dc:	400e1450 	.word	0x400e1450
  4014e0:	00401f65 	.word	0x00401f65
  4014e4:	00401c99 	.word	0x00401c99
  4014e8:	28000079 	.word	0x28000079
  4014ec:	28000059 	.word	0x28000059
  4014f0:	00401d4d 	.word	0x00401d4d
  4014f4:	400e0e00 	.word	0x400e0e00

004014f8 <LED_On>:
  4014f8:	b538      	push	{r3, r4, r5, lr}
  4014fa:	4605      	mov	r5, r0
  4014fc:	2400      	movs	r4, #0
  4014fe:	4b08      	ldr	r3, [pc, #32]	; (401520 <LED_On+0x28>)
  401500:	58e2      	ldr	r2, [r4, r3]
  401502:	4295      	cmp	r5, r2
  401504:	d107      	bne.n	401516 <LED_On+0x1e>
  401506:	4423      	add	r3, r4
  401508:	685b      	ldr	r3, [r3, #4]
  40150a:	4628      	mov	r0, r5
  40150c:	2b01      	cmp	r3, #1
  40150e:	bf0c      	ite	eq
  401510:	4b04      	ldreq	r3, [pc, #16]	; (401524 <LED_On+0x2c>)
  401512:	4b05      	ldrne	r3, [pc, #20]	; (401528 <LED_On+0x30>)
  401514:	4798      	blx	r3
  401516:	3408      	adds	r4, #8
  401518:	2c20      	cmp	r4, #32
  40151a:	d1f0      	bne.n	4014fe <LED_On+0x6>
  40151c:	bd38      	pop	{r3, r4, r5, pc}
  40151e:	bf00      	nop
  401520:	0040bc70 	.word	0x0040bc70
  401524:	00401c41 	.word	0x00401c41
  401528:	00401c5b 	.word	0x00401c5b

0040152c <aat31xx_set_backlight>:
  40152c:	b513      	push	{r0, r1, r4, lr}
  40152e:	f1c0 0011 	rsb	r0, r0, #17
  401532:	2810      	cmp	r0, #16
  401534:	bf28      	it	cs
  401536:	2010      	movcs	r0, #16
  401538:	2800      	cmp	r0, #0
  40153a:	bf08      	it	eq
  40153c:	2001      	moveq	r0, #1
  40153e:	2300      	movs	r3, #0
  401540:	4a10      	ldr	r2, [pc, #64]	; (401584 <aat31xx_set_backlight+0x58>)
  401542:	f44f 5100 	mov.w	r1, #8192	; 0x2000
  401546:	6351      	str	r1, [r2, #52]	; 0x34
  401548:	2118      	movs	r1, #24
  40154a:	9101      	str	r1, [sp, #4]
  40154c:	9901      	ldr	r1, [sp, #4]
  40154e:	1e4c      	subs	r4, r1, #1
  401550:	9401      	str	r4, [sp, #4]
  401552:	2900      	cmp	r1, #0
  401554:	d1fa      	bne.n	40154c <aat31xx_set_backlight+0x20>
  401556:	f44f 5100 	mov.w	r1, #8192	; 0x2000
  40155a:	6311      	str	r1, [r2, #48]	; 0x30
  40155c:	2218      	movs	r2, #24
  40155e:	9201      	str	r2, [sp, #4]
  401560:	9a01      	ldr	r2, [sp, #4]
  401562:	1e51      	subs	r1, r2, #1
  401564:	9101      	str	r1, [sp, #4]
  401566:	2a00      	cmp	r2, #0
  401568:	d1fa      	bne.n	401560 <aat31xx_set_backlight+0x34>
  40156a:	3301      	adds	r3, #1
  40156c:	4283      	cmp	r3, r0
  40156e:	d3e7      	bcc.n	401540 <aat31xx_set_backlight+0x14>
  401570:	f44f 3300 	mov.w	r3, #131072	; 0x20000
  401574:	9301      	str	r3, [sp, #4]
  401576:	9b01      	ldr	r3, [sp, #4]
  401578:	1e5a      	subs	r2, r3, #1
  40157a:	9201      	str	r2, [sp, #4]
  40157c:	2b00      	cmp	r3, #0
  40157e:	d1fa      	bne.n	401576 <aat31xx_set_backlight+0x4a>
  401580:	b002      	add	sp, #8
  401582:	bd10      	pop	{r4, pc}
  401584:	400e1200 	.word	0x400e1200

00401588 <aat31xx_disable_backlight>:
  401588:	4b07      	ldr	r3, [pc, #28]	; (4015a8 <aat31xx_disable_backlight+0x20>)
  40158a:	f44f 5200 	mov.w	r2, #8192	; 0x2000
  40158e:	635a      	str	r2, [r3, #52]	; 0x34
  401590:	b082      	sub	sp, #8
  401592:	f44f 3300 	mov.w	r3, #131072	; 0x20000
  401596:	9301      	str	r3, [sp, #4]
  401598:	9b01      	ldr	r3, [sp, #4]
  40159a:	1e5a      	subs	r2, r3, #1
  40159c:	9201      	str	r2, [sp, #4]
  40159e:	2b00      	cmp	r3, #0
  4015a0:	d1fa      	bne.n	401598 <aat31xx_disable_backlight+0x10>
  4015a2:	b002      	add	sp, #8
  4015a4:	4770      	bx	lr
  4015a6:	bf00      	nop
  4015a8:	400e1200 	.word	0x400e1200

004015ac <ili9225_delay>:
  4015ac:	b082      	sub	sp, #8
  4015ae:	2300      	movs	r3, #0
  4015b0:	9301      	str	r3, [sp, #4]
  4015b2:	9b01      	ldr	r3, [sp, #4]
  4015b4:	4283      	cmp	r3, r0
  4015b6:	d209      	bcs.n	4015cc <ili9225_delay+0x20>
  4015b8:	2300      	movs	r3, #0
  4015ba:	9301      	str	r3, [sp, #4]
  4015bc:	9a01      	ldr	r2, [sp, #4]
  4015be:	4b04      	ldr	r3, [pc, #16]	; (4015d0 <ili9225_delay+0x24>)
  4015c0:	429a      	cmp	r2, r3
  4015c2:	9b01      	ldr	r3, [sp, #4]
  4015c4:	f103 0301 	add.w	r3, r3, #1
  4015c8:	d9f7      	bls.n	4015ba <ili9225_delay+0xe>
  4015ca:	e7f1      	b.n	4015b0 <ili9225_delay+0x4>
  4015cc:	b002      	add	sp, #8
  4015ce:	4770      	bx	lr
  4015d0:	0001869f 	.word	0x0001869f

004015d4 <ili9225_check_box_coordinates>:
  4015d4:	b530      	push	{r4, r5, lr}
  4015d6:	6804      	ldr	r4, [r0, #0]
  4015d8:	2caf      	cmp	r4, #175	; 0xaf
  4015da:	bf84      	itt	hi
  4015dc:	24af      	movhi	r4, #175	; 0xaf
  4015de:	6004      	strhi	r4, [r0, #0]
  4015e0:	6814      	ldr	r4, [r2, #0]
  4015e2:	2caf      	cmp	r4, #175	; 0xaf
  4015e4:	bf84      	itt	hi
  4015e6:	24af      	movhi	r4, #175	; 0xaf
  4015e8:	6014      	strhi	r4, [r2, #0]
  4015ea:	680c      	ldr	r4, [r1, #0]
  4015ec:	2cdb      	cmp	r4, #219	; 0xdb
  4015ee:	bf84      	itt	hi
  4015f0:	24db      	movhi	r4, #219	; 0xdb
  4015f2:	600c      	strhi	r4, [r1, #0]
  4015f4:	681c      	ldr	r4, [r3, #0]
  4015f6:	2cdb      	cmp	r4, #219	; 0xdb
  4015f8:	bf84      	itt	hi
  4015fa:	24db      	movhi	r4, #219	; 0xdb
  4015fc:	601c      	strhi	r4, [r3, #0]
  4015fe:	6804      	ldr	r4, [r0, #0]
  401600:	6815      	ldr	r5, [r2, #0]
  401602:	42ac      	cmp	r4, r5
  401604:	bf84      	itt	hi
  401606:	6005      	strhi	r5, [r0, #0]
  401608:	6014      	strhi	r4, [r2, #0]
  40160a:	680a      	ldr	r2, [r1, #0]
  40160c:	6818      	ldr	r0, [r3, #0]
  40160e:	4282      	cmp	r2, r0
  401610:	bf84      	itt	hi
  401612:	6008      	strhi	r0, [r1, #0]
  401614:	601a      	strhi	r2, [r3, #0]
  401616:	bd30      	pop	{r4, r5, pc}

00401618 <ili9225_write_cmd>:
  401618:	b570      	push	{r4, r5, r6, lr}
  40161a:	4c0c      	ldr	r4, [pc, #48]	; (40164c <ili9225_write_cmd+0x34>)
  40161c:	4606      	mov	r6, r0
  40161e:	2102      	movs	r1, #2
  401620:	4620      	mov	r0, r4
  401622:	2200      	movs	r2, #0
  401624:	4d0a      	ldr	r5, [pc, #40]	; (401650 <ili9225_write_cmd+0x38>)
  401626:	47a8      	blx	r5
  401628:	2301      	movs	r3, #1
  40162a:	6023      	str	r3, [r4, #0]
  40162c:	201c      	movs	r0, #28
  40162e:	4b09      	ldr	r3, [pc, #36]	; (401654 <ili9225_write_cmd+0x3c>)
  401630:	4798      	blx	r3
  401632:	4631      	mov	r1, r6
  401634:	4620      	mov	r0, r4
  401636:	2202      	movs	r2, #2
  401638:	2300      	movs	r3, #0
  40163a:	4e07      	ldr	r6, [pc, #28]	; (401658 <ili9225_write_cmd+0x40>)
  40163c:	47b0      	blx	r6
  40163e:	2102      	movs	r1, #2
  401640:	6021      	str	r1, [r4, #0]
  401642:	4620      	mov	r0, r4
  401644:	2280      	movs	r2, #128	; 0x80
  401646:	47a8      	blx	r5
  401648:	bd70      	pop	{r4, r5, r6, pc}
  40164a:	bf00      	nop
  40164c:	40008000 	.word	0x40008000
  401650:	00402061 	.word	0x00402061
  401654:	00401c5b 	.word	0x00401c5b
  401658:	00401fc5 	.word	0x00401fc5

0040165c <ili9225_write_ram>:
  40165c:	b538      	push	{r3, r4, r5, lr}
  40165e:	4c08      	ldr	r4, [pc, #32]	; (401680 <ili9225_write_ram+0x24>)
  401660:	2301      	movs	r3, #1
  401662:	4605      	mov	r5, r0
  401664:	6023      	str	r3, [r4, #0]
  401666:	201c      	movs	r0, #28
  401668:	4b06      	ldr	r3, [pc, #24]	; (401684 <ili9225_write_ram+0x28>)
  40166a:	4798      	blx	r3
  40166c:	4629      	mov	r1, r5
  40166e:	2300      	movs	r3, #0
  401670:	4620      	mov	r0, r4
  401672:	2202      	movs	r2, #2
  401674:	4d04      	ldr	r5, [pc, #16]	; (401688 <ili9225_write_ram+0x2c>)
  401676:	47a8      	blx	r5
  401678:	2302      	movs	r3, #2
  40167a:	6023      	str	r3, [r4, #0]
  40167c:	bd38      	pop	{r3, r4, r5, pc}
  40167e:	bf00      	nop
  401680:	40008000 	.word	0x40008000
  401684:	00401c41 	.word	0x00401c41
  401688:	00401fc5 	.word	0x00401fc5

0040168c <ili9225_write_register>:
  40168c:	b510      	push	{r4, lr}
  40168e:	4b03      	ldr	r3, [pc, #12]	; (40169c <ili9225_write_register+0x10>)
  401690:	460c      	mov	r4, r1
  401692:	4798      	blx	r3
  401694:	4620      	mov	r0, r4
  401696:	4b02      	ldr	r3, [pc, #8]	; (4016a0 <ili9225_write_register+0x14>)
  401698:	4798      	blx	r3
  40169a:	bd10      	pop	{r4, pc}
  40169c:	00401619 	.word	0x00401619
  4016a0:	0040165d 	.word	0x0040165d

004016a4 <ili9225_write_ram_buffer.part.0>:
  4016a4:	4b0e      	ldr	r3, [pc, #56]	; (4016e0 <ili9225_write_ram_buffer.part.0+0x3c>)
  4016a6:	2201      	movs	r2, #1
  4016a8:	b573      	push	{r0, r1, r4, r5, r6, lr}
  4016aa:	601a      	str	r2, [r3, #0]
  4016ac:	4605      	mov	r5, r0
  4016ae:	4b0d      	ldr	r3, [pc, #52]	; (4016e4 <ili9225_write_ram_buffer.part.0+0x40>)
  4016b0:	201c      	movs	r0, #28
  4016b2:	460c      	mov	r4, r1
  4016b4:	4798      	blx	r3
  4016b6:	2300      	movs	r3, #0
  4016b8:	9301      	str	r3, [sp, #4]
  4016ba:	9b01      	ldr	r3, [sp, #4]
  4016bc:	42a3      	cmp	r3, r4
  4016be:	d20a      	bcs.n	4016d6 <ili9225_write_ram_buffer.part.0+0x32>
  4016c0:	9b01      	ldr	r3, [sp, #4]
  4016c2:	4807      	ldr	r0, [pc, #28]	; (4016e0 <ili9225_write_ram_buffer.part.0+0x3c>)
  4016c4:	f835 1013 	ldrh.w	r1, [r5, r3, lsl #1]
  4016c8:	2202      	movs	r2, #2
  4016ca:	2300      	movs	r3, #0
  4016cc:	4e06      	ldr	r6, [pc, #24]	; (4016e8 <ili9225_write_ram_buffer.part.0+0x44>)
  4016ce:	47b0      	blx	r6
  4016d0:	9b01      	ldr	r3, [sp, #4]
  4016d2:	3301      	adds	r3, #1
  4016d4:	e7f0      	b.n	4016b8 <ili9225_write_ram_buffer.part.0+0x14>
  4016d6:	4b02      	ldr	r3, [pc, #8]	; (4016e0 <ili9225_write_ram_buffer.part.0+0x3c>)
  4016d8:	2202      	movs	r2, #2
  4016da:	601a      	str	r2, [r3, #0]
  4016dc:	b002      	add	sp, #8
  4016de:	bd70      	pop	{r4, r5, r6, pc}
  4016e0:	40008000 	.word	0x40008000
  4016e4:	00401c41 	.word	0x00401c41
  4016e8:	00401fc5 	.word	0x00401fc5

004016ec <ili9225_spi_handler>:
  4016ec:	4b03      	ldr	r3, [pc, #12]	; (4016fc <ili9225_spi_handler+0x10>)
  4016ee:	69da      	ldr	r2, [r3, #28]
  4016f0:	619a      	str	r2, [r3, #24]
  4016f2:	4b03      	ldr	r3, [pc, #12]	; (401700 <ili9225_spi_handler+0x14>)
  4016f4:	2201      	movs	r2, #1
  4016f6:	701a      	strb	r2, [r3, #0]
  4016f8:	4770      	bx	lr
  4016fa:	bf00      	nop
  4016fc:	40008000 	.word	0x40008000
  401700:	20000b38 	.word	0x20000b38

00401704 <ili9225_display_on>:
  401704:	b508      	push	{r3, lr}
  401706:	2007      	movs	r0, #7
  401708:	f241 0117 	movw	r1, #4119	; 0x1017
  40170c:	4b01      	ldr	r3, [pc, #4]	; (401714 <ili9225_display_on+0x10>)
  40170e:	4798      	blx	r3
  401710:	bd08      	pop	{r3, pc}
  401712:	bf00      	nop
  401714:	0040168d 	.word	0x0040168d

00401718 <ili9225_display_off>:
  401718:	b508      	push	{r3, lr}
  40171a:	2007      	movs	r0, #7
  40171c:	2100      	movs	r1, #0
  40171e:	4b01      	ldr	r3, [pc, #4]	; (401724 <ili9225_display_off+0xc>)
  401720:	4798      	blx	r3
  401722:	bd08      	pop	{r3, pc}
  401724:	0040168d 	.word	0x0040168d

00401728 <ili9225_set_foreground_color>:
  401728:	f400 0378 	and.w	r3, r0, #16252928	; 0xf80000
  40172c:	f400 427c 	and.w	r2, r0, #64512	; 0xfc00
  401730:	0a1b      	lsrs	r3, r3, #8
  401732:	ea43 1352 	orr.w	r3, r3, r2, lsr #5
  401736:	f3c0 00c4 	ubfx	r0, r0, #3, #5
  40173a:	4318      	orrs	r0, r3
  40173c:	2300      	movs	r3, #0
  40173e:	4a03      	ldr	r2, [pc, #12]	; (40174c <ili9225_set_foreground_color+0x24>)
  401740:	5298      	strh	r0, [r3, r2]
  401742:	3302      	adds	r3, #2
  401744:	f5b3 7fb0 	cmp.w	r3, #352	; 0x160
  401748:	d1f9      	bne.n	40173e <ili9225_set_foreground_color+0x16>
  40174a:	4770      	bx	lr
  40174c:	200009d8 	.word	0x200009d8

00401750 <ili9225_set_window>:
  401750:	3a01      	subs	r2, #1
  401752:	b5f8      	push	{r3, r4, r5, r6, r7, lr}
  401754:	460d      	mov	r5, r1
  401756:	1811      	adds	r1, r2, r0
  401758:	461f      	mov	r7, r3
  40175a:	4c08      	ldr	r4, [pc, #32]	; (40177c <ili9225_set_window+0x2c>)
  40175c:	4606      	mov	r6, r0
  40175e:	b2c9      	uxtb	r1, r1
  401760:	2036      	movs	r0, #54	; 0x36
  401762:	47a0      	blx	r4
  401764:	3f01      	subs	r7, #1
  401766:	b2f1      	uxtb	r1, r6
  401768:	2037      	movs	r0, #55	; 0x37
  40176a:	47a0      	blx	r4
  40176c:	1979      	adds	r1, r7, r5
  40176e:	2038      	movs	r0, #56	; 0x38
  401770:	b2c9      	uxtb	r1, r1
  401772:	47a0      	blx	r4
  401774:	2039      	movs	r0, #57	; 0x39
  401776:	b2e9      	uxtb	r1, r5
  401778:	47a0      	blx	r4
  40177a:	bdf8      	pop	{r3, r4, r5, r6, r7, pc}
  40177c:	0040168d 	.word	0x0040168d

00401780 <ili9225_set_cursor_position>:
  401780:	b538      	push	{r3, r4, r5, lr}
  401782:	460d      	mov	r5, r1
  401784:	4c03      	ldr	r4, [pc, #12]	; (401794 <ili9225_set_cursor_position+0x14>)
  401786:	b2c1      	uxtb	r1, r0
  401788:	2020      	movs	r0, #32
  40178a:	47a0      	blx	r4
  40178c:	2021      	movs	r0, #33	; 0x21
  40178e:	b2e9      	uxtb	r1, r5
  401790:	47a0      	blx	r4
  401792:	bd38      	pop	{r3, r4, r5, pc}
  401794:	0040168d 	.word	0x0040168d

00401798 <ili9225_init>:
  401798:	e92d 43f0 	stmdb	sp!, {r4, r5, r6, r7, r8, r9, lr}
  40179c:	b085      	sub	sp, #20
  40179e:	2702      	movs	r7, #2
  4017a0:	f10d 0810 	add.w	r8, sp, #16
  4017a4:	4681      	mov	r9, r0
  4017a6:	4c60      	ldr	r4, [pc, #384]	; (401928 <ili9225_init+0x190>)
  4017a8:	201d      	movs	r0, #29
  4017aa:	f848 7d04 	str.w	r7, [r8, #-4]!
  4017ae:	4e5f      	ldr	r6, [pc, #380]	; (40192c <ili9225_init+0x194>)
  4017b0:	47a0      	blx	r4
  4017b2:	4638      	mov	r0, r7
  4017b4:	47b0      	blx	r6
  4017b6:	4b5e      	ldr	r3, [pc, #376]	; (401930 <ili9225_init+0x198>)
  4017b8:	201d      	movs	r0, #29
  4017ba:	4798      	blx	r3
  4017bc:	2014      	movs	r0, #20
  4017be:	47b0      	blx	r6
  4017c0:	201d      	movs	r0, #29
  4017c2:	47a0      	blx	r4
  4017c4:	4c5b      	ldr	r4, [pc, #364]	; (401934 <ili9225_init+0x19c>)
  4017c6:	2032      	movs	r0, #50	; 0x32
  4017c8:	47b0      	blx	r6
  4017ca:	2380      	movs	r3, #128	; 0x80
  4017cc:	6027      	str	r7, [r4, #0]
  4017ce:	6023      	str	r3, [r4, #0]
  4017d0:	f04f 7380 	mov.w	r3, #16777216	; 0x1000000
  4017d4:	6023      	str	r3, [r4, #0]
  4017d6:	4b58      	ldr	r3, [pc, #352]	; (401938 <ili9225_init+0x1a0>)
  4017d8:	2500      	movs	r5, #0
  4017da:	f44f 1200 	mov.w	r2, #2097152	; 0x200000
  4017de:	f8c3 2080 	str.w	r2, [r3, #128]	; 0x80
  4017e2:	4620      	mov	r0, r4
  4017e4:	f8c3 2180 	str.w	r2, [r3, #384]	; 0x180
  4017e8:	f883 5315 	strb.w	r5, [r3, #789]	; 0x315
  4017ec:	601a      	str	r2, [r3, #0]
  4017ee:	4b53      	ldr	r3, [pc, #332]	; (40193c <ili9225_init+0x1a4>)
  4017f0:	4798      	blx	r3
  4017f2:	462a      	mov	r2, r5
  4017f4:	f8df c164 	ldr.w	ip, [pc, #356]	; 40195c <ili9225_init+0x1c4>
  4017f8:	4620      	mov	r0, r4
  4017fa:	4641      	mov	r1, r8
  4017fc:	9500      	str	r5, [sp, #0]
  4017fe:	4b50      	ldr	r3, [pc, #320]	; (401940 <ili9225_init+0x1a8>)
  401800:	47e0      	blx	ip
  401802:	4620      	mov	r0, r4
  401804:	4641      	mov	r1, r8
  401806:	4b4f      	ldr	r3, [pc, #316]	; (401944 <ili9225_init+0x1ac>)
  401808:	f04f 0801 	mov.w	r8, #1
  40180c:	4798      	blx	r3
  40180e:	4b4e      	ldr	r3, [pc, #312]	; (401948 <ili9225_init+0x1b0>)
  401810:	f8c4 8000 	str.w	r8, [r4]
  401814:	f8c4 8014 	str.w	r8, [r4, #20]
  401818:	4798      	blx	r3
  40181a:	4c4c      	ldr	r4, [pc, #304]	; (40194c <ili9225_init+0x1b4>)
  40181c:	4640      	mov	r0, r8
  40181e:	f44f 718e 	mov.w	r1, #284	; 0x11c
  401822:	47a0      	blx	r4
  401824:	4638      	mov	r0, r7
  401826:	f44f 7180 	mov.w	r1, #256	; 0x100
  40182a:	47a0      	blx	r4
  40182c:	2003      	movs	r0, #3
  40182e:	f241 0130 	movw	r1, #4144	; 0x1030
  401832:	47a0      	blx	r4
  401834:	2008      	movs	r0, #8
  401836:	f640 0108 	movw	r1, #2056	; 0x808
  40183a:	47a0      	blx	r4
  40183c:	4641      	mov	r1, r8
  40183e:	200c      	movs	r0, #12
  401840:	47a0      	blx	r4
  401842:	200f      	movs	r0, #15
  401844:	f640 2101 	movw	r1, #2561	; 0xa01
  401848:	47a0      	blx	r4
  40184a:	2020      	movs	r0, #32
  40184c:	21b0      	movs	r1, #176	; 0xb0
  40184e:	47a0      	blx	r4
  401850:	2021      	movs	r0, #33	; 0x21
  401852:	21dc      	movs	r1, #220	; 0xdc
  401854:	47a0      	blx	r4
  401856:	2010      	movs	r0, #16
  401858:	f44f 6120 	mov.w	r1, #2560	; 0xa00
  40185c:	47a0      	blx	r4
  40185e:	f241 0138 	movw	r1, #4152	; 0x1038
  401862:	2011      	movs	r0, #17
  401864:	47a0      	blx	r4
  401866:	2032      	movs	r0, #50	; 0x32
  401868:	47b0      	blx	r6
  40186a:	2012      	movs	r0, #18
  40186c:	f241 1121 	movw	r1, #4385	; 0x1121
  401870:	47a0      	blx	r4
  401872:	2013      	movs	r0, #19
  401874:	214e      	movs	r1, #78	; 0x4e
  401876:	47a0      	blx	r4
  401878:	2014      	movs	r0, #20
  40187a:	f246 716f 	movw	r1, #26479	; 0x676f
  40187e:	47a0      	blx	r4
  401880:	4629      	mov	r1, r5
  401882:	2030      	movs	r0, #48	; 0x30
  401884:	47a0      	blx	r4
  401886:	2031      	movs	r0, #49	; 0x31
  401888:	21db      	movs	r1, #219	; 0xdb
  40188a:	47a0      	blx	r4
  40188c:	4629      	mov	r1, r5
  40188e:	2032      	movs	r0, #50	; 0x32
  401890:	47a0      	blx	r4
  401892:	4629      	mov	r1, r5
  401894:	2033      	movs	r0, #51	; 0x33
  401896:	47a0      	blx	r4
  401898:	2034      	movs	r0, #52	; 0x34
  40189a:	21db      	movs	r1, #219	; 0xdb
  40189c:	47a0      	blx	r4
  40189e:	4629      	mov	r1, r5
  4018a0:	2035      	movs	r0, #53	; 0x35
  4018a2:	47a0      	blx	r4
  4018a4:	2036      	movs	r0, #54	; 0x36
  4018a6:	21b0      	movs	r1, #176	; 0xb0
  4018a8:	47a0      	blx	r4
  4018aa:	4629      	mov	r1, r5
  4018ac:	2037      	movs	r0, #55	; 0x37
  4018ae:	47a0      	blx	r4
  4018b0:	2038      	movs	r0, #56	; 0x38
  4018b2:	21dc      	movs	r1, #220	; 0xdc
  4018b4:	47a0      	blx	r4
  4018b6:	4629      	mov	r1, r5
  4018b8:	2039      	movs	r0, #57	; 0x39
  4018ba:	47a0      	blx	r4
  4018bc:	4629      	mov	r1, r5
  4018be:	2050      	movs	r0, #80	; 0x50
  4018c0:	47a0      	blx	r4
  4018c2:	2051      	movs	r0, #81	; 0x51
  4018c4:	f240 610a 	movw	r1, #1546	; 0x60a
  4018c8:	47a0      	blx	r4
  4018ca:	2052      	movs	r0, #82	; 0x52
  4018cc:	f640 510a 	movw	r1, #3338	; 0xd0a
  4018d0:	47a0      	blx	r4
  4018d2:	2053      	movs	r0, #83	; 0x53
  4018d4:	f240 3103 	movw	r1, #771	; 0x303
  4018d8:	47a0      	blx	r4
  4018da:	2054      	movs	r0, #84	; 0x54
  4018dc:	f640 210d 	movw	r1, #2573	; 0xa0d
  4018e0:	47a0      	blx	r4
  4018e2:	2055      	movs	r0, #85	; 0x55
  4018e4:	f640 2106 	movw	r1, #2566	; 0xa06
  4018e8:	47a0      	blx	r4
  4018ea:	4629      	mov	r1, r5
  4018ec:	2056      	movs	r0, #86	; 0x56
  4018ee:	47a0      	blx	r4
  4018f0:	2057      	movs	r0, #87	; 0x57
  4018f2:	f240 3103 	movw	r1, #771	; 0x303
  4018f6:	47a0      	blx	r4
  4018f8:	4629      	mov	r1, r5
  4018fa:	2058      	movs	r0, #88	; 0x58
  4018fc:	47a0      	blx	r4
  4018fe:	4629      	mov	r1, r5
  401900:	2059      	movs	r0, #89	; 0x59
  401902:	47a0      	blx	r4
  401904:	e899 000c 	ldmia.w	r9, {r2, r3}
  401908:	4629      	mov	r1, r5
  40190a:	4628      	mov	r0, r5
  40190c:	4c10      	ldr	r4, [pc, #64]	; (401950 <ili9225_init+0x1b8>)
  40190e:	47a0      	blx	r4
  401910:	f8d9 0008 	ldr.w	r0, [r9, #8]
  401914:	4b0f      	ldr	r3, [pc, #60]	; (401954 <ili9225_init+0x1bc>)
  401916:	4798      	blx	r3
  401918:	4628      	mov	r0, r5
  40191a:	4629      	mov	r1, r5
  40191c:	4b0e      	ldr	r3, [pc, #56]	; (401958 <ili9225_init+0x1c0>)
  40191e:	4798      	blx	r3
  401920:	4628      	mov	r0, r5
  401922:	b005      	add	sp, #20
  401924:	e8bd 83f0 	ldmia.w	sp!, {r4, r5, r6, r7, r8, r9, pc}
  401928:	00401c41 	.word	0x00401c41
  40192c:	004015ad 	.word	0x004015ad
  401930:	00401c5b 	.word	0x00401c5b
  401934:	40008000 	.word	0x40008000
  401938:	e000e100 	.word	0xe000e100
  40193c:	004012a5 	.word	0x004012a5
  401940:	00bebc20 	.word	0x00bebc20
  401944:	00401375 	.word	0x00401375
  401948:	00401719 	.word	0x00401719
  40194c:	0040168d 	.word	0x0040168d
  401950:	00401751 	.word	0x00401751
  401954:	00401729 	.word	0x00401729
  401958:	00401781 	.word	0x00401781
  40195c:	004012f9 	.word	0x004012f9

00401960 <ili9225_fill>:
  401960:	b538      	push	{r3, r4, r5, lr}
  401962:	4605      	mov	r5, r0
  401964:	2000      	movs	r0, #0
  401966:	4601      	mov	r1, r0
  401968:	4b06      	ldr	r3, [pc, #24]	; (401984 <ili9225_fill+0x24>)
  40196a:	4798      	blx	r3
  40196c:	2022      	movs	r0, #34	; 0x22
  40196e:	4b06      	ldr	r3, [pc, #24]	; (401988 <ili9225_fill+0x28>)
  401970:	4798      	blx	r3
  401972:	f249 7440 	movw	r4, #38720	; 0x9740
  401976:	4628      	mov	r0, r5
  401978:	4b04      	ldr	r3, [pc, #16]	; (40198c <ili9225_fill+0x2c>)
  40197a:	4798      	blx	r3
  40197c:	3c01      	subs	r4, #1
  40197e:	d1fa      	bne.n	401976 <ili9225_fill+0x16>
  401980:	bd38      	pop	{r3, r4, r5, pc}
  401982:	bf00      	nop
  401984:	00401781 	.word	0x00401781
  401988:	00401619 	.word	0x00401619
  40198c:	0040165d 	.word	0x0040165d

00401990 <ili9225_draw_pixel>:
  401990:	28af      	cmp	r0, #175	; 0xaf
  401992:	b508      	push	{r3, lr}
  401994:	d80e      	bhi.n	4019b4 <ili9225_draw_pixel+0x24>
  401996:	29db      	cmp	r1, #219	; 0xdb
  401998:	d80c      	bhi.n	4019b4 <ili9225_draw_pixel+0x24>
  40199a:	b289      	uxth	r1, r1
  40199c:	b280      	uxth	r0, r0
  40199e:	4b06      	ldr	r3, [pc, #24]	; (4019b8 <ili9225_draw_pixel+0x28>)
  4019a0:	4798      	blx	r3
  4019a2:	2022      	movs	r0, #34	; 0x22
  4019a4:	4b05      	ldr	r3, [pc, #20]	; (4019bc <ili9225_draw_pixel+0x2c>)
  4019a6:	4798      	blx	r3
  4019a8:	4b05      	ldr	r3, [pc, #20]	; (4019c0 <ili9225_draw_pixel+0x30>)
  4019aa:	8818      	ldrh	r0, [r3, #0]
  4019ac:	4b05      	ldr	r3, [pc, #20]	; (4019c4 <ili9225_draw_pixel+0x34>)
  4019ae:	4798      	blx	r3
  4019b0:	2000      	movs	r0, #0
  4019b2:	bd08      	pop	{r3, pc}
  4019b4:	2001      	movs	r0, #1
  4019b6:	bd08      	pop	{r3, pc}
  4019b8:	00401781 	.word	0x00401781
  4019bc:	00401619 	.word	0x00401619
  4019c0:	200009d8 	.word	0x200009d8
  4019c4:	0040165d 	.word	0x0040165d

004019c8 <ili9225_draw_filled_rectangle>:
  4019c8:	b57f      	push	{r0, r1, r2, r3, r4, r5, r6, lr}
  4019ca:	4c20      	ldr	r4, [pc, #128]	; (401a4c <ili9225_draw_filled_rectangle+0x84>)
  4019cc:	9003      	str	r0, [sp, #12]
  4019ce:	9102      	str	r1, [sp, #8]
  4019d0:	9201      	str	r2, [sp, #4]
  4019d2:	9300      	str	r3, [sp, #0]
  4019d4:	a803      	add	r0, sp, #12
  4019d6:	a902      	add	r1, sp, #8
  4019d8:	aa01      	add	r2, sp, #4
  4019da:	466b      	mov	r3, sp
  4019dc:	47a0      	blx	r4
  4019de:	9a01      	ldr	r2, [sp, #4]
  4019e0:	9b00      	ldr	r3, [sp, #0]
  4019e2:	9803      	ldr	r0, [sp, #12]
  4019e4:	9902      	ldr	r1, [sp, #8]
  4019e6:	3201      	adds	r2, #1
  4019e8:	3301      	adds	r3, #1
  4019ea:	1a12      	subs	r2, r2, r0
  4019ec:	1a5b      	subs	r3, r3, r1
  4019ee:	4e18      	ldr	r6, [pc, #96]	; (401a50 <ili9225_draw_filled_rectangle+0x88>)
  4019f0:	47b0      	blx	r6
  4019f2:	f8bd 000c 	ldrh.w	r0, [sp, #12]
  4019f6:	f8bd 1008 	ldrh.w	r1, [sp, #8]
  4019fa:	4b16      	ldr	r3, [pc, #88]	; (401a54 <ili9225_draw_filled_rectangle+0x8c>)
  4019fc:	4798      	blx	r3
  4019fe:	4b16      	ldr	r3, [pc, #88]	; (401a58 <ili9225_draw_filled_rectangle+0x90>)
  401a00:	2022      	movs	r0, #34	; 0x22
  401a02:	4798      	blx	r3
  401a04:	9b02      	ldr	r3, [sp, #8]
  401a06:	9c00      	ldr	r4, [sp, #0]
  401a08:	25b0      	movs	r5, #176	; 0xb0
  401a0a:	1ae2      	subs	r2, r4, r3
  401a0c:	9b01      	ldr	r3, [sp, #4]
  401a0e:	1c5c      	adds	r4, r3, #1
  401a10:	9b03      	ldr	r3, [sp, #12]
  401a12:	1ae4      	subs	r4, r4, r3
  401a14:	fb02 4404 	mla	r4, r2, r4, r4
  401a18:	fbb4 f5f5 	udiv	r5, r4, r5
  401a1c:	b12d      	cbz	r5, 401a2a <ili9225_draw_filled_rectangle+0x62>
  401a1e:	480f      	ldr	r0, [pc, #60]	; (401a5c <ili9225_draw_filled_rectangle+0x94>)
  401a20:	21b0      	movs	r1, #176	; 0xb0
  401a22:	4b0f      	ldr	r3, [pc, #60]	; (401a60 <ili9225_draw_filled_rectangle+0x98>)
  401a24:	4798      	blx	r3
  401a26:	3d01      	subs	r5, #1
  401a28:	e7f8      	b.n	401a1c <ili9225_draw_filled_rectangle+0x54>
  401a2a:	23b0      	movs	r3, #176	; 0xb0
  401a2c:	fbb4 f1f3 	udiv	r1, r4, r3
  401a30:	fb03 4111 	mls	r1, r3, r1, r4
  401a34:	b111      	cbz	r1, 401a3c <ili9225_draw_filled_rectangle+0x74>
  401a36:	4809      	ldr	r0, [pc, #36]	; (401a5c <ili9225_draw_filled_rectangle+0x94>)
  401a38:	4b09      	ldr	r3, [pc, #36]	; (401a60 <ili9225_draw_filled_rectangle+0x98>)
  401a3a:	4798      	blx	r3
  401a3c:	2000      	movs	r0, #0
  401a3e:	4601      	mov	r1, r0
  401a40:	22b0      	movs	r2, #176	; 0xb0
  401a42:	23dc      	movs	r3, #220	; 0xdc
  401a44:	47b0      	blx	r6
  401a46:	b004      	add	sp, #16
  401a48:	bd70      	pop	{r4, r5, r6, pc}
  401a4a:	bf00      	nop
  401a4c:	004015d5 	.word	0x004015d5
  401a50:	00401751 	.word	0x00401751
  401a54:	00401781 	.word	0x00401781
  401a58:	00401619 	.word	0x00401619
  401a5c:	200009d8 	.word	0x200009d8
  401a60:	004016a5 	.word	0x004016a5

00401a64 <ili9225_draw_string>:
  401a64:	e92d 47f0 	stmdb	sp!, {r4, r5, r6, r7, r8, r9, sl, lr}
  401a68:	4682      	mov	sl, r0
  401a6a:	460f      	mov	r7, r1
  401a6c:	f102 39ff 	add.w	r9, r2, #4294967295
  401a70:	4654      	mov	r4, sl
  401a72:	f819 3f01 	ldrb.w	r3, [r9, #1]!
  401a76:	b38b      	cbz	r3, 401adc <ili9225_draw_string+0x78>
  401a78:	2b0a      	cmp	r3, #10
  401a7a:	d101      	bne.n	401a80 <ili9225_draw_string+0x1c>
  401a7c:	3710      	adds	r7, #16
  401a7e:	e7f7      	b.n	401a70 <ili9225_draw_string+0xc>
  401a80:	4a17      	ldr	r2, [pc, #92]	; (401ae0 <ili9225_draw_string+0x7c>)
  401a82:	f04f 0814 	mov.w	r8, #20
  401a86:	fb08 2803 	mla	r8, r8, r3, r2
  401a8a:	2500      	movs	r5, #0
  401a8c:	f2a8 287f 	subw	r8, r8, #639	; 0x27f
  401a90:	2600      	movs	r6, #0
  401a92:	f818 2c01 	ldrb.w	r2, [r8, #-1]
  401a96:	f1c6 0307 	rsb	r3, r6, #7
  401a9a:	fa42 f303 	asr.w	r3, r2, r3
  401a9e:	07da      	lsls	r2, r3, #31
  401aa0:	d503      	bpl.n	401aaa <ili9225_draw_string+0x46>
  401aa2:	1928      	adds	r0, r5, r4
  401aa4:	19f1      	adds	r1, r6, r7
  401aa6:	4b0f      	ldr	r3, [pc, #60]	; (401ae4 <ili9225_draw_string+0x80>)
  401aa8:	4798      	blx	r3
  401aaa:	3601      	adds	r6, #1
  401aac:	2e08      	cmp	r6, #8
  401aae:	d1f0      	bne.n	401a92 <ili9225_draw_string+0x2e>
  401ab0:	2607      	movs	r6, #7
  401ab2:	f898 3000 	ldrb.w	r3, [r8]
  401ab6:	4133      	asrs	r3, r6
  401ab8:	07db      	lsls	r3, r3, #31
  401aba:	d505      	bpl.n	401ac8 <ili9225_draw_string+0x64>
  401abc:	f107 010f 	add.w	r1, r7, #15
  401ac0:	1928      	adds	r0, r5, r4
  401ac2:	1b89      	subs	r1, r1, r6
  401ac4:	4b07      	ldr	r3, [pc, #28]	; (401ae4 <ili9225_draw_string+0x80>)
  401ac6:	4798      	blx	r3
  401ac8:	3e01      	subs	r6, #1
  401aca:	2e01      	cmp	r6, #1
  401acc:	d1f1      	bne.n	401ab2 <ili9225_draw_string+0x4e>
  401ace:	3501      	adds	r5, #1
  401ad0:	2d0a      	cmp	r5, #10
  401ad2:	f108 0802 	add.w	r8, r8, #2
  401ad6:	d1db      	bne.n	401a90 <ili9225_draw_string+0x2c>
  401ad8:	340c      	adds	r4, #12
  401ada:	e7ca      	b.n	401a72 <ili9225_draw_string+0xe>
  401adc:	e8bd 87f0 	ldmia.w	sp!, {r4, r5, r6, r7, r8, r9, sl, pc}
  401ae0:	0040bc90 	.word	0x0040bc90
  401ae4:	00401991 	.word	0x00401991

00401ae8 <pdc_tx_init>:
  401ae8:	b119      	cbz	r1, 401af2 <pdc_tx_init+0xa>
  401aea:	680b      	ldr	r3, [r1, #0]
  401aec:	6083      	str	r3, [r0, #8]
  401aee:	684b      	ldr	r3, [r1, #4]
  401af0:	60c3      	str	r3, [r0, #12]
  401af2:	b11a      	cbz	r2, 401afc <pdc_tx_init+0x14>
  401af4:	6813      	ldr	r3, [r2, #0]
  401af6:	6183      	str	r3, [r0, #24]
  401af8:	6853      	ldr	r3, [r2, #4]
  401afa:	61c3      	str	r3, [r0, #28]
  401afc:	4770      	bx	lr

00401afe <pdc_rx_init>:
  401afe:	b119      	cbz	r1, 401b08 <pdc_rx_init+0xa>
  401b00:	680b      	ldr	r3, [r1, #0]
  401b02:	6003      	str	r3, [r0, #0]
  401b04:	684b      	ldr	r3, [r1, #4]
  401b06:	6043      	str	r3, [r0, #4]
  401b08:	b11a      	cbz	r2, 401b12 <pdc_rx_init+0x14>
  401b0a:	6813      	ldr	r3, [r2, #0]
  401b0c:	6103      	str	r3, [r0, #16]
  401b0e:	6853      	ldr	r3, [r2, #4]
  401b10:	6143      	str	r3, [r0, #20]
  401b12:	4770      	bx	lr

00401b14 <pdc_enable_transfer>:
  401b14:	f021 01fe 	bic.w	r1, r1, #254	; 0xfe
  401b18:	05c9      	lsls	r1, r1, #23
  401b1a:	0dc9      	lsrs	r1, r1, #23
  401b1c:	6201      	str	r1, [r0, #32]
  401b1e:	4770      	bx	lr

00401b20 <pdc_disable_transfer>:
  401b20:	f421 71fe 	bic.w	r1, r1, #508	; 0x1fc
  401b24:	f021 0101 	bic.w	r1, r1, #1
  401b28:	0589      	lsls	r1, r1, #22
  401b2a:	0d89      	lsrs	r1, r1, #22
  401b2c:	6201      	str	r1, [r0, #32]
  401b2e:	4770      	bx	lr

00401b30 <pio_set_peripheral>:
  401b30:	f1b1 5fc0 	cmp.w	r1, #402653184	; 0x18000000
  401b34:	b510      	push	{r4, lr}
  401b36:	6442      	str	r2, [r0, #68]	; 0x44
  401b38:	d02d      	beq.n	401b96 <pio_set_peripheral+0x66>
  401b3a:	d807      	bhi.n	401b4c <pio_set_peripheral+0x1c>
  401b3c:	f1b1 6f00 	cmp.w	r1, #134217728	; 0x8000000
  401b40:	d015      	beq.n	401b6e <pio_set_peripheral+0x3e>
  401b42:	f1b1 5f80 	cmp.w	r1, #268435456	; 0x10000000
  401b46:	d01d      	beq.n	401b84 <pio_set_peripheral+0x54>
  401b48:	bb71      	cbnz	r1, 401ba8 <pio_set_peripheral+0x78>
  401b4a:	bd10      	pop	{r4, pc}
  401b4c:	f1b1 5f20 	cmp.w	r1, #671088640	; 0x28000000
  401b50:	d02b      	beq.n	401baa <pio_set_peripheral+0x7a>
  401b52:	d805      	bhi.n	401b60 <pio_set_peripheral+0x30>
  401b54:	f1b1 5f00 	cmp.w	r1, #536870912	; 0x20000000
  401b58:	d126      	bne.n	401ba8 <pio_set_peripheral+0x78>
  401b5a:	6f03      	ldr	r3, [r0, #112]	; 0x70
  401b5c:	4313      	orrs	r3, r2
  401b5e:	e01f      	b.n	401ba0 <pio_set_peripheral+0x70>
  401b60:	f1b1 5f40 	cmp.w	r1, #805306368	; 0x30000000
  401b64:	d021      	beq.n	401baa <pio_set_peripheral+0x7a>
  401b66:	f1b1 5f60 	cmp.w	r1, #939524096	; 0x38000000
  401b6a:	d01e      	beq.n	401baa <pio_set_peripheral+0x7a>
  401b6c:	e01c      	b.n	401ba8 <pio_set_peripheral+0x78>
  401b6e:	6f01      	ldr	r1, [r0, #112]	; 0x70
  401b70:	6f04      	ldr	r4, [r0, #112]	; 0x70
  401b72:	43d3      	mvns	r3, r2
  401b74:	4021      	ands	r1, r4
  401b76:	4019      	ands	r1, r3
  401b78:	6701      	str	r1, [r0, #112]	; 0x70
  401b7a:	6f41      	ldr	r1, [r0, #116]	; 0x74
  401b7c:	6f44      	ldr	r4, [r0, #116]	; 0x74
  401b7e:	4021      	ands	r1, r4
  401b80:	400b      	ands	r3, r1
  401b82:	e010      	b.n	401ba6 <pio_set_peripheral+0x76>
  401b84:	6f03      	ldr	r3, [r0, #112]	; 0x70
  401b86:	4313      	orrs	r3, r2
  401b88:	6703      	str	r3, [r0, #112]	; 0x70
  401b8a:	6f43      	ldr	r3, [r0, #116]	; 0x74
  401b8c:	6f41      	ldr	r1, [r0, #116]	; 0x74
  401b8e:	400b      	ands	r3, r1
  401b90:	ea23 0302 	bic.w	r3, r3, r2
  401b94:	e007      	b.n	401ba6 <pio_set_peripheral+0x76>
  401b96:	6f03      	ldr	r3, [r0, #112]	; 0x70
  401b98:	6f01      	ldr	r1, [r0, #112]	; 0x70
  401b9a:	400b      	ands	r3, r1
  401b9c:	ea23 0302 	bic.w	r3, r3, r2
  401ba0:	6703      	str	r3, [r0, #112]	; 0x70
  401ba2:	6f43      	ldr	r3, [r0, #116]	; 0x74
  401ba4:	4313      	orrs	r3, r2
  401ba6:	6743      	str	r3, [r0, #116]	; 0x74
  401ba8:	6042      	str	r2, [r0, #4]
  401baa:	bd10      	pop	{r4, pc}

00401bac <pio_set_input>:
  401bac:	07d3      	lsls	r3, r2, #31
  401bae:	6441      	str	r1, [r0, #68]	; 0x44
  401bb0:	bf4c      	ite	mi
  401bb2:	6641      	strmi	r1, [r0, #100]	; 0x64
  401bb4:	6601      	strpl	r1, [r0, #96]	; 0x60
  401bb6:	f012 0f0a 	tst.w	r2, #10
  401bba:	bf14      	ite	ne
  401bbc:	6201      	strne	r1, [r0, #32]
  401bbe:	6241      	streq	r1, [r0, #36]	; 0x24
  401bc0:	0793      	lsls	r3, r2, #30
  401bc2:	d502      	bpl.n	401bca <pio_set_input+0x1e>
  401bc4:	f8c0 1080 	str.w	r1, [r0, #128]	; 0x80
  401bc8:	e003      	b.n	401bd2 <pio_set_input+0x26>
  401bca:	0713      	lsls	r3, r2, #28
  401bcc:	bf48      	it	mi
  401bce:	f8c0 1084 	strmi.w	r1, [r0, #132]	; 0x84
  401bd2:	6141      	str	r1, [r0, #20]
  401bd4:	6001      	str	r1, [r0, #0]
  401bd6:	4770      	bx	lr

00401bd8 <pio_set_output>:
  401bd8:	b510      	push	{r4, lr}
  401bda:	9c02      	ldr	r4, [sp, #8]
  401bdc:	6441      	str	r1, [r0, #68]	; 0x44
  401bde:	b10c      	cbz	r4, 401be4 <pio_set_output+0xc>
  401be0:	6641      	str	r1, [r0, #100]	; 0x64
  401be2:	e000      	b.n	401be6 <pio_set_output+0xe>
  401be4:	6601      	str	r1, [r0, #96]	; 0x60
  401be6:	b10b      	cbz	r3, 401bec <pio_set_output+0x14>
  401be8:	6501      	str	r1, [r0, #80]	; 0x50
  401bea:	e000      	b.n	401bee <pio_set_output+0x16>
  401bec:	6541      	str	r1, [r0, #84]	; 0x54
  401bee:	b10a      	cbz	r2, 401bf4 <pio_set_output+0x1c>
  401bf0:	6301      	str	r1, [r0, #48]	; 0x30
  401bf2:	e000      	b.n	401bf6 <pio_set_output+0x1e>
  401bf4:	6341      	str	r1, [r0, #52]	; 0x34
  401bf6:	6101      	str	r1, [r0, #16]
  401bf8:	6001      	str	r1, [r0, #0]
  401bfa:	bd10      	pop	{r4, pc}

00401bfc <pio_pull_down>:
  401bfc:	b112      	cbz	r2, 401c04 <pio_pull_down+0x8>
  401bfe:	f8c0 1094 	str.w	r1, [r0, #148]	; 0x94
  401c02:	4770      	bx	lr
  401c04:	f8c0 1090 	str.w	r1, [r0, #144]	; 0x90
  401c08:	4770      	bx	lr

00401c0a <pio_configure_interrupt>:
  401c0a:	06d3      	lsls	r3, r2, #27
  401c0c:	d50e      	bpl.n	401c2c <pio_configure_interrupt+0x22>
  401c0e:	0693      	lsls	r3, r2, #26
  401c10:	f8c0 10b0 	str.w	r1, [r0, #176]	; 0xb0
  401c14:	bf4c      	ite	mi
  401c16:	f8c0 10d4 	strmi.w	r1, [r0, #212]	; 0xd4
  401c1a:	f8c0 10d0 	strpl.w	r1, [r0, #208]	; 0xd0
  401c1e:	0653      	lsls	r3, r2, #25
  401c20:	bf4c      	ite	mi
  401c22:	f8c0 10c0 	strmi.w	r1, [r0, #192]	; 0xc0
  401c26:	f8c0 10c4 	strpl.w	r1, [r0, #196]	; 0xc4
  401c2a:	4770      	bx	lr
  401c2c:	f8c0 10b4 	str.w	r1, [r0, #180]	; 0xb4
  401c30:	4770      	bx	lr

00401c32 <pio_enable_interrupt>:
  401c32:	6cc3      	ldr	r3, [r0, #76]	; 0x4c
  401c34:	6401      	str	r1, [r0, #64]	; 0x40
  401c36:	4770      	bx	lr

00401c38 <pio_get_interrupt_status>:
  401c38:	6cc0      	ldr	r0, [r0, #76]	; 0x4c
  401c3a:	4770      	bx	lr

00401c3c <pio_get_interrupt_mask>:
  401c3c:	6c80      	ldr	r0, [r0, #72]	; 0x48
  401c3e:	4770      	bx	lr

00401c40 <pio_set_pin_high>:
  401c40:	0943      	lsrs	r3, r0, #5
  401c42:	2201      	movs	r2, #1
  401c44:	f000 001f 	and.w	r0, r0, #31
  401c48:	fa02 f000 	lsl.w	r0, r2, r0
  401c4c:	f503 1300 	add.w	r3, r3, #2097152	; 0x200000
  401c50:	f203 7307 	addw	r3, r3, #1799	; 0x707
  401c54:	025b      	lsls	r3, r3, #9
  401c56:	6318      	str	r0, [r3, #48]	; 0x30
  401c58:	4770      	bx	lr

00401c5a <pio_set_pin_low>:
  401c5a:	0943      	lsrs	r3, r0, #5
  401c5c:	2201      	movs	r2, #1
  401c5e:	f000 001f 	and.w	r0, r0, #31
  401c62:	fa02 f000 	lsl.w	r0, r2, r0
  401c66:	f503 1300 	add.w	r3, r3, #2097152	; 0x200000
  401c6a:	f203 7307 	addw	r3, r3, #1799	; 0x707
  401c6e:	025b      	lsls	r3, r3, #9
  401c70:	6358      	str	r0, [r3, #52]	; 0x34
  401c72:	4770      	bx	lr

00401c74 <pio_toggle_pin>:
  401c74:	0943      	lsrs	r3, r0, #5
  401c76:	2101      	movs	r1, #1
  401c78:	f000 001f 	and.w	r0, r0, #31
  401c7c:	fa01 f000 	lsl.w	r0, r1, r0
  401c80:	f503 1300 	add.w	r3, r3, #2097152	; 0x200000
  401c84:	f203 7307 	addw	r3, r3, #1799	; 0x707
  401c88:	025b      	lsls	r3, r3, #9
  401c8a:	6b9a      	ldr	r2, [r3, #56]	; 0x38
  401c8c:	4210      	tst	r0, r2
  401c8e:	bf14      	ite	ne
  401c90:	6358      	strne	r0, [r3, #52]	; 0x34
  401c92:	6318      	streq	r0, [r3, #48]	; 0x30
  401c94:	4770      	bx	lr
	...

00401c98 <pio_configure_pin>:
  401c98:	b5f7      	push	{r0, r1, r2, r4, r5, r6, r7, lr}
  401c9a:	0944      	lsrs	r4, r0, #5
  401c9c:	460d      	mov	r5, r1
  401c9e:	f504 1400 	add.w	r4, r4, #2097152	; 0x200000
  401ca2:	f001 41f0 	and.w	r1, r1, #2013265920	; 0x78000000
  401ca6:	f204 7407 	addw	r4, r4, #1799	; 0x707
  401caa:	f1b1 5f00 	cmp.w	r1, #536870912	; 0x20000000
  401cae:	ea4f 2444 	mov.w	r4, r4, lsl #9
  401cb2:	d01e      	beq.n	401cf2 <pio_configure_pin+0x5a>
  401cb4:	d809      	bhi.n	401cca <pio_configure_pin+0x32>
  401cb6:	f1b1 5f80 	cmp.w	r1, #268435456	; 0x10000000
  401cba:	d01a      	beq.n	401cf2 <pio_configure_pin+0x5a>
  401cbc:	f1b1 5fc0 	cmp.w	r1, #402653184	; 0x18000000
  401cc0:	d017      	beq.n	401cf2 <pio_configure_pin+0x5a>
  401cc2:	f1b1 6f00 	cmp.w	r1, #134217728	; 0x8000000
  401cc6:	d137      	bne.n	401d38 <pio_configure_pin+0xa0>
  401cc8:	e013      	b.n	401cf2 <pio_configure_pin+0x5a>
  401cca:	f1b1 5f40 	cmp.w	r1, #805306368	; 0x30000000
  401cce:	d01f      	beq.n	401d10 <pio_configure_pin+0x78>
  401cd0:	f1b1 5f60 	cmp.w	r1, #939524096	; 0x38000000
  401cd4:	d01c      	beq.n	401d10 <pio_configure_pin+0x78>
  401cd6:	f1b1 5f20 	cmp.w	r1, #671088640	; 0x28000000
  401cda:	d12d      	bne.n	401d38 <pio_configure_pin+0xa0>
  401cdc:	f000 011f 	and.w	r1, r0, #31
  401ce0:	2601      	movs	r6, #1
  401ce2:	4620      	mov	r0, r4
  401ce4:	fa06 f101 	lsl.w	r1, r6, r1
  401ce8:	462a      	mov	r2, r5
  401cea:	4b15      	ldr	r3, [pc, #84]	; (401d40 <pio_configure_pin+0xa8>)
  401cec:	4798      	blx	r3
  401cee:	4630      	mov	r0, r6
  401cf0:	e023      	b.n	401d3a <pio_configure_pin+0xa2>
  401cf2:	f000 001f 	and.w	r0, r0, #31
  401cf6:	2601      	movs	r6, #1
  401cf8:	fa06 f700 	lsl.w	r7, r6, r0
  401cfc:	4b11      	ldr	r3, [pc, #68]	; (401d44 <pio_configure_pin+0xac>)
  401cfe:	463a      	mov	r2, r7
  401d00:	4620      	mov	r0, r4
  401d02:	4798      	blx	r3
  401d04:	07ea      	lsls	r2, r5, #31
  401d06:	d401      	bmi.n	401d0c <pio_configure_pin+0x74>
  401d08:	6627      	str	r7, [r4, #96]	; 0x60
  401d0a:	e7f0      	b.n	401cee <pio_configure_pin+0x56>
  401d0c:	6667      	str	r7, [r4, #100]	; 0x64
  401d0e:	e7ee      	b.n	401cee <pio_configure_pin+0x56>
  401d10:	2601      	movs	r6, #1
  401d12:	f005 5260 	and.w	r2, r5, #939524096	; 0x38000000
  401d16:	ea05 0306 	and.w	r3, r5, r6
  401d1a:	9300      	str	r3, [sp, #0]
  401d1c:	f1b2 5360 	subs.w	r3, r2, #939524096	; 0x38000000
  401d20:	425a      	negs	r2, r3
  401d22:	f000 011f 	and.w	r1, r0, #31
  401d26:	415a      	adcs	r2, r3
  401d28:	4620      	mov	r0, r4
  401d2a:	fa06 f101 	lsl.w	r1, r6, r1
  401d2e:	f3c5 0380 	ubfx	r3, r5, #2, #1
  401d32:	4c05      	ldr	r4, [pc, #20]	; (401d48 <pio_configure_pin+0xb0>)
  401d34:	47a0      	blx	r4
  401d36:	e7da      	b.n	401cee <pio_configure_pin+0x56>
  401d38:	2000      	movs	r0, #0
  401d3a:	b003      	add	sp, #12
  401d3c:	bdf0      	pop	{r4, r5, r6, r7, pc}
  401d3e:	bf00      	nop
  401d40:	00401bad 	.word	0x00401bad
  401d44:	00401b31 	.word	0x00401b31
  401d48:	00401bd9 	.word	0x00401bd9

00401d4c <pio_configure_pin_group>:
  401d4c:	b5f7      	push	{r0, r1, r2, r4, r5, r6, r7, lr}
  401d4e:	f002 45f0 	and.w	r5, r2, #2013265920	; 0x78000000
  401d52:	f1b5 5f00 	cmp.w	r5, #536870912	; 0x20000000
  401d56:	4606      	mov	r6, r0
  401d58:	460c      	mov	r4, r1
  401d5a:	4617      	mov	r7, r2
  401d5c:	d017      	beq.n	401d8e <pio_configure_pin_group+0x42>
  401d5e:	d809      	bhi.n	401d74 <pio_configure_pin_group+0x28>
  401d60:	f1b5 5f80 	cmp.w	r5, #268435456	; 0x10000000
  401d64:	d013      	beq.n	401d8e <pio_configure_pin_group+0x42>
  401d66:	f1b5 5fc0 	cmp.w	r5, #402653184	; 0x18000000
  401d6a:	d010      	beq.n	401d8e <pio_configure_pin_group+0x42>
  401d6c:	f1b5 6f00 	cmp.w	r5, #134217728	; 0x8000000
  401d70:	d127      	bne.n	401dc2 <pio_configure_pin_group+0x76>
  401d72:	e00c      	b.n	401d8e <pio_configure_pin_group+0x42>
  401d74:	f1b5 5f40 	cmp.w	r5, #805306368	; 0x30000000
  401d78:	d013      	beq.n	401da2 <pio_configure_pin_group+0x56>
  401d7a:	f1b5 5f60 	cmp.w	r5, #939524096	; 0x38000000
  401d7e:	d010      	beq.n	401da2 <pio_configure_pin_group+0x56>
  401d80:	f1b5 5f20 	cmp.w	r5, #671088640	; 0x28000000
  401d84:	d11d      	bne.n	401dc2 <pio_configure_pin_group+0x76>
  401d86:	4b10      	ldr	r3, [pc, #64]	; (401dc8 <pio_configure_pin_group+0x7c>)
  401d88:	4798      	blx	r3
  401d8a:	2001      	movs	r0, #1
  401d8c:	e01a      	b.n	401dc4 <pio_configure_pin_group+0x78>
  401d8e:	4622      	mov	r2, r4
  401d90:	4629      	mov	r1, r5
  401d92:	4b0e      	ldr	r3, [pc, #56]	; (401dcc <pio_configure_pin_group+0x80>)
  401d94:	4798      	blx	r3
  401d96:	07fa      	lsls	r2, r7, #31
  401d98:	d401      	bmi.n	401d9e <pio_configure_pin_group+0x52>
  401d9a:	6634      	str	r4, [r6, #96]	; 0x60
  401d9c:	e7f5      	b.n	401d8a <pio_configure_pin_group+0x3e>
  401d9e:	6674      	str	r4, [r6, #100]	; 0x64
  401da0:	e7f3      	b.n	401d8a <pio_configure_pin_group+0x3e>
  401da2:	f007 5260 	and.w	r2, r7, #939524096	; 0x38000000
  401da6:	f007 0301 	and.w	r3, r7, #1
  401daa:	9300      	str	r3, [sp, #0]
  401dac:	f1b2 5360 	subs.w	r3, r2, #939524096	; 0x38000000
  401db0:	425a      	negs	r2, r3
  401db2:	4621      	mov	r1, r4
  401db4:	415a      	adcs	r2, r3
  401db6:	4630      	mov	r0, r6
  401db8:	f3c7 0380 	ubfx	r3, r7, #2, #1
  401dbc:	4c04      	ldr	r4, [pc, #16]	; (401dd0 <pio_configure_pin_group+0x84>)
  401dbe:	47a0      	blx	r4
  401dc0:	e7e3      	b.n	401d8a <pio_configure_pin_group+0x3e>
  401dc2:	2000      	movs	r0, #0
  401dc4:	b003      	add	sp, #12
  401dc6:	bdf0      	pop	{r4, r5, r6, r7, pc}
  401dc8:	00401bad 	.word	0x00401bad
  401dcc:	00401b31 	.word	0x00401b31
  401dd0:	00401bd9 	.word	0x00401bd9

00401dd4 <pio_handler_process>:
  401dd4:	b5f8      	push	{r3, r4, r5, r6, r7, lr}
  401dd6:	4b11      	ldr	r3, [pc, #68]	; (401e1c <pio_handler_process+0x48>)
  401dd8:	4604      	mov	r4, r0
  401dda:	460e      	mov	r6, r1
  401ddc:	4798      	blx	r3
  401dde:	4b10      	ldr	r3, [pc, #64]	; (401e20 <pio_handler_process+0x4c>)
  401de0:	4605      	mov	r5, r0
  401de2:	4620      	mov	r0, r4
  401de4:	4798      	blx	r3
  401de6:	4005      	ands	r5, r0
  401de8:	d016      	beq.n	401e18 <pio_handler_process+0x44>
  401dea:	4c0e      	ldr	r4, [pc, #56]	; (401e24 <pio_handler_process+0x50>)
  401dec:	f104 0760 	add.w	r7, r4, #96	; 0x60
  401df0:	f854 3c0c 	ldr.w	r3, [r4, #-12]
  401df4:	42b3      	cmp	r3, r6
  401df6:	d10a      	bne.n	401e0e <pio_handler_process+0x3a>
  401df8:	f854 1c08 	ldr.w	r1, [r4, #-8]
  401dfc:	4229      	tst	r1, r5
  401dfe:	d006      	beq.n	401e0e <pio_handler_process+0x3a>
  401e00:	6823      	ldr	r3, [r4, #0]
  401e02:	4630      	mov	r0, r6
  401e04:	4798      	blx	r3
  401e06:	f854 3c08 	ldr.w	r3, [r4, #-8]
  401e0a:	ea25 0503 	bic.w	r5, r5, r3
  401e0e:	42bc      	cmp	r4, r7
  401e10:	d002      	beq.n	401e18 <pio_handler_process+0x44>
  401e12:	3410      	adds	r4, #16
  401e14:	2d00      	cmp	r5, #0
  401e16:	d1eb      	bne.n	401df0 <pio_handler_process+0x1c>
  401e18:	bdf8      	pop	{r3, r4, r5, r6, r7, pc}
  401e1a:	bf00      	nop
  401e1c:	00401c39 	.word	0x00401c39
  401e20:	00401c3d 	.word	0x00401c3d
  401e24:	20000b4c 	.word	0x20000b4c

00401e28 <pio_handler_set>:
  401e28:	b5f8      	push	{r3, r4, r5, r6, r7, lr}
  401e2a:	4e0c      	ldr	r6, [pc, #48]	; (401e5c <pio_handler_set+0x34>)
  401e2c:	6834      	ldr	r4, [r6, #0]
  401e2e:	2c06      	cmp	r4, #6
  401e30:	d812      	bhi.n	401e58 <pio_handler_set+0x30>
  401e32:	f8df e030 	ldr.w	lr, [pc, #48]	; 401e64 <pio_handler_set+0x3c>
  401e36:	0127      	lsls	r7, r4, #4
  401e38:	f84e 1007 	str.w	r1, [lr, r7]
  401e3c:	9906      	ldr	r1, [sp, #24]
  401e3e:	eb0e 0507 	add.w	r5, lr, r7
  401e42:	606a      	str	r2, [r5, #4]
  401e44:	60ab      	str	r3, [r5, #8]
  401e46:	60e9      	str	r1, [r5, #12]
  401e48:	3401      	adds	r4, #1
  401e4a:	4611      	mov	r1, r2
  401e4c:	461a      	mov	r2, r3
  401e4e:	4b04      	ldr	r3, [pc, #16]	; (401e60 <pio_handler_set+0x38>)
  401e50:	6034      	str	r4, [r6, #0]
  401e52:	4798      	blx	r3
  401e54:	2000      	movs	r0, #0
  401e56:	bdf8      	pop	{r3, r4, r5, r6, r7, pc}
  401e58:	2001      	movs	r0, #1
  401e5a:	bdf8      	pop	{r3, r4, r5, r6, r7, pc}
  401e5c:	20000b3c 	.word	0x20000b3c
  401e60:	00401c0b 	.word	0x00401c0b
  401e64:	20000b40 	.word	0x20000b40

00401e68 <PIOA_Handler>:
  401e68:	b508      	push	{r3, lr}
  401e6a:	4802      	ldr	r0, [pc, #8]	; (401e74 <PIOA_Handler+0xc>)
  401e6c:	210b      	movs	r1, #11
  401e6e:	4b02      	ldr	r3, [pc, #8]	; (401e78 <PIOA_Handler+0x10>)
  401e70:	4798      	blx	r3
  401e72:	bd08      	pop	{r3, pc}
  401e74:	400e0e00 	.word	0x400e0e00
  401e78:	00401dd5 	.word	0x00401dd5

00401e7c <PIOB_Handler>:
  401e7c:	b508      	push	{r3, lr}
  401e7e:	4802      	ldr	r0, [pc, #8]	; (401e88 <PIOB_Handler+0xc>)
  401e80:	210c      	movs	r1, #12
  401e82:	4b02      	ldr	r3, [pc, #8]	; (401e8c <PIOB_Handler+0x10>)
  401e84:	4798      	blx	r3
  401e86:	bd08      	pop	{r3, pc}
  401e88:	400e1000 	.word	0x400e1000
  401e8c:	00401dd5 	.word	0x00401dd5

00401e90 <PIOC_Handler>:
  401e90:	b508      	push	{r3, lr}
  401e92:	4802      	ldr	r0, [pc, #8]	; (401e9c <PIOC_Handler+0xc>)
  401e94:	210d      	movs	r1, #13
  401e96:	4b02      	ldr	r3, [pc, #8]	; (401ea0 <PIOC_Handler+0x10>)
  401e98:	4798      	blx	r3
  401e9a:	bd08      	pop	{r3, pc}
  401e9c:	400e1200 	.word	0x400e1200
  401ea0:	00401dd5 	.word	0x00401dd5

00401ea4 <pmc_switch_mck_to_pllack>:
  401ea4:	4b0f      	ldr	r3, [pc, #60]	; (401ee4 <pmc_switch_mck_to_pllack+0x40>)
  401ea6:	6b1a      	ldr	r2, [r3, #48]	; 0x30
  401ea8:	f022 0270 	bic.w	r2, r2, #112	; 0x70
  401eac:	4310      	orrs	r0, r2
  401eae:	6318      	str	r0, [r3, #48]	; 0x30
  401eb0:	f640 0201 	movw	r2, #2049	; 0x801
  401eb4:	6e98      	ldr	r0, [r3, #104]	; 0x68
  401eb6:	490b      	ldr	r1, [pc, #44]	; (401ee4 <pmc_switch_mck_to_pllack+0x40>)
  401eb8:	0700      	lsls	r0, r0, #28
  401eba:	d403      	bmi.n	401ec4 <pmc_switch_mck_to_pllack+0x20>
  401ebc:	3a01      	subs	r2, #1
  401ebe:	d1f9      	bne.n	401eb4 <pmc_switch_mck_to_pllack+0x10>
  401ec0:	2001      	movs	r0, #1
  401ec2:	4770      	bx	lr
  401ec4:	6b0a      	ldr	r2, [r1, #48]	; 0x30
  401ec6:	f022 0203 	bic.w	r2, r2, #3
  401eca:	f042 0202 	orr.w	r2, r2, #2
  401ece:	630a      	str	r2, [r1, #48]	; 0x30
  401ed0:	f640 0201 	movw	r2, #2049	; 0x801
  401ed4:	6e99      	ldr	r1, [r3, #104]	; 0x68
  401ed6:	0709      	lsls	r1, r1, #28
  401ed8:	d402      	bmi.n	401ee0 <pmc_switch_mck_to_pllack+0x3c>
  401eda:	3a01      	subs	r2, #1
  401edc:	d1fa      	bne.n	401ed4 <pmc_switch_mck_to_pllack+0x30>
  401ede:	e7ef      	b.n	401ec0 <pmc_switch_mck_to_pllack+0x1c>
  401ee0:	2000      	movs	r0, #0
  401ee2:	4770      	bx	lr
  401ee4:	400e0400 	.word	0x400e0400

00401ee8 <pmc_switch_mainck_to_xtal>:
  401ee8:	4b0f      	ldr	r3, [pc, #60]	; (401f28 <pmc_switch_mainck_to_xtal+0x40>)
  401eea:	6a1a      	ldr	r2, [r3, #32]
  401eec:	b128      	cbz	r0, 401efa <pmc_switch_mainck_to_xtal+0x12>
  401eee:	490f      	ldr	r1, [pc, #60]	; (401f2c <pmc_switch_mainck_to_xtal+0x44>)
  401ef0:	4011      	ands	r1, r2
  401ef2:	4a0f      	ldr	r2, [pc, #60]	; (401f30 <pmc_switch_mainck_to_xtal+0x48>)
  401ef4:	430a      	orrs	r2, r1
  401ef6:	621a      	str	r2, [r3, #32]
  401ef8:	4770      	bx	lr
  401efa:	f422 125c 	bic.w	r2, r2, #3604480	; 0x370000
  401efe:	f022 0203 	bic.w	r2, r2, #3
  401f02:	f442 125c 	orr.w	r2, r2, #3604480	; 0x370000
  401f06:	0209      	lsls	r1, r1, #8
  401f08:	f042 0201 	orr.w	r2, r2, #1
  401f0c:	b289      	uxth	r1, r1
  401f0e:	430a      	orrs	r2, r1
  401f10:	621a      	str	r2, [r3, #32]
  401f12:	6e99      	ldr	r1, [r3, #104]	; 0x68
  401f14:	4a04      	ldr	r2, [pc, #16]	; (401f28 <pmc_switch_mainck_to_xtal+0x40>)
  401f16:	07c9      	lsls	r1, r1, #31
  401f18:	d5fb      	bpl.n	401f12 <pmc_switch_mainck_to_xtal+0x2a>
  401f1a:	6a13      	ldr	r3, [r2, #32]
  401f1c:	f043 739b 	orr.w	r3, r3, #20316160	; 0x1360000
  401f20:	f443 3380 	orr.w	r3, r3, #65536	; 0x10000
  401f24:	6213      	str	r3, [r2, #32]
  401f26:	4770      	bx	lr
  401f28:	400e0400 	.word	0x400e0400
  401f2c:	fec8fffc 	.word	0xfec8fffc
  401f30:	01370002 	.word	0x01370002

00401f34 <pmc_osc_is_ready_mainck>:
  401f34:	4b02      	ldr	r3, [pc, #8]	; (401f40 <pmc_osc_is_ready_mainck+0xc>)
  401f36:	6e98      	ldr	r0, [r3, #104]	; 0x68
  401f38:	f400 3080 	and.w	r0, r0, #65536	; 0x10000
  401f3c:	4770      	bx	lr
  401f3e:	bf00      	nop
  401f40:	400e0400 	.word	0x400e0400

00401f44 <pmc_disable_pllack>:
  401f44:	4b02      	ldr	r3, [pc, #8]	; (401f50 <pmc_disable_pllack+0xc>)
  401f46:	f04f 5200 	mov.w	r2, #536870912	; 0x20000000
  401f4a:	629a      	str	r2, [r3, #40]	; 0x28
  401f4c:	4770      	bx	lr
  401f4e:	bf00      	nop
  401f50:	400e0400 	.word	0x400e0400

00401f54 <pmc_is_locked_pllack>:
  401f54:	4b02      	ldr	r3, [pc, #8]	; (401f60 <pmc_is_locked_pllack+0xc>)
  401f56:	6e98      	ldr	r0, [r3, #104]	; 0x68
  401f58:	f000 0002 	and.w	r0, r0, #2
  401f5c:	4770      	bx	lr
  401f5e:	bf00      	nop
  401f60:	400e0400 	.word	0x400e0400

00401f64 <pmc_enable_periph_clk>:
  401f64:	281f      	cmp	r0, #31
  401f66:	f04f 0301 	mov.w	r3, #1
  401f6a:	d809      	bhi.n	401f80 <pmc_enable_periph_clk+0x1c>
  401f6c:	fa03 f000 	lsl.w	r0, r3, r0
  401f70:	4a05      	ldr	r2, [pc, #20]	; (401f88 <pmc_enable_periph_clk+0x24>)
  401f72:	6991      	ldr	r1, [r2, #24]
  401f74:	ea00 0301 	and.w	r3, r0, r1
  401f78:	4283      	cmp	r3, r0
  401f7a:	d003      	beq.n	401f84 <pmc_enable_periph_clk+0x20>
  401f7c:	6110      	str	r0, [r2, #16]
  401f7e:	e001      	b.n	401f84 <pmc_enable_periph_clk+0x20>
  401f80:	4618      	mov	r0, r3
  401f82:	4770      	bx	lr
  401f84:	2000      	movs	r0, #0
  401f86:	4770      	bx	lr
  401f88:	400e0400 	.word	0x400e0400

00401f8c <spi_enable_clock>:
  401f8c:	b508      	push	{r3, lr}
  401f8e:	2015      	movs	r0, #21
  401f90:	4b01      	ldr	r3, [pc, #4]	; (401f98 <spi_enable_clock+0xc>)
  401f92:	4798      	blx	r3
  401f94:	bd08      	pop	{r3, pc}
  401f96:	bf00      	nop
  401f98:	00401f65 	.word	0x00401f65

00401f9c <spi_set_peripheral_chip_select_value>:
  401f9c:	6843      	ldr	r3, [r0, #4]
  401f9e:	0409      	lsls	r1, r1, #16
  401fa0:	f423 2370 	bic.w	r3, r3, #983040	; 0xf0000
  401fa4:	6043      	str	r3, [r0, #4]
  401fa6:	6843      	ldr	r3, [r0, #4]
  401fa8:	f401 2170 	and.w	r1, r1, #983040	; 0xf0000
  401fac:	430b      	orrs	r3, r1
  401fae:	6043      	str	r3, [r0, #4]
  401fb0:	4770      	bx	lr

00401fb2 <spi_set_delay_between_chip_select>:
  401fb2:	6843      	ldr	r3, [r0, #4]
  401fb4:	f023 437f 	bic.w	r3, r3, #4278190080	; 0xff000000
  401fb8:	6043      	str	r3, [r0, #4]
  401fba:	6843      	ldr	r3, [r0, #4]
  401fbc:	ea43 6101 	orr.w	r1, r3, r1, lsl #24
  401fc0:	6041      	str	r1, [r0, #4]
  401fc2:	4770      	bx	lr

00401fc4 <spi_write>:
  401fc4:	b530      	push	{r4, r5, lr}
  401fc6:	f643 2499 	movw	r4, #15001	; 0x3a99
  401fca:	6905      	ldr	r5, [r0, #16]
  401fcc:	07ad      	lsls	r5, r5, #30
  401fce:	d403      	bmi.n	401fd8 <spi_write+0x14>
  401fd0:	3c01      	subs	r4, #1
  401fd2:	d1fa      	bne.n	401fca <spi_write+0x6>
  401fd4:	2001      	movs	r0, #1
  401fd6:	e00b      	b.n	401ff0 <spi_write+0x2c>
  401fd8:	6844      	ldr	r4, [r0, #4]
  401fda:	07a4      	lsls	r4, r4, #30
  401fdc:	d506      	bpl.n	401fec <spi_write+0x28>
  401fde:	0412      	lsls	r2, r2, #16
  401fe0:	f402 2270 	and.w	r2, r2, #983040	; 0xf0000
  401fe4:	4311      	orrs	r1, r2
  401fe6:	b10b      	cbz	r3, 401fec <spi_write+0x28>
  401fe8:	f041 7180 	orr.w	r1, r1, #16777216	; 0x1000000
  401fec:	60c1      	str	r1, [r0, #12]
  401fee:	2000      	movs	r0, #0
  401ff0:	b240      	sxtb	r0, r0
  401ff2:	bd30      	pop	{r4, r5, pc}

00401ff4 <spi_set_clock_polarity>:
  401ff4:	0089      	lsls	r1, r1, #2
  401ff6:	4408      	add	r0, r1
  401ff8:	6b03      	ldr	r3, [r0, #48]	; 0x30
  401ffa:	b112      	cbz	r2, 402002 <spi_set_clock_polarity+0xe>
  401ffc:	f043 0301 	orr.w	r3, r3, #1
  402000:	e001      	b.n	402006 <spi_set_clock_polarity+0x12>
  402002:	f023 0301 	bic.w	r3, r3, #1
  402006:	6303      	str	r3, [r0, #48]	; 0x30
  402008:	4770      	bx	lr

0040200a <spi_set_clock_phase>:
  40200a:	0089      	lsls	r1, r1, #2
  40200c:	4408      	add	r0, r1
  40200e:	6b03      	ldr	r3, [r0, #48]	; 0x30
  402010:	b112      	cbz	r2, 402018 <spi_set_clock_phase+0xe>
  402012:	f043 0302 	orr.w	r3, r3, #2
  402016:	e001      	b.n	40201c <spi_set_clock_phase+0x12>
  402018:	f023 0302 	bic.w	r3, r3, #2
  40201c:	6303      	str	r3, [r0, #48]	; 0x30
  40201e:	4770      	bx	lr

00402020 <spi_configure_cs_behavior>:
  402020:	2a04      	cmp	r2, #4
  402022:	d109      	bne.n	402038 <spi_configure_cs_behavior+0x18>
  402024:	eb00 0181 	add.w	r1, r0, r1, lsl #2
  402028:	6b0b      	ldr	r3, [r1, #48]	; 0x30
  40202a:	f023 0308 	bic.w	r3, r3, #8
  40202e:	630b      	str	r3, [r1, #48]	; 0x30
  402030:	6b0b      	ldr	r3, [r1, #48]	; 0x30
  402032:	f043 0304 	orr.w	r3, r3, #4
  402036:	e011      	b.n	40205c <spi_configure_cs_behavior+0x3c>
  402038:	b94a      	cbnz	r2, 40204e <spi_configure_cs_behavior+0x2e>
  40203a:	eb00 0181 	add.w	r1, r0, r1, lsl #2
  40203e:	6b0b      	ldr	r3, [r1, #48]	; 0x30
  402040:	f023 0308 	bic.w	r3, r3, #8
  402044:	630b      	str	r3, [r1, #48]	; 0x30
  402046:	6b0b      	ldr	r3, [r1, #48]	; 0x30
  402048:	f023 0304 	bic.w	r3, r3, #4
  40204c:	e006      	b.n	40205c <spi_configure_cs_behavior+0x3c>
  40204e:	2a08      	cmp	r2, #8
  402050:	d105      	bne.n	40205e <spi_configure_cs_behavior+0x3e>
  402052:	eb00 0181 	add.w	r1, r0, r1, lsl #2
  402056:	6b0b      	ldr	r3, [r1, #48]	; 0x30
  402058:	f043 0308 	orr.w	r3, r3, #8
  40205c:	630b      	str	r3, [r1, #48]	; 0x30
  40205e:	4770      	bx	lr

00402060 <spi_set_bits_per_transfer>:
  402060:	eb00 0181 	add.w	r1, r0, r1, lsl #2
  402064:	6b0b      	ldr	r3, [r1, #48]	; 0x30
  402066:	f023 03f0 	bic.w	r3, r3, #240	; 0xf0
  40206a:	630b      	str	r3, [r1, #48]	; 0x30
  40206c:	6b0b      	ldr	r3, [r1, #48]	; 0x30
  40206e:	431a      	orrs	r2, r3
  402070:	630a      	str	r2, [r1, #48]	; 0x30
  402072:	4770      	bx	lr

00402074 <spi_calc_baudrate_div>:
  402074:	1e43      	subs	r3, r0, #1
  402076:	4419      	add	r1, r3
  402078:	fbb1 f0f0 	udiv	r0, r1, r0
  40207c:	1e43      	subs	r3, r0, #1
  40207e:	2bfe      	cmp	r3, #254	; 0xfe
  402080:	bf94      	ite	ls
  402082:	b280      	uxthls	r0, r0
  402084:	f64f 70ff 	movwhi	r0, #65535	; 0xffff
  402088:	b200      	sxth	r0, r0
  40208a:	4770      	bx	lr

0040208c <spi_set_baudrate_div>:
  40208c:	eb00 0181 	add.w	r1, r0, r1, lsl #2
  402090:	6b0b      	ldr	r3, [r1, #48]	; 0x30
  402092:	f423 437f 	bic.w	r3, r3, #65280	; 0xff00
  402096:	630b      	str	r3, [r1, #48]	; 0x30
  402098:	6b0b      	ldr	r3, [r1, #48]	; 0x30
  40209a:	ea43 2202 	orr.w	r2, r3, r2, lsl #8
  40209e:	630a      	str	r2, [r1, #48]	; 0x30
  4020a0:	4770      	bx	lr

004020a2 <spi_set_transfer_delay>:
  4020a2:	eb00 0181 	add.w	r1, r0, r1, lsl #2
  4020a6:	6b08      	ldr	r0, [r1, #48]	; 0x30
  4020a8:	b280      	uxth	r0, r0
  4020aa:	6308      	str	r0, [r1, #48]	; 0x30
  4020ac:	6b08      	ldr	r0, [r1, #48]	; 0x30
  4020ae:	ea40 6303 	orr.w	r3, r0, r3, lsl #24
  4020b2:	ea43 4202 	orr.w	r2, r3, r2, lsl #16
  4020b6:	630a      	str	r2, [r1, #48]	; 0x30
  4020b8:	4770      	bx	lr

004020ba <twi_enable_master_mode>:
  4020ba:	2308      	movs	r3, #8
  4020bc:	6003      	str	r3, [r0, #0]
  4020be:	2320      	movs	r3, #32
  4020c0:	6003      	str	r3, [r0, #0]
  4020c2:	2304      	movs	r3, #4
  4020c4:	6003      	str	r3, [r0, #0]
  4020c6:	4770      	bx	lr

004020c8 <twi_set_speed>:
  4020c8:	4b0d      	ldr	r3, [pc, #52]	; (402100 <twi_set_speed+0x38>)
  4020ca:	4299      	cmp	r1, r3
  4020cc:	d816      	bhi.n	4020fc <twi_set_speed+0x34>
  4020ce:	0049      	lsls	r1, r1, #1
  4020d0:	fbb2 f2f1 	udiv	r2, r2, r1
  4020d4:	3a04      	subs	r2, #4
  4020d6:	2300      	movs	r3, #0
  4020d8:	2aff      	cmp	r2, #255	; 0xff
  4020da:	d904      	bls.n	4020e6 <twi_set_speed+0x1e>
  4020dc:	2b07      	cmp	r3, #7
  4020de:	d002      	beq.n	4020e6 <twi_set_speed+0x1e>
  4020e0:	3301      	adds	r3, #1
  4020e2:	0852      	lsrs	r2, r2, #1
  4020e4:	e7f8      	b.n	4020d8 <twi_set_speed+0x10>
  4020e6:	0211      	lsls	r1, r2, #8
  4020e8:	041b      	lsls	r3, r3, #16
  4020ea:	b289      	uxth	r1, r1
  4020ec:	f403 23e0 	and.w	r3, r3, #458752	; 0x70000
  4020f0:	430b      	orrs	r3, r1
  4020f2:	b2d2      	uxtb	r2, r2
  4020f4:	431a      	orrs	r2, r3
  4020f6:	6102      	str	r2, [r0, #16]
  4020f8:	2000      	movs	r0, #0
  4020fa:	4770      	bx	lr
  4020fc:	2001      	movs	r0, #1
  4020fe:	4770      	bx	lr
  402100:	00061a80 	.word	0x00061a80

00402104 <twi_enable_interrupt>:
  402104:	6241      	str	r1, [r0, #36]	; 0x24
  402106:	4770      	bx	lr

00402108 <twi_disable_interrupt>:
  402108:	6281      	str	r1, [r0, #40]	; 0x28
  40210a:	6a03      	ldr	r3, [r0, #32]
  40210c:	4770      	bx	lr

0040210e <twi_get_interrupt_status>:
  40210e:	6a00      	ldr	r0, [r0, #32]
  402110:	4770      	bx	lr

00402112 <twi_get_interrupt_mask>:
  402112:	6ac0      	ldr	r0, [r0, #44]	; 0x2c
  402114:	4770      	bx	lr

00402116 <twi_read_byte>:
  402116:	6b00      	ldr	r0, [r0, #48]	; 0x30
  402118:	b2c0      	uxtb	r0, r0
  40211a:	4770      	bx	lr

0040211c <twi_reset>:
  40211c:	2380      	movs	r3, #128	; 0x80
  40211e:	6003      	str	r3, [r0, #0]
  402120:	6b03      	ldr	r3, [r0, #48]	; 0x30
  402122:	4770      	bx	lr

00402124 <uart_init>:
  402124:	23ac      	movs	r3, #172	; 0xac
  402126:	b510      	push	{r4, lr}
  402128:	6003      	str	r3, [r0, #0]
  40212a:	e891 000c 	ldmia.w	r1, {r2, r3}
  40212e:	fbb2 f3f3 	udiv	r3, r2, r3
  402132:	091b      	lsrs	r3, r3, #4
  402134:	1e5c      	subs	r4, r3, #1
  402136:	f64f 72fe 	movw	r2, #65534	; 0xfffe
  40213a:	4294      	cmp	r4, r2
  40213c:	d80a      	bhi.n	402154 <uart_init+0x30>
  40213e:	6203      	str	r3, [r0, #32]
  402140:	688b      	ldr	r3, [r1, #8]
  402142:	6043      	str	r3, [r0, #4]
  402144:	f240 2302 	movw	r3, #514	; 0x202
  402148:	f8c0 3120 	str.w	r3, [r0, #288]	; 0x120
  40214c:	2350      	movs	r3, #80	; 0x50
  40214e:	6003      	str	r3, [r0, #0]
  402150:	2000      	movs	r0, #0
  402152:	bd10      	pop	{r4, pc}
  402154:	2001      	movs	r0, #1
  402156:	bd10      	pop	{r4, pc}

00402158 <uart_enable_tx>:
  402158:	2340      	movs	r3, #64	; 0x40
  40215a:	6003      	str	r3, [r0, #0]
  40215c:	4770      	bx	lr

0040215e <uart_disable_tx>:
  40215e:	2380      	movs	r3, #128	; 0x80
  402160:	6003      	str	r3, [r0, #0]
  402162:	4770      	bx	lr

00402164 <uart_enable_rx>:
  402164:	2310      	movs	r3, #16
  402166:	6003      	str	r3, [r0, #0]
  402168:	4770      	bx	lr

0040216a <uart_disable_rx>:
  40216a:	2320      	movs	r3, #32
  40216c:	6003      	str	r3, [r0, #0]
  40216e:	4770      	bx	lr

00402170 <uart_enable_interrupt>:
  402170:	6081      	str	r1, [r0, #8]
  402172:	4770      	bx	lr

00402174 <uart_disable_interrupt>:
  402174:	60c1      	str	r1, [r0, #12]
  402176:	4770      	bx	lr

00402178 <uart_get_interrupt_mask>:
  402178:	6900      	ldr	r0, [r0, #16]
  40217a:	4770      	bx	lr

0040217c <uart_get_status>:
  40217c:	6940      	ldr	r0, [r0, #20]
  40217e:	4770      	bx	lr

00402180 <uart_reset_status>:
  402180:	f44f 7380 	mov.w	r3, #256	; 0x100
  402184:	6003      	str	r3, [r0, #0]
  402186:	4770      	bx	lr

00402188 <uart_write>:
  402188:	6943      	ldr	r3, [r0, #20]
  40218a:	079b      	lsls	r3, r3, #30
  40218c:	bf46      	itte	mi
  40218e:	61c1      	strmi	r1, [r0, #28]
  402190:	2000      	movmi	r0, #0
  402192:	2001      	movpl	r0, #1
  402194:	4770      	bx	lr

00402196 <uart_read>:
  402196:	6943      	ldr	r3, [r0, #20]
  402198:	07db      	lsls	r3, r3, #31
  40219a:	bf43      	ittte	mi
  40219c:	6983      	ldrmi	r3, [r0, #24]
  40219e:	2000      	movmi	r0, #0
  4021a0:	700b      	strbmi	r3, [r1, #0]
  4021a2:	2001      	movpl	r0, #1
  4021a4:	4770      	bx	lr

004021a6 <usart_write>:
  4021a6:	6943      	ldr	r3, [r0, #20]
  4021a8:	079b      	lsls	r3, r3, #30
  4021aa:	bf43      	ittte	mi
  4021ac:	f3c1 0108 	ubfxmi	r1, r1, #0, #9
  4021b0:	61c1      	strmi	r1, [r0, #28]
  4021b2:	2000      	movmi	r0, #0
  4021b4:	2001      	movpl	r0, #1
  4021b6:	4770      	bx	lr

004021b8 <usart_read>:
  4021b8:	6943      	ldr	r3, [r0, #20]
  4021ba:	07db      	lsls	r3, r3, #31
  4021bc:	d505      	bpl.n	4021ca <usart_read+0x12>
  4021be:	6983      	ldr	r3, [r0, #24]
  4021c0:	2000      	movs	r0, #0
  4021c2:	f3c3 0308 	ubfx	r3, r3, #0, #9
  4021c6:	600b      	str	r3, [r1, #0]
  4021c8:	4770      	bx	lr
  4021ca:	2001      	movs	r0, #1
  4021cc:	4770      	bx	lr

004021ce <Dummy_Handler>:
  4021ce:	e7fe      	b.n	4021ce <Dummy_Handler>

004021d0 <Reset_Handler>:
  4021d0:	4b16      	ldr	r3, [pc, #88]	; (40222c <Reset_Handler+0x5c>)
  4021d2:	4a17      	ldr	r2, [pc, #92]	; (402230 <Reset_Handler+0x60>)
  4021d4:	b510      	push	{r4, lr}
  4021d6:	4293      	cmp	r3, r2
  4021d8:	461c      	mov	r4, r3
  4021da:	d001      	beq.n	4021e0 <Reset_Handler+0x10>
  4021dc:	2300      	movs	r3, #0
  4021de:	e001      	b.n	4021e4 <Reset_Handler+0x14>
  4021e0:	4b14      	ldr	r3, [pc, #80]	; (402234 <Reset_Handler+0x64>)
  4021e2:	e007      	b.n	4021f4 <Reset_Handler+0x24>
  4021e4:	4914      	ldr	r1, [pc, #80]	; (402238 <Reset_Handler+0x68>)
  4021e6:	18d0      	adds	r0, r2, r3
  4021e8:	4288      	cmp	r0, r1
  4021ea:	d2f9      	bcs.n	4021e0 <Reset_Handler+0x10>
  4021ec:	58e1      	ldr	r1, [r4, r3]
  4021ee:	50d1      	str	r1, [r2, r3]
  4021f0:	3304      	adds	r3, #4
  4021f2:	e7f7      	b.n	4021e4 <Reset_Handler+0x14>
  4021f4:	4a11      	ldr	r2, [pc, #68]	; (40223c <Reset_Handler+0x6c>)
  4021f6:	4293      	cmp	r3, r2
  4021f8:	d203      	bcs.n	402202 <Reset_Handler+0x32>
  4021fa:	2200      	movs	r2, #0
  4021fc:	f843 2b04 	str.w	r2, [r3], #4
  402200:	e7f8      	b.n	4021f4 <Reset_Handler+0x24>
  402202:	490f      	ldr	r1, [pc, #60]	; (402240 <Reset_Handler+0x70>)
  402204:	4b0f      	ldr	r3, [pc, #60]	; (402244 <Reset_Handler+0x74>)
  402206:	f021 4260 	bic.w	r2, r1, #3758096384	; 0xe0000000
  40220a:	f101 4160 	add.w	r1, r1, #3758096384	; 0xe0000000
  40220e:	f022 027f 	bic.w	r2, r2, #127	; 0x7f
  402212:	f5b1 4fc0 	cmp.w	r1, #24576	; 0x6000
  402216:	609a      	str	r2, [r3, #8]
  402218:	d203      	bcs.n	402222 <Reset_Handler+0x52>
  40221a:	689a      	ldr	r2, [r3, #8]
  40221c:	f042 5200 	orr.w	r2, r2, #536870912	; 0x20000000
  402220:	609a      	str	r2, [r3, #8]
  402222:	4b09      	ldr	r3, [pc, #36]	; (402248 <Reset_Handler+0x78>)
  402224:	4798      	blx	r3
  402226:	4b09      	ldr	r3, [pc, #36]	; (40224c <Reset_Handler+0x7c>)
  402228:	4798      	blx	r3
  40222a:	e7fe      	b.n	40222a <Reset_Handler+0x5a>
  40222c:	0040c8f8 	.word	0x0040c8f8
  402230:	20000000 	.word	0x20000000
  402234:	20000980 	.word	0x20000980
  402238:	2000097c 	.word	0x2000097c
  40223c:	20003f24 	.word	0x20003f24
  402240:	00400000 	.word	0x00400000
  402244:	e000ed00 	.word	0xe000ed00
  402248:	00405e4d 	.word	0x00405e4d
  40224c:	00403f8d 	.word	0x00403f8d

00402250 <SystemCoreClockUpdate>:
  402250:	b510      	push	{r4, lr}
  402252:	4a29      	ldr	r2, [pc, #164]	; (4022f8 <SystemCoreClockUpdate+0xa8>)
  402254:	4b29      	ldr	r3, [pc, #164]	; (4022fc <SystemCoreClockUpdate+0xac>)
  402256:	6b11      	ldr	r1, [r2, #48]	; 0x30
  402258:	f001 0103 	and.w	r1, r1, #3
  40225c:	2901      	cmp	r1, #1
  40225e:	d00c      	beq.n	40227a <SystemCoreClockUpdate+0x2a>
  402260:	d302      	bcc.n	402268 <SystemCoreClockUpdate+0x18>
  402262:	2902      	cmp	r1, #2
  402264:	d01a      	beq.n	40229c <SystemCoreClockUpdate+0x4c>
  402266:	e035      	b.n	4022d4 <SystemCoreClockUpdate+0x84>
  402268:	4925      	ldr	r1, [pc, #148]	; (402300 <SystemCoreClockUpdate+0xb0>)
  40226a:	6949      	ldr	r1, [r1, #20]
  40226c:	060c      	lsls	r4, r1, #24
  40226e:	bf4c      	ite	mi
  402270:	f44f 4100 	movmi.w	r1, #32768	; 0x8000
  402274:	f44f 41fa 	movpl.w	r1, #32000	; 0x7d00
  402278:	e02b      	b.n	4022d2 <SystemCoreClockUpdate+0x82>
  40227a:	6a11      	ldr	r1, [r2, #32]
  40227c:	01c8      	lsls	r0, r1, #7
  40227e:	d40b      	bmi.n	402298 <SystemCoreClockUpdate+0x48>
  402280:	4920      	ldr	r1, [pc, #128]	; (402304 <SystemCoreClockUpdate+0xb4>)
  402282:	6019      	str	r1, [r3, #0]
  402284:	6a11      	ldr	r1, [r2, #32]
  402286:	f001 0170 	and.w	r1, r1, #112	; 0x70
  40228a:	2910      	cmp	r1, #16
  40228c:	d002      	beq.n	402294 <SystemCoreClockUpdate+0x44>
  40228e:	2920      	cmp	r1, #32
  402290:	d002      	beq.n	402298 <SystemCoreClockUpdate+0x48>
  402292:	e01f      	b.n	4022d4 <SystemCoreClockUpdate+0x84>
  402294:	491c      	ldr	r1, [pc, #112]	; (402308 <SystemCoreClockUpdate+0xb8>)
  402296:	e01c      	b.n	4022d2 <SystemCoreClockUpdate+0x82>
  402298:	491c      	ldr	r1, [pc, #112]	; (40230c <SystemCoreClockUpdate+0xbc>)
  40229a:	e01a      	b.n	4022d2 <SystemCoreClockUpdate+0x82>
  40229c:	6a11      	ldr	r1, [r2, #32]
  40229e:	01c9      	lsls	r1, r1, #7
  4022a0:	d40b      	bmi.n	4022ba <SystemCoreClockUpdate+0x6a>
  4022a2:	4918      	ldr	r1, [pc, #96]	; (402304 <SystemCoreClockUpdate+0xb4>)
  4022a4:	6019      	str	r1, [r3, #0]
  4022a6:	6a11      	ldr	r1, [r2, #32]
  4022a8:	f001 0170 	and.w	r1, r1, #112	; 0x70
  4022ac:	2910      	cmp	r1, #16
  4022ae:	d002      	beq.n	4022b6 <SystemCoreClockUpdate+0x66>
  4022b0:	2920      	cmp	r1, #32
  4022b2:	d002      	beq.n	4022ba <SystemCoreClockUpdate+0x6a>
  4022b4:	e003      	b.n	4022be <SystemCoreClockUpdate+0x6e>
  4022b6:	4914      	ldr	r1, [pc, #80]	; (402308 <SystemCoreClockUpdate+0xb8>)
  4022b8:	e000      	b.n	4022bc <SystemCoreClockUpdate+0x6c>
  4022ba:	4914      	ldr	r1, [pc, #80]	; (40230c <SystemCoreClockUpdate+0xbc>)
  4022bc:	6019      	str	r1, [r3, #0]
  4022be:	6a94      	ldr	r4, [r2, #40]	; 0x28
  4022c0:	6819      	ldr	r1, [r3, #0]
  4022c2:	f3c4 440a 	ubfx	r4, r4, #16, #11
  4022c6:	fb04 1101 	mla	r1, r4, r1, r1
  4022ca:	6a90      	ldr	r0, [r2, #40]	; 0x28
  4022cc:	b2c0      	uxtb	r0, r0
  4022ce:	fbb1 f1f0 	udiv	r1, r1, r0
  4022d2:	6019      	str	r1, [r3, #0]
  4022d4:	6b12      	ldr	r2, [r2, #48]	; 0x30
  4022d6:	f002 0270 	and.w	r2, r2, #112	; 0x70
  4022da:	2a70      	cmp	r2, #112	; 0x70
  4022dc:	d104      	bne.n	4022e8 <SystemCoreClockUpdate+0x98>
  4022de:	681a      	ldr	r2, [r3, #0]
  4022e0:	2103      	movs	r1, #3
  4022e2:	fbb2 f2f1 	udiv	r2, r2, r1
  4022e6:	e005      	b.n	4022f4 <SystemCoreClockUpdate+0xa4>
  4022e8:	4a03      	ldr	r2, [pc, #12]	; (4022f8 <SystemCoreClockUpdate+0xa8>)
  4022ea:	6b11      	ldr	r1, [r2, #48]	; 0x30
  4022ec:	681a      	ldr	r2, [r3, #0]
  4022ee:	f3c1 1102 	ubfx	r1, r1, #4, #3
  4022f2:	40ca      	lsrs	r2, r1
  4022f4:	601a      	str	r2, [r3, #0]
  4022f6:	bd10      	pop	{r4, pc}
  4022f8:	400e0400 	.word	0x400e0400
  4022fc:	200000c8 	.word	0x200000c8
  402300:	400e1410 	.word	0x400e1410
  402304:	003d0900 	.word	0x003d0900
  402308:	007a1200 	.word	0x007a1200
  40230c:	00b71b00 	.word	0x00b71b00

00402310 <_sbrk>:
  402310:	4b07      	ldr	r3, [pc, #28]	; (402330 <_sbrk+0x20>)
  402312:	681a      	ldr	r2, [r3, #0]
  402314:	b90a      	cbnz	r2, 40231a <_sbrk+0xa>
  402316:	4a07      	ldr	r2, [pc, #28]	; (402334 <_sbrk+0x24>)
  402318:	601a      	str	r2, [r3, #0]
  40231a:	681b      	ldr	r3, [r3, #0]
  40231c:	4a06      	ldr	r2, [pc, #24]	; (402338 <_sbrk+0x28>)
  40231e:	4418      	add	r0, r3
  402320:	4290      	cmp	r0, r2
  402322:	bfdd      	ittte	le
  402324:	4a02      	ldrle	r2, [pc, #8]	; (402330 <_sbrk+0x20>)
  402326:	6010      	strle	r0, [r2, #0]
  402328:	4618      	movle	r0, r3
  40232a:	f04f 30ff 	movgt.w	r0, #4294967295
  40232e:	4770      	bx	lr
  402330:	20000bb0 	.word	0x20000bb0
  402334:	20004728 	.word	0x20004728
  402338:	20005ffc 	.word	0x20005ffc

0040233c <_close>:
  40233c:	f04f 30ff 	mov.w	r0, #4294967295
  402340:	4770      	bx	lr

00402342 <_fstat>:
  402342:	f44f 5300 	mov.w	r3, #8192	; 0x2000
  402346:	604b      	str	r3, [r1, #4]
  402348:	2000      	movs	r0, #0
  40234a:	4770      	bx	lr

0040234c <_isatty>:
  40234c:	2001      	movs	r0, #1
  40234e:	4770      	bx	lr

00402350 <_lseek>:
  402350:	2000      	movs	r0, #0
  402352:	4770      	bx	lr

00402354 <vListInitialise>:
  402354:	f100 0308 	add.w	r3, r0, #8
  402358:	f04f 32ff 	mov.w	r2, #4294967295
  40235c:	6082      	str	r2, [r0, #8]
  40235e:	6043      	str	r3, [r0, #4]
  402360:	60c3      	str	r3, [r0, #12]
  402362:	6103      	str	r3, [r0, #16]
  402364:	2300      	movs	r3, #0
  402366:	6003      	str	r3, [r0, #0]
  402368:	4770      	bx	lr

0040236a <vListInitialiseItem>:
  40236a:	2300      	movs	r3, #0
  40236c:	6103      	str	r3, [r0, #16]
  40236e:	4770      	bx	lr

00402370 <vListInsertEnd>:
  402370:	6843      	ldr	r3, [r0, #4]
  402372:	685a      	ldr	r2, [r3, #4]
  402374:	604a      	str	r2, [r1, #4]
  402376:	6842      	ldr	r2, [r0, #4]
  402378:	608a      	str	r2, [r1, #8]
  40237a:	685a      	ldr	r2, [r3, #4]
  40237c:	6091      	str	r1, [r2, #8]
  40237e:	6059      	str	r1, [r3, #4]
  402380:	6041      	str	r1, [r0, #4]
  402382:	6108      	str	r0, [r1, #16]
  402384:	6803      	ldr	r3, [r0, #0]
  402386:	3301      	adds	r3, #1
  402388:	6003      	str	r3, [r0, #0]
  40238a:	4770      	bx	lr

0040238c <vListInsert>:
  40238c:	680a      	ldr	r2, [r1, #0]
  40238e:	b510      	push	{r4, lr}
  402390:	1c53      	adds	r3, r2, #1
  402392:	d101      	bne.n	402398 <vListInsert+0xc>
  402394:	6903      	ldr	r3, [r0, #16]
  402396:	e007      	b.n	4023a8 <vListInsert+0x1c>
  402398:	f100 0308 	add.w	r3, r0, #8
  40239c:	685c      	ldr	r4, [r3, #4]
  40239e:	6824      	ldr	r4, [r4, #0]
  4023a0:	4294      	cmp	r4, r2
  4023a2:	d801      	bhi.n	4023a8 <vListInsert+0x1c>
  4023a4:	685b      	ldr	r3, [r3, #4]
  4023a6:	e7f9      	b.n	40239c <vListInsert+0x10>
  4023a8:	685a      	ldr	r2, [r3, #4]
  4023aa:	604a      	str	r2, [r1, #4]
  4023ac:	6091      	str	r1, [r2, #8]
  4023ae:	608b      	str	r3, [r1, #8]
  4023b0:	6059      	str	r1, [r3, #4]
  4023b2:	6108      	str	r0, [r1, #16]
  4023b4:	6803      	ldr	r3, [r0, #0]
  4023b6:	3301      	adds	r3, #1
  4023b8:	6003      	str	r3, [r0, #0]
  4023ba:	bd10      	pop	{r4, pc}

004023bc <uxListRemove>:
  4023bc:	6843      	ldr	r3, [r0, #4]
  4023be:	6882      	ldr	r2, [r0, #8]
  4023c0:	609a      	str	r2, [r3, #8]
  4023c2:	6883      	ldr	r3, [r0, #8]
  4023c4:	6842      	ldr	r2, [r0, #4]
  4023c6:	605a      	str	r2, [r3, #4]
  4023c8:	6903      	ldr	r3, [r0, #16]
  4023ca:	685a      	ldr	r2, [r3, #4]
  4023cc:	4282      	cmp	r2, r0
  4023ce:	bf04      	itt	eq
  4023d0:	6882      	ldreq	r2, [r0, #8]
  4023d2:	605a      	streq	r2, [r3, #4]
  4023d4:	2200      	movs	r2, #0
  4023d6:	6102      	str	r2, [r0, #16]
  4023d8:	681a      	ldr	r2, [r3, #0]
  4023da:	3a01      	subs	r2, #1
  4023dc:	601a      	str	r2, [r3, #0]
  4023de:	6818      	ldr	r0, [r3, #0]
  4023e0:	4770      	bx	lr
	...

004023e4 <prvPortStartFirstTask>:
  4023e4:	4803      	ldr	r0, [pc, #12]	; (4023f4 <prvPortStartFirstTask+0x10>)
  4023e6:	6800      	ldr	r0, [r0, #0]
  4023e8:	6800      	ldr	r0, [r0, #0]
  4023ea:	f380 8808 	msr	MSP, r0
  4023ee:	b662      	cpsie	i
  4023f0:	df00      	svc	0
  4023f2:	bf00      	nop
  4023f4:	e000ed08 	.word	0xe000ed08

004023f8 <pxPortInitialiseStack>:
  4023f8:	f04f 7380 	mov.w	r3, #16777216	; 0x1000000
  4023fc:	e900 000a 	stmdb	r0, {r1, r3}
  402400:	2300      	movs	r3, #0
  402402:	f840 3c0c 	str.w	r3, [r0, #-12]
  402406:	f840 2c20 	str.w	r2, [r0, #-32]
  40240a:	3840      	subs	r0, #64	; 0x40
  40240c:	4770      	bx	lr
	...

00402410 <SVC_Handler>:
  402410:	4b06      	ldr	r3, [pc, #24]	; (40242c <pxCurrentTCBConst2>)
  402412:	6819      	ldr	r1, [r3, #0]
  402414:	6808      	ldr	r0, [r1, #0]
  402416:	e8b0 0ff0 	ldmia.w	r0!, {r4, r5, r6, r7, r8, r9, sl, fp}
  40241a:	f380 8809 	msr	PSP, r0
  40241e:	f04f 0000 	mov.w	r0, #0
  402422:	f380 8811 	msr	BASEPRI, r0
  402426:	f04e 0e0d 	orr.w	lr, lr, #13
  40242a:	4770      	bx	lr

0040242c <pxCurrentTCBConst2>:
  40242c:	20003d70 	.word	0x20003d70

00402430 <vPortYieldFromISR>:
  402430:	4b02      	ldr	r3, [pc, #8]	; (40243c <vPortYieldFromISR+0xc>)
  402432:	f04f 5280 	mov.w	r2, #268435456	; 0x10000000
  402436:	601a      	str	r2, [r3, #0]
  402438:	4770      	bx	lr
  40243a:	bf00      	nop
  40243c:	e000ed04 	.word	0xe000ed04

00402440 <ulPortSetInterruptMask>:
  402440:	f3ef 8011 	mrs	r0, BASEPRI
  402444:	f04f 01a0 	mov.w	r1, #160	; 0xa0
  402448:	f381 8811 	msr	BASEPRI, r1
  40244c:	4770      	bx	lr
  40244e:	2000      	movs	r0, #0

00402450 <vPortEnterCritical>:
  402450:	b508      	push	{r3, lr}
  402452:	4b03      	ldr	r3, [pc, #12]	; (402460 <vPortEnterCritical+0x10>)
  402454:	4798      	blx	r3
  402456:	4b03      	ldr	r3, [pc, #12]	; (402464 <vPortEnterCritical+0x14>)
  402458:	681a      	ldr	r2, [r3, #0]
  40245a:	3201      	adds	r2, #1
  40245c:	601a      	str	r2, [r3, #0]
  40245e:	bd08      	pop	{r3, pc}
  402460:	00402441 	.word	0x00402441
  402464:	200000cc 	.word	0x200000cc

00402468 <vPortClearInterruptMask>:
  402468:	f380 8811 	msr	BASEPRI, r0
  40246c:	4770      	bx	lr
	...

00402470 <vPortExitCritical>:
  402470:	b508      	push	{r3, lr}
  402472:	4b04      	ldr	r3, [pc, #16]	; (402484 <vPortExitCritical+0x14>)
  402474:	6818      	ldr	r0, [r3, #0]
  402476:	3801      	subs	r0, #1
  402478:	6018      	str	r0, [r3, #0]
  40247a:	b908      	cbnz	r0, 402480 <vPortExitCritical+0x10>
  40247c:	4b02      	ldr	r3, [pc, #8]	; (402488 <vPortExitCritical+0x18>)
  40247e:	4798      	blx	r3
  402480:	bd08      	pop	{r3, pc}
  402482:	bf00      	nop
  402484:	200000cc 	.word	0x200000cc
  402488:	00402469 	.word	0x00402469

0040248c <PendSV_Handler>:
  40248c:	f3ef 8009 	mrs	r0, PSP
  402490:	4b0c      	ldr	r3, [pc, #48]	; (4024c4 <pxCurrentTCBConst>)
  402492:	681a      	ldr	r2, [r3, #0]
  402494:	e920 0ff0 	stmdb	r0!, {r4, r5, r6, r7, r8, r9, sl, fp}
  402498:	6010      	str	r0, [r2, #0]
  40249a:	e92d 4008 	stmdb	sp!, {r3, lr}
  40249e:	f04f 00a0 	mov.w	r0, #160	; 0xa0
  4024a2:	f380 8811 	msr	BASEPRI, r0
  4024a6:	f000 feaf 	bl	403208 <vTaskSwitchContext>
  4024aa:	f04f 0000 	mov.w	r0, #0
  4024ae:	f380 8811 	msr	BASEPRI, r0
  4024b2:	e8bd 4008 	ldmia.w	sp!, {r3, lr}
  4024b6:	6819      	ldr	r1, [r3, #0]
  4024b8:	6808      	ldr	r0, [r1, #0]
  4024ba:	e8b0 0ff0 	ldmia.w	r0!, {r4, r5, r6, r7, r8, r9, sl, fp}
  4024be:	f380 8809 	msr	PSP, r0
  4024c2:	4770      	bx	lr

004024c4 <pxCurrentTCBConst>:
  4024c4:	20003d70 	.word	0x20003d70

004024c8 <SysTick_Handler>:
  4024c8:	b508      	push	{r3, lr}
  4024ca:	4b06      	ldr	r3, [pc, #24]	; (4024e4 <SysTick_Handler+0x1c>)
  4024cc:	f04f 5280 	mov.w	r2, #268435456	; 0x10000000
  4024d0:	601a      	str	r2, [r3, #0]
  4024d2:	4b05      	ldr	r3, [pc, #20]	; (4024e8 <SysTick_Handler+0x20>)
  4024d4:	4798      	blx	r3
  4024d6:	4b05      	ldr	r3, [pc, #20]	; (4024ec <SysTick_Handler+0x24>)
  4024d8:	4798      	blx	r3
  4024da:	2000      	movs	r0, #0
  4024dc:	4b04      	ldr	r3, [pc, #16]	; (4024f0 <SysTick_Handler+0x28>)
  4024de:	4798      	blx	r3
  4024e0:	bd08      	pop	{r3, pc}
  4024e2:	bf00      	nop
  4024e4:	e000ed04 	.word	0xe000ed04
  4024e8:	00402441 	.word	0x00402441
  4024ec:	00402f51 	.word	0x00402f51
  4024f0:	00402469 	.word	0x00402469

004024f4 <vPortSetupTimerInterrupt>:
  4024f4:	4b03      	ldr	r3, [pc, #12]	; (402504 <vPortSetupTimerInterrupt+0x10>)
  4024f6:	f64b 327f 	movw	r2, #47999	; 0xbb7f
  4024fa:	601a      	str	r2, [r3, #0]
  4024fc:	2207      	movs	r2, #7
  4024fe:	f843 2c04 	str.w	r2, [r3, #-4]
  402502:	4770      	bx	lr
  402504:	e000e014 	.word	0xe000e014

00402508 <xPortStartScheduler>:
  402508:	b510      	push	{r4, lr}
  40250a:	4b09      	ldr	r3, [pc, #36]	; (402530 <xPortStartScheduler+0x28>)
  40250c:	2400      	movs	r4, #0
  40250e:	681a      	ldr	r2, [r3, #0]
  402510:	f442 0270 	orr.w	r2, r2, #15728640	; 0xf00000
  402514:	601a      	str	r2, [r3, #0]
  402516:	681a      	ldr	r2, [r3, #0]
  402518:	f042 4270 	orr.w	r2, r2, #4026531840	; 0xf0000000
  40251c:	601a      	str	r2, [r3, #0]
  40251e:	4b05      	ldr	r3, [pc, #20]	; (402534 <xPortStartScheduler+0x2c>)
  402520:	4798      	blx	r3
  402522:	4b05      	ldr	r3, [pc, #20]	; (402538 <xPortStartScheduler+0x30>)
  402524:	601c      	str	r4, [r3, #0]
  402526:	4b05      	ldr	r3, [pc, #20]	; (40253c <xPortStartScheduler+0x34>)
  402528:	4798      	blx	r3
  40252a:	4620      	mov	r0, r4
  40252c:	bd10      	pop	{r4, pc}
  40252e:	bf00      	nop
  402530:	e000ed20 	.word	0xe000ed20
  402534:	004024f5 	.word	0x004024f5
  402538:	200000cc 	.word	0x200000cc
  40253c:	004023e5 	.word	0x004023e5

00402540 <prvInsertBlockIntoFreeList>:
  402540:	b510      	push	{r4, lr}
  402542:	4b10      	ldr	r3, [pc, #64]	; (402584 <prvInsertBlockIntoFreeList+0x44>)
  402544:	681a      	ldr	r2, [r3, #0]
  402546:	4282      	cmp	r2, r0
  402548:	d201      	bcs.n	40254e <prvInsertBlockIntoFreeList+0xe>
  40254a:	4613      	mov	r3, r2
  40254c:	e7fa      	b.n	402544 <prvInsertBlockIntoFreeList+0x4>
  40254e:	6859      	ldr	r1, [r3, #4]
  402550:	185c      	adds	r4, r3, r1
  402552:	4284      	cmp	r4, r0
  402554:	d103      	bne.n	40255e <prvInsertBlockIntoFreeList+0x1e>
  402556:	6840      	ldr	r0, [r0, #4]
  402558:	4401      	add	r1, r0
  40255a:	6059      	str	r1, [r3, #4]
  40255c:	4618      	mov	r0, r3
  40255e:	6841      	ldr	r1, [r0, #4]
  402560:	1844      	adds	r4, r0, r1
  402562:	4294      	cmp	r4, r2
  402564:	d108      	bne.n	402578 <prvInsertBlockIntoFreeList+0x38>
  402566:	4c08      	ldr	r4, [pc, #32]	; (402588 <prvInsertBlockIntoFreeList+0x48>)
  402568:	6824      	ldr	r4, [r4, #0]
  40256a:	42a2      	cmp	r2, r4
  40256c:	d004      	beq.n	402578 <prvInsertBlockIntoFreeList+0x38>
  40256e:	6852      	ldr	r2, [r2, #4]
  402570:	4411      	add	r1, r2
  402572:	6041      	str	r1, [r0, #4]
  402574:	681a      	ldr	r2, [r3, #0]
  402576:	6812      	ldr	r2, [r2, #0]
  402578:	4283      	cmp	r3, r0
  40257a:	6002      	str	r2, [r0, #0]
  40257c:	bf18      	it	ne
  40257e:	6018      	strne	r0, [r3, #0]
  402580:	bd10      	pop	{r4, pc}
  402582:	bf00      	nop
  402584:	20003cac 	.word	0x20003cac
  402588:	20003ca8 	.word	0x20003ca8

0040258c <pvPortMalloc>:
  40258c:	b570      	push	{r4, r5, r6, lr}
  40258e:	4b27      	ldr	r3, [pc, #156]	; (40262c <pvPortMalloc+0xa0>)
  402590:	4604      	mov	r4, r0
  402592:	4798      	blx	r3
  402594:	4926      	ldr	r1, [pc, #152]	; (402630 <pvPortMalloc+0xa4>)
  402596:	680a      	ldr	r2, [r1, #0]
  402598:	b98a      	cbnz	r2, 4025be <pvPortMalloc+0x32>
  40259a:	4b26      	ldr	r3, [pc, #152]	; (402634 <pvPortMalloc+0xa8>)
  40259c:	4826      	ldr	r0, [pc, #152]	; (402638 <pvPortMalloc+0xac>)
  40259e:	f243 05e0 	movw	r5, #12512	; 0x30e0
  4025a2:	6003      	str	r3, [r0, #0]
  4025a4:	6042      	str	r2, [r0, #4]
  4025a6:	4825      	ldr	r0, [pc, #148]	; (40263c <pvPortMalloc+0xb0>)
  4025a8:	f243 06e4 	movw	r6, #12516	; 0x30e4
  4025ac:	e883 0021 	stmia.w	r3, {r0, r5}
  4025b0:	519a      	str	r2, [r3, r6]
  4025b2:	515a      	str	r2, [r3, r5]
  4025b4:	4b22      	ldr	r3, [pc, #136]	; (402640 <pvPortMalloc+0xb4>)
  4025b6:	6008      	str	r0, [r1, #0]
  4025b8:	681a      	ldr	r2, [r3, #0]
  4025ba:	3a10      	subs	r2, #16
  4025bc:	601a      	str	r2, [r3, #0]
  4025be:	b12c      	cbz	r4, 4025cc <pvPortMalloc+0x40>
  4025c0:	3410      	adds	r4, #16
  4025c2:	0763      	lsls	r3, r4, #29
  4025c4:	bf1c      	itt	ne
  4025c6:	f024 0407 	bicne.w	r4, r4, #7
  4025ca:	3408      	addne	r4, #8
  4025cc:	1e62      	subs	r2, r4, #1
  4025ce:	f243 03ee 	movw	r3, #12526	; 0x30ee
  4025d2:	429a      	cmp	r2, r3
  4025d4:	d821      	bhi.n	40261a <pvPortMalloc+0x8e>
  4025d6:	4b18      	ldr	r3, [pc, #96]	; (402638 <pvPortMalloc+0xac>)
  4025d8:	681d      	ldr	r5, [r3, #0]
  4025da:	686a      	ldr	r2, [r5, #4]
  4025dc:	42a2      	cmp	r2, r4
  4025de:	d303      	bcc.n	4025e8 <pvPortMalloc+0x5c>
  4025e0:	680a      	ldr	r2, [r1, #0]
  4025e2:	4295      	cmp	r5, r2
  4025e4:	d106      	bne.n	4025f4 <pvPortMalloc+0x68>
  4025e6:	e018      	b.n	40261a <pvPortMalloc+0x8e>
  4025e8:	682a      	ldr	r2, [r5, #0]
  4025ea:	2a00      	cmp	r2, #0
  4025ec:	d0f8      	beq.n	4025e0 <pvPortMalloc+0x54>
  4025ee:	462b      	mov	r3, r5
  4025f0:	4615      	mov	r5, r2
  4025f2:	e7f2      	b.n	4025da <pvPortMalloc+0x4e>
  4025f4:	682a      	ldr	r2, [r5, #0]
  4025f6:	681e      	ldr	r6, [r3, #0]
  4025f8:	601a      	str	r2, [r3, #0]
  4025fa:	686b      	ldr	r3, [r5, #4]
  4025fc:	3610      	adds	r6, #16
  4025fe:	1b1b      	subs	r3, r3, r4
  402600:	2b20      	cmp	r3, #32
  402602:	d904      	bls.n	40260e <pvPortMalloc+0x82>
  402604:	1928      	adds	r0, r5, r4
  402606:	6043      	str	r3, [r0, #4]
  402608:	606c      	str	r4, [r5, #4]
  40260a:	4b0e      	ldr	r3, [pc, #56]	; (402644 <pvPortMalloc+0xb8>)
  40260c:	4798      	blx	r3
  40260e:	4b0c      	ldr	r3, [pc, #48]	; (402640 <pvPortMalloc+0xb4>)
  402610:	6869      	ldr	r1, [r5, #4]
  402612:	681a      	ldr	r2, [r3, #0]
  402614:	1a52      	subs	r2, r2, r1
  402616:	601a      	str	r2, [r3, #0]
  402618:	e000      	b.n	40261c <pvPortMalloc+0x90>
  40261a:	2600      	movs	r6, #0
  40261c:	4b0a      	ldr	r3, [pc, #40]	; (402648 <pvPortMalloc+0xbc>)
  40261e:	4798      	blx	r3
  402620:	b90e      	cbnz	r6, 402626 <pvPortMalloc+0x9a>
  402622:	4b0a      	ldr	r3, [pc, #40]	; (40264c <pvPortMalloc+0xc0>)
  402624:	4798      	blx	r3
  402626:	4630      	mov	r0, r6
  402628:	bd70      	pop	{r4, r5, r6, pc}
  40262a:	bf00      	nop
  40262c:	00402f21 	.word	0x00402f21
  402630:	20003ca8 	.word	0x20003ca8
  402634:	20000bb8 	.word	0x20000bb8
  402638:	20003cac 	.word	0x20003cac
  40263c:	20003c98 	.word	0x20003c98
  402640:	200000d0 	.word	0x200000d0
  402644:	00402541 	.word	0x00402541
  402648:	0040304d 	.word	0x0040304d
  40264c:	00403eb1 	.word	0x00403eb1

00402650 <vPortFree>:
  402650:	b510      	push	{r4, lr}
  402652:	4604      	mov	r4, r0
  402654:	b168      	cbz	r0, 402672 <vPortFree+0x22>
  402656:	4b07      	ldr	r3, [pc, #28]	; (402674 <vPortFree+0x24>)
  402658:	4798      	blx	r3
  40265a:	4b07      	ldr	r3, [pc, #28]	; (402678 <vPortFree+0x28>)
  40265c:	f854 1c0c 	ldr.w	r1, [r4, #-12]
  402660:	681a      	ldr	r2, [r3, #0]
  402662:	f1a4 0010 	sub.w	r0, r4, #16
  402666:	440a      	add	r2, r1
  402668:	601a      	str	r2, [r3, #0]
  40266a:	4b04      	ldr	r3, [pc, #16]	; (40267c <vPortFree+0x2c>)
  40266c:	4798      	blx	r3
  40266e:	4b04      	ldr	r3, [pc, #16]	; (402680 <vPortFree+0x30>)
  402670:	4798      	blx	r3
  402672:	bd10      	pop	{r4, pc}
  402674:	00402f21 	.word	0x00402f21
  402678:	200000d0 	.word	0x200000d0
  40267c:	00402541 	.word	0x00402541
  402680:	0040304d 	.word	0x0040304d

00402684 <xPortGetFreeHeapSize>:
  402684:	4b01      	ldr	r3, [pc, #4]	; (40268c <xPortGetFreeHeapSize+0x8>)
  402686:	6818      	ldr	r0, [r3, #0]
  402688:	4770      	bx	lr
  40268a:	bf00      	nop
  40268c:	200000d0 	.word	0x200000d0

00402690 <prvCopyDataToQueue>:
  402690:	b538      	push	{r3, r4, r5, lr}
  402692:	4604      	mov	r4, r0
  402694:	4610      	mov	r0, r2
  402696:	6c22      	ldr	r2, [r4, #64]	; 0x40
  402698:	b932      	cbnz	r2, 4026a8 <prvCopyDataToQueue+0x18>
  40269a:	6825      	ldr	r5, [r4, #0]
  40269c:	b9fd      	cbnz	r5, 4026de <prvCopyDataToQueue+0x4e>
  40269e:	6860      	ldr	r0, [r4, #4]
  4026a0:	4b11      	ldr	r3, [pc, #68]	; (4026e8 <prvCopyDataToQueue+0x58>)
  4026a2:	4798      	blx	r3
  4026a4:	6065      	str	r5, [r4, #4]
  4026a6:	e01a      	b.n	4026de <prvCopyDataToQueue+0x4e>
  4026a8:	4b10      	ldr	r3, [pc, #64]	; (4026ec <prvCopyDataToQueue+0x5c>)
  4026aa:	b958      	cbnz	r0, 4026c4 <prvCopyDataToQueue+0x34>
  4026ac:	68a0      	ldr	r0, [r4, #8]
  4026ae:	4798      	blx	r3
  4026b0:	68a2      	ldr	r2, [r4, #8]
  4026b2:	6c23      	ldr	r3, [r4, #64]	; 0x40
  4026b4:	4413      	add	r3, r2
  4026b6:	6862      	ldr	r2, [r4, #4]
  4026b8:	60a3      	str	r3, [r4, #8]
  4026ba:	4293      	cmp	r3, r2
  4026bc:	d30f      	bcc.n	4026de <prvCopyDataToQueue+0x4e>
  4026be:	6823      	ldr	r3, [r4, #0]
  4026c0:	60a3      	str	r3, [r4, #8]
  4026c2:	e00c      	b.n	4026de <prvCopyDataToQueue+0x4e>
  4026c4:	68e0      	ldr	r0, [r4, #12]
  4026c6:	4798      	blx	r3
  4026c8:	6c23      	ldr	r3, [r4, #64]	; 0x40
  4026ca:	68e2      	ldr	r2, [r4, #12]
  4026cc:	425b      	negs	r3, r3
  4026ce:	6821      	ldr	r1, [r4, #0]
  4026d0:	441a      	add	r2, r3
  4026d2:	428a      	cmp	r2, r1
  4026d4:	60e2      	str	r2, [r4, #12]
  4026d6:	d202      	bcs.n	4026de <prvCopyDataToQueue+0x4e>
  4026d8:	6862      	ldr	r2, [r4, #4]
  4026da:	4413      	add	r3, r2
  4026dc:	60e3      	str	r3, [r4, #12]
  4026de:	6ba3      	ldr	r3, [r4, #56]	; 0x38
  4026e0:	3301      	adds	r3, #1
  4026e2:	63a3      	str	r3, [r4, #56]	; 0x38
  4026e4:	bd38      	pop	{r3, r4, r5, pc}
  4026e6:	bf00      	nop
  4026e8:	004034ed 	.word	0x004034ed
  4026ec:	00406475 	.word	0x00406475

004026f0 <prvCopyDataFromQueue>:
  4026f0:	b570      	push	{r4, r5, r6, lr}
  4026f2:	6804      	ldr	r4, [r0, #0]
  4026f4:	4603      	mov	r3, r0
  4026f6:	b15c      	cbz	r4, 402710 <prvCopyDataFromQueue+0x20>
  4026f8:	68c5      	ldr	r5, [r0, #12]
  4026fa:	6c02      	ldr	r2, [r0, #64]	; 0x40
  4026fc:	6846      	ldr	r6, [r0, #4]
  4026fe:	4415      	add	r5, r2
  402700:	42b5      	cmp	r5, r6
  402702:	60c5      	str	r5, [r0, #12]
  402704:	bf28      	it	cs
  402706:	60c4      	strcs	r4, [r0, #12]
  402708:	4608      	mov	r0, r1
  40270a:	68d9      	ldr	r1, [r3, #12]
  40270c:	4b01      	ldr	r3, [pc, #4]	; (402714 <prvCopyDataFromQueue+0x24>)
  40270e:	4798      	blx	r3
  402710:	bd70      	pop	{r4, r5, r6, pc}
  402712:	bf00      	nop
  402714:	00406475 	.word	0x00406475

00402718 <prvUnlockQueue>:
  402718:	b570      	push	{r4, r5, r6, lr}
  40271a:	4d17      	ldr	r5, [pc, #92]	; (402778 <prvUnlockQueue+0x60>)
  40271c:	4604      	mov	r4, r0
  40271e:	47a8      	blx	r5
  402720:	462e      	mov	r6, r5
  402722:	6ca3      	ldr	r3, [r4, #72]	; 0x48
  402724:	2b00      	cmp	r3, #0
  402726:	dd0c      	ble.n	402742 <prvUnlockQueue+0x2a>
  402728:	6a63      	ldr	r3, [r4, #36]	; 0x24
  40272a:	b153      	cbz	r3, 402742 <prvUnlockQueue+0x2a>
  40272c:	f104 0024 	add.w	r0, r4, #36	; 0x24
  402730:	4b12      	ldr	r3, [pc, #72]	; (40277c <prvUnlockQueue+0x64>)
  402732:	4798      	blx	r3
  402734:	b108      	cbz	r0, 40273a <prvUnlockQueue+0x22>
  402736:	4b12      	ldr	r3, [pc, #72]	; (402780 <prvUnlockQueue+0x68>)
  402738:	4798      	blx	r3
  40273a:	6ca3      	ldr	r3, [r4, #72]	; 0x48
  40273c:	3b01      	subs	r3, #1
  40273e:	64a3      	str	r3, [r4, #72]	; 0x48
  402740:	e7ef      	b.n	402722 <prvUnlockQueue+0xa>
  402742:	f04f 33ff 	mov.w	r3, #4294967295
  402746:	64a3      	str	r3, [r4, #72]	; 0x48
  402748:	4d0e      	ldr	r5, [pc, #56]	; (402784 <prvUnlockQueue+0x6c>)
  40274a:	47a8      	blx	r5
  40274c:	47b0      	blx	r6
  40274e:	6c63      	ldr	r3, [r4, #68]	; 0x44
  402750:	2b00      	cmp	r3, #0
  402752:	dd0c      	ble.n	40276e <prvUnlockQueue+0x56>
  402754:	6923      	ldr	r3, [r4, #16]
  402756:	b153      	cbz	r3, 40276e <prvUnlockQueue+0x56>
  402758:	f104 0010 	add.w	r0, r4, #16
  40275c:	4b07      	ldr	r3, [pc, #28]	; (40277c <prvUnlockQueue+0x64>)
  40275e:	4798      	blx	r3
  402760:	b108      	cbz	r0, 402766 <prvUnlockQueue+0x4e>
  402762:	4b07      	ldr	r3, [pc, #28]	; (402780 <prvUnlockQueue+0x68>)
  402764:	4798      	blx	r3
  402766:	6c63      	ldr	r3, [r4, #68]	; 0x44
  402768:	3b01      	subs	r3, #1
  40276a:	6463      	str	r3, [r4, #68]	; 0x44
  40276c:	e7ef      	b.n	40274e <prvUnlockQueue+0x36>
  40276e:	f04f 33ff 	mov.w	r3, #4294967295
  402772:	6463      	str	r3, [r4, #68]	; 0x44
  402774:	47a8      	blx	r5
  402776:	bd70      	pop	{r4, r5, r6, pc}
  402778:	00402451 	.word	0x00402451
  40277c:	00403331 	.word	0x00403331
  402780:	00403449 	.word	0x00403449
  402784:	00402471 	.word	0x00402471

00402788 <xQueueGenericReset>:
  402788:	b538      	push	{r3, r4, r5, lr}
  40278a:	460d      	mov	r5, r1
  40278c:	4604      	mov	r4, r0
  40278e:	b918      	cbnz	r0, 402798 <xQueueGenericReset+0x10>
  402790:	4b16      	ldr	r3, [pc, #88]	; (4027ec <xQueueGenericReset+0x64>)
  402792:	4798      	blx	r3
  402794:	bf00      	nop
  402796:	e7fd      	b.n	402794 <xQueueGenericReset+0xc>
  402798:	4b15      	ldr	r3, [pc, #84]	; (4027f0 <xQueueGenericReset+0x68>)
  40279a:	4798      	blx	r3
  40279c:	6c22      	ldr	r2, [r4, #64]	; 0x40
  40279e:	6be0      	ldr	r0, [r4, #60]	; 0x3c
  4027a0:	6823      	ldr	r3, [r4, #0]
  4027a2:	4350      	muls	r0, r2
  4027a4:	1a82      	subs	r2, r0, r2
  4027a6:	1819      	adds	r1, r3, r0
  4027a8:	60a3      	str	r3, [r4, #8]
  4027aa:	4413      	add	r3, r2
  4027ac:	6061      	str	r1, [r4, #4]
  4027ae:	60e3      	str	r3, [r4, #12]
  4027b0:	2100      	movs	r1, #0
  4027b2:	f04f 33ff 	mov.w	r3, #4294967295
  4027b6:	63a1      	str	r1, [r4, #56]	; 0x38
  4027b8:	6463      	str	r3, [r4, #68]	; 0x44
  4027ba:	64a3      	str	r3, [r4, #72]	; 0x48
  4027bc:	b955      	cbnz	r5, 4027d4 <xQueueGenericReset+0x4c>
  4027be:	6923      	ldr	r3, [r4, #16]
  4027c0:	b17b      	cbz	r3, 4027e2 <xQueueGenericReset+0x5a>
  4027c2:	f104 0010 	add.w	r0, r4, #16
  4027c6:	4b0b      	ldr	r3, [pc, #44]	; (4027f4 <xQueueGenericReset+0x6c>)
  4027c8:	4798      	blx	r3
  4027ca:	2801      	cmp	r0, #1
  4027cc:	d109      	bne.n	4027e2 <xQueueGenericReset+0x5a>
  4027ce:	4b0a      	ldr	r3, [pc, #40]	; (4027f8 <xQueueGenericReset+0x70>)
  4027d0:	4798      	blx	r3
  4027d2:	e006      	b.n	4027e2 <xQueueGenericReset+0x5a>
  4027d4:	f104 0010 	add.w	r0, r4, #16
  4027d8:	4d08      	ldr	r5, [pc, #32]	; (4027fc <xQueueGenericReset+0x74>)
  4027da:	47a8      	blx	r5
  4027dc:	f104 0024 	add.w	r0, r4, #36	; 0x24
  4027e0:	47a8      	blx	r5
  4027e2:	4b07      	ldr	r3, [pc, #28]	; (402800 <xQueueGenericReset+0x78>)
  4027e4:	4798      	blx	r3
  4027e6:	2001      	movs	r0, #1
  4027e8:	bd38      	pop	{r3, r4, r5, pc}
  4027ea:	bf00      	nop
  4027ec:	00402441 	.word	0x00402441
  4027f0:	00402451 	.word	0x00402451
  4027f4:	00403331 	.word	0x00403331
  4027f8:	00402431 	.word	0x00402431
  4027fc:	00402355 	.word	0x00402355
  402800:	00402471 	.word	0x00402471

00402804 <xQueueGenericCreate>:
  402804:	e92d 41f0 	stmdb	sp!, {r4, r5, r6, r7, r8, lr}
  402808:	460e      	mov	r6, r1
  40280a:	4690      	mov	r8, r2
  40280c:	4605      	mov	r5, r0
  40280e:	b168      	cbz	r0, 40282c <xQueueGenericCreate+0x28>
  402810:	2050      	movs	r0, #80	; 0x50
  402812:	4f0e      	ldr	r7, [pc, #56]	; (40284c <xQueueGenericCreate+0x48>)
  402814:	47b8      	blx	r7
  402816:	4604      	mov	r4, r0
  402818:	b140      	cbz	r0, 40282c <xQueueGenericCreate+0x28>
  40281a:	fb06 f005 	mul.w	r0, r6, r5
  40281e:	3001      	adds	r0, #1
  402820:	47b8      	blx	r7
  402822:	6020      	str	r0, [r4, #0]
  402824:	b930      	cbnz	r0, 402834 <xQueueGenericCreate+0x30>
  402826:	4620      	mov	r0, r4
  402828:	4b09      	ldr	r3, [pc, #36]	; (402850 <xQueueGenericCreate+0x4c>)
  40282a:	4798      	blx	r3
  40282c:	4b09      	ldr	r3, [pc, #36]	; (402854 <xQueueGenericCreate+0x50>)
  40282e:	4798      	blx	r3
  402830:	bf00      	nop
  402832:	e7fd      	b.n	402830 <xQueueGenericCreate+0x2c>
  402834:	63e5      	str	r5, [r4, #60]	; 0x3c
  402836:	6426      	str	r6, [r4, #64]	; 0x40
  402838:	4620      	mov	r0, r4
  40283a:	2101      	movs	r1, #1
  40283c:	4b06      	ldr	r3, [pc, #24]	; (402858 <xQueueGenericCreate+0x54>)
  40283e:	4798      	blx	r3
  402840:	f884 804d 	strb.w	r8, [r4, #77]	; 0x4d
  402844:	4620      	mov	r0, r4
  402846:	e8bd 81f0 	ldmia.w	sp!, {r4, r5, r6, r7, r8, pc}
  40284a:	bf00      	nop
  40284c:	0040258d 	.word	0x0040258d
  402850:	00402651 	.word	0x00402651
  402854:	00402441 	.word	0x00402441
  402858:	00402789 	.word	0x00402789

0040285c <xQueueCreateCountingSemaphore>:
  40285c:	b510      	push	{r4, lr}
  40285e:	2202      	movs	r2, #2
  402860:	460c      	mov	r4, r1
  402862:	4b05      	ldr	r3, [pc, #20]	; (402878 <xQueueCreateCountingSemaphore+0x1c>)
  402864:	2100      	movs	r1, #0
  402866:	4798      	blx	r3
  402868:	b108      	cbz	r0, 40286e <xQueueCreateCountingSemaphore+0x12>
  40286a:	6384      	str	r4, [r0, #56]	; 0x38
  40286c:	bd10      	pop	{r4, pc}
  40286e:	4b03      	ldr	r3, [pc, #12]	; (40287c <xQueueCreateCountingSemaphore+0x20>)
  402870:	4798      	blx	r3
  402872:	bf00      	nop
  402874:	e7fd      	b.n	402872 <xQueueCreateCountingSemaphore+0x16>
  402876:	bf00      	nop
  402878:	00402805 	.word	0x00402805
  40287c:	00402441 	.word	0x00402441

00402880 <xQueueGenericSend>:
  402880:	e92d 47ff 	stmdb	sp!, {r0, r1, r2, r3, r4, r5, r6, r7, r8, r9, sl, lr}
  402884:	460f      	mov	r7, r1
  402886:	9201      	str	r2, [sp, #4]
  402888:	4699      	mov	r9, r3
  40288a:	4604      	mov	r4, r0
  40288c:	b918      	cbnz	r0, 402896 <xQueueGenericSend+0x16>
  40288e:	4b35      	ldr	r3, [pc, #212]	; (402964 <xQueueGenericSend+0xe4>)
  402890:	4798      	blx	r3
  402892:	bf00      	nop
  402894:	e7fd      	b.n	402892 <xQueueGenericSend+0x12>
  402896:	b911      	cbnz	r1, 40289e <xQueueGenericSend+0x1e>
  402898:	6c03      	ldr	r3, [r0, #64]	; 0x40
  40289a:	2b00      	cmp	r3, #0
  40289c:	d15b      	bne.n	402956 <xQueueGenericSend+0xd6>
  40289e:	2600      	movs	r6, #0
  4028a0:	4d31      	ldr	r5, [pc, #196]	; (402968 <xQueueGenericSend+0xe8>)
  4028a2:	47a8      	blx	r5
  4028a4:	6ba2      	ldr	r2, [r4, #56]	; 0x38
  4028a6:	6be3      	ldr	r3, [r4, #60]	; 0x3c
  4028a8:	46a8      	mov	r8, r5
  4028aa:	429a      	cmp	r2, r3
  4028ac:	4d2f      	ldr	r5, [pc, #188]	; (40296c <xQueueGenericSend+0xec>)
  4028ae:	d211      	bcs.n	4028d4 <xQueueGenericSend+0x54>
  4028b0:	4b2f      	ldr	r3, [pc, #188]	; (402970 <xQueueGenericSend+0xf0>)
  4028b2:	4620      	mov	r0, r4
  4028b4:	4639      	mov	r1, r7
  4028b6:	464a      	mov	r2, r9
  4028b8:	4798      	blx	r3
  4028ba:	6a63      	ldr	r3, [r4, #36]	; 0x24
  4028bc:	b13b      	cbz	r3, 4028ce <xQueueGenericSend+0x4e>
  4028be:	f104 0024 	add.w	r0, r4, #36	; 0x24
  4028c2:	4b2c      	ldr	r3, [pc, #176]	; (402974 <xQueueGenericSend+0xf4>)
  4028c4:	4798      	blx	r3
  4028c6:	2801      	cmp	r0, #1
  4028c8:	d101      	bne.n	4028ce <xQueueGenericSend+0x4e>
  4028ca:	4b2b      	ldr	r3, [pc, #172]	; (402978 <xQueueGenericSend+0xf8>)
  4028cc:	4798      	blx	r3
  4028ce:	47a8      	blx	r5
  4028d0:	2001      	movs	r0, #1
  4028d2:	e044      	b.n	40295e <xQueueGenericSend+0xde>
  4028d4:	f8dd a004 	ldr.w	sl, [sp, #4]
  4028d8:	f1ba 0f00 	cmp.w	sl, #0
  4028dc:	d101      	bne.n	4028e2 <xQueueGenericSend+0x62>
  4028de:	47a8      	blx	r5
  4028e0:	e037      	b.n	402952 <xQueueGenericSend+0xd2>
  4028e2:	b916      	cbnz	r6, 4028ea <xQueueGenericSend+0x6a>
  4028e4:	a802      	add	r0, sp, #8
  4028e6:	4b25      	ldr	r3, [pc, #148]	; (40297c <xQueueGenericSend+0xfc>)
  4028e8:	4798      	blx	r3
  4028ea:	47a8      	blx	r5
  4028ec:	4b24      	ldr	r3, [pc, #144]	; (402980 <xQueueGenericSend+0x100>)
  4028ee:	4798      	blx	r3
  4028f0:	47c0      	blx	r8
  4028f2:	6c63      	ldr	r3, [r4, #68]	; 0x44
  4028f4:	4e23      	ldr	r6, [pc, #140]	; (402984 <xQueueGenericSend+0x104>)
  4028f6:	3301      	adds	r3, #1
  4028f8:	bf04      	itt	eq
  4028fa:	2300      	moveq	r3, #0
  4028fc:	6463      	streq	r3, [r4, #68]	; 0x44
  4028fe:	6ca3      	ldr	r3, [r4, #72]	; 0x48
  402900:	3301      	adds	r3, #1
  402902:	bf04      	itt	eq
  402904:	2300      	moveq	r3, #0
  402906:	64a3      	streq	r3, [r4, #72]	; 0x48
  402908:	47a8      	blx	r5
  40290a:	a802      	add	r0, sp, #8
  40290c:	a901      	add	r1, sp, #4
  40290e:	4b1e      	ldr	r3, [pc, #120]	; (402988 <xQueueGenericSend+0x108>)
  402910:	4798      	blx	r3
  402912:	4d1e      	ldr	r5, [pc, #120]	; (40298c <xQueueGenericSend+0x10c>)
  402914:	b9d0      	cbnz	r0, 40294c <xQueueGenericSend+0xcc>
  402916:	47c0      	blx	r8
  402918:	f8d4 a038 	ldr.w	sl, [r4, #56]	; 0x38
  40291c:	f8d4 803c 	ldr.w	r8, [r4, #60]	; 0x3c
  402920:	4b12      	ldr	r3, [pc, #72]	; (40296c <xQueueGenericSend+0xec>)
  402922:	4798      	blx	r3
  402924:	45c2      	cmp	sl, r8
  402926:	d10d      	bne.n	402944 <xQueueGenericSend+0xc4>
  402928:	f104 0010 	add.w	r0, r4, #16
  40292c:	9901      	ldr	r1, [sp, #4]
  40292e:	4b18      	ldr	r3, [pc, #96]	; (402990 <xQueueGenericSend+0x110>)
  402930:	4798      	blx	r3
  402932:	4620      	mov	r0, r4
  402934:	47b0      	blx	r6
  402936:	47a8      	blx	r5
  402938:	b108      	cbz	r0, 40293e <xQueueGenericSend+0xbe>
  40293a:	2601      	movs	r6, #1
  40293c:	e7b0      	b.n	4028a0 <xQueueGenericSend+0x20>
  40293e:	4b0e      	ldr	r3, [pc, #56]	; (402978 <xQueueGenericSend+0xf8>)
  402940:	4798      	blx	r3
  402942:	e7fa      	b.n	40293a <xQueueGenericSend+0xba>
  402944:	4620      	mov	r0, r4
  402946:	47b0      	blx	r6
  402948:	47a8      	blx	r5
  40294a:	e7f6      	b.n	40293a <xQueueGenericSend+0xba>
  40294c:	4620      	mov	r0, r4
  40294e:	47b0      	blx	r6
  402950:	47a8      	blx	r5
  402952:	2000      	movs	r0, #0
  402954:	e003      	b.n	40295e <xQueueGenericSend+0xde>
  402956:	4b03      	ldr	r3, [pc, #12]	; (402964 <xQueueGenericSend+0xe4>)
  402958:	4798      	blx	r3
  40295a:	bf00      	nop
  40295c:	e7fd      	b.n	40295a <xQueueGenericSend+0xda>
  40295e:	b004      	add	sp, #16
  402960:	e8bd 87f0 	ldmia.w	sp!, {r4, r5, r6, r7, r8, r9, sl, pc}
  402964:	00402441 	.word	0x00402441
  402968:	00402451 	.word	0x00402451
  40296c:	00402471 	.word	0x00402471
  402970:	00402691 	.word	0x00402691
  402974:	00403331 	.word	0x00403331
  402978:	00402431 	.word	0x00402431
  40297c:	004033a9 	.word	0x004033a9
  402980:	00402f21 	.word	0x00402f21
  402984:	00402719 	.word	0x00402719
  402988:	004033d1 	.word	0x004033d1
  40298c:	0040304d 	.word	0x0040304d
  402990:	00403291 	.word	0x00403291

00402994 <xQueueCreateMutex>:
  402994:	b570      	push	{r4, r5, r6, lr}
  402996:	4b13      	ldr	r3, [pc, #76]	; (4029e4 <xQueueCreateMutex+0x50>)
  402998:	4606      	mov	r6, r0
  40299a:	2050      	movs	r0, #80	; 0x50
  40299c:	4798      	blx	r3
  40299e:	4604      	mov	r4, r0
  4029a0:	b918      	cbnz	r0, 4029aa <xQueueCreateMutex+0x16>
  4029a2:	4b11      	ldr	r3, [pc, #68]	; (4029e8 <xQueueCreateMutex+0x54>)
  4029a4:	4798      	blx	r3
  4029a6:	bf00      	nop
  4029a8:	e7fd      	b.n	4029a6 <xQueueCreateMutex+0x12>
  4029aa:	2301      	movs	r3, #1
  4029ac:	2500      	movs	r5, #0
  4029ae:	63c3      	str	r3, [r0, #60]	; 0x3c
  4029b0:	f04f 33ff 	mov.w	r3, #4294967295
  4029b4:	6385      	str	r5, [r0, #56]	; 0x38
  4029b6:	6045      	str	r5, [r0, #4]
  4029b8:	6443      	str	r3, [r0, #68]	; 0x44
  4029ba:	6005      	str	r5, [r0, #0]
  4029bc:	6483      	str	r3, [r0, #72]	; 0x48
  4029be:	6085      	str	r5, [r0, #8]
  4029c0:	60c5      	str	r5, [r0, #12]
  4029c2:	6405      	str	r5, [r0, #64]	; 0x40
  4029c4:	f880 604d 	strb.w	r6, [r0, #77]	; 0x4d
  4029c8:	4e08      	ldr	r6, [pc, #32]	; (4029ec <xQueueCreateMutex+0x58>)
  4029ca:	3010      	adds	r0, #16
  4029cc:	47b0      	blx	r6
  4029ce:	f104 0024 	add.w	r0, r4, #36	; 0x24
  4029d2:	47b0      	blx	r6
  4029d4:	4629      	mov	r1, r5
  4029d6:	462a      	mov	r2, r5
  4029d8:	462b      	mov	r3, r5
  4029da:	4620      	mov	r0, r4
  4029dc:	4d04      	ldr	r5, [pc, #16]	; (4029f0 <xQueueCreateMutex+0x5c>)
  4029de:	47a8      	blx	r5
  4029e0:	4620      	mov	r0, r4
  4029e2:	bd70      	pop	{r4, r5, r6, pc}
  4029e4:	0040258d 	.word	0x0040258d
  4029e8:	00402441 	.word	0x00402441
  4029ec:	00402355 	.word	0x00402355
  4029f0:	00402881 	.word	0x00402881

004029f4 <xQueueGenericSendFromISR>:
  4029f4:	e92d 41f0 	stmdb	sp!, {r4, r5, r6, r7, r8, lr}
  4029f8:	4604      	mov	r4, r0
  4029fa:	460e      	mov	r6, r1
  4029fc:	4615      	mov	r5, r2
  4029fe:	4698      	mov	r8, r3
  402a00:	4817      	ldr	r0, [pc, #92]	; (402a60 <xQueueGenericSendFromISR+0x6c>)
  402a02:	b914      	cbnz	r4, 402a0a <xQueueGenericSendFromISR+0x16>
  402a04:	4780      	blx	r0
  402a06:	bf00      	nop
  402a08:	e7fd      	b.n	402a06 <xQueueGenericSendFromISR+0x12>
  402a0a:	b921      	cbnz	r1, 402a16 <xQueueGenericSendFromISR+0x22>
  402a0c:	6c21      	ldr	r1, [r4, #64]	; 0x40
  402a0e:	b111      	cbz	r1, 402a16 <xQueueGenericSendFromISR+0x22>
  402a10:	4780      	blx	r0
  402a12:	bf00      	nop
  402a14:	e7fd      	b.n	402a12 <xQueueGenericSendFromISR+0x1e>
  402a16:	4780      	blx	r0
  402a18:	6ba3      	ldr	r3, [r4, #56]	; 0x38
  402a1a:	6be1      	ldr	r1, [r4, #60]	; 0x3c
  402a1c:	4607      	mov	r7, r0
  402a1e:	428b      	cmp	r3, r1
  402a20:	d217      	bcs.n	402a52 <xQueueGenericSendFromISR+0x5e>
  402a22:	4b10      	ldr	r3, [pc, #64]	; (402a64 <xQueueGenericSendFromISR+0x70>)
  402a24:	4620      	mov	r0, r4
  402a26:	4631      	mov	r1, r6
  402a28:	4642      	mov	r2, r8
  402a2a:	4798      	blx	r3
  402a2c:	6ca3      	ldr	r3, [r4, #72]	; 0x48
  402a2e:	3301      	adds	r3, #1
  402a30:	d10a      	bne.n	402a48 <xQueueGenericSendFromISR+0x54>
  402a32:	6a63      	ldr	r3, [r4, #36]	; 0x24
  402a34:	b15b      	cbz	r3, 402a4e <xQueueGenericSendFromISR+0x5a>
  402a36:	f104 0024 	add.w	r0, r4, #36	; 0x24
  402a3a:	4b0b      	ldr	r3, [pc, #44]	; (402a68 <xQueueGenericSendFromISR+0x74>)
  402a3c:	4798      	blx	r3
  402a3e:	b130      	cbz	r0, 402a4e <xQueueGenericSendFromISR+0x5a>
  402a40:	b12d      	cbz	r5, 402a4e <xQueueGenericSendFromISR+0x5a>
  402a42:	2401      	movs	r4, #1
  402a44:	602c      	str	r4, [r5, #0]
  402a46:	e005      	b.n	402a54 <xQueueGenericSendFromISR+0x60>
  402a48:	6ca3      	ldr	r3, [r4, #72]	; 0x48
  402a4a:	3301      	adds	r3, #1
  402a4c:	64a3      	str	r3, [r4, #72]	; 0x48
  402a4e:	2401      	movs	r4, #1
  402a50:	e000      	b.n	402a54 <xQueueGenericSendFromISR+0x60>
  402a52:	2400      	movs	r4, #0
  402a54:	4638      	mov	r0, r7
  402a56:	4b05      	ldr	r3, [pc, #20]	; (402a6c <xQueueGenericSendFromISR+0x78>)
  402a58:	4798      	blx	r3
  402a5a:	4620      	mov	r0, r4
  402a5c:	e8bd 81f0 	ldmia.w	sp!, {r4, r5, r6, r7, r8, pc}
  402a60:	00402441 	.word	0x00402441
  402a64:	00402691 	.word	0x00402691
  402a68:	00403331 	.word	0x00403331
  402a6c:	00402469 	.word	0x00402469

00402a70 <xQueueGenericReceive>:
  402a70:	e92d 47ff 	stmdb	sp!, {r0, r1, r2, r3, r4, r5, r6, r7, r8, r9, sl, lr}
  402a74:	460f      	mov	r7, r1
  402a76:	9201      	str	r2, [sp, #4]
  402a78:	469a      	mov	sl, r3
  402a7a:	4604      	mov	r4, r0
  402a7c:	b918      	cbnz	r0, 402a86 <xQueueGenericReceive+0x16>
  402a7e:	4b43      	ldr	r3, [pc, #268]	; (402b8c <xQueueGenericReceive+0x11c>)
  402a80:	4798      	blx	r3
  402a82:	bf00      	nop
  402a84:	e7fd      	b.n	402a82 <xQueueGenericReceive+0x12>
  402a86:	b911      	cbnz	r1, 402a8e <xQueueGenericReceive+0x1e>
  402a88:	6c03      	ldr	r3, [r0, #64]	; 0x40
  402a8a:	2b00      	cmp	r3, #0
  402a8c:	d176      	bne.n	402b7c <xQueueGenericReceive+0x10c>
  402a8e:	2600      	movs	r6, #0
  402a90:	4d3f      	ldr	r5, [pc, #252]	; (402b90 <xQueueGenericReceive+0x120>)
  402a92:	47a8      	blx	r5
  402a94:	6ba3      	ldr	r3, [r4, #56]	; 0x38
  402a96:	46a9      	mov	r9, r5
  402a98:	4d3e      	ldr	r5, [pc, #248]	; (402b94 <xQueueGenericReceive+0x124>)
  402a9a:	b333      	cbz	r3, 402aea <xQueueGenericReceive+0x7a>
  402a9c:	4620      	mov	r0, r4
  402a9e:	4639      	mov	r1, r7
  402aa0:	4b3d      	ldr	r3, [pc, #244]	; (402b98 <xQueueGenericReceive+0x128>)
  402aa2:	68e6      	ldr	r6, [r4, #12]
  402aa4:	4798      	blx	r3
  402aa6:	f1ba 0f00 	cmp.w	sl, #0
  402aaa:	d112      	bne.n	402ad2 <xQueueGenericReceive+0x62>
  402aac:	6ba3      	ldr	r3, [r4, #56]	; 0x38
  402aae:	3b01      	subs	r3, #1
  402ab0:	63a3      	str	r3, [r4, #56]	; 0x38
  402ab2:	6823      	ldr	r3, [r4, #0]
  402ab4:	b913      	cbnz	r3, 402abc <xQueueGenericReceive+0x4c>
  402ab6:	4b39      	ldr	r3, [pc, #228]	; (402b9c <xQueueGenericReceive+0x12c>)
  402ab8:	4798      	blx	r3
  402aba:	6060      	str	r0, [r4, #4]
  402abc:	6923      	ldr	r3, [r4, #16]
  402abe:	b18b      	cbz	r3, 402ae4 <xQueueGenericReceive+0x74>
  402ac0:	f104 0010 	add.w	r0, r4, #16
  402ac4:	4b36      	ldr	r3, [pc, #216]	; (402ba0 <xQueueGenericReceive+0x130>)
  402ac6:	4798      	blx	r3
  402ac8:	2801      	cmp	r0, #1
  402aca:	d10b      	bne.n	402ae4 <xQueueGenericReceive+0x74>
  402acc:	4b35      	ldr	r3, [pc, #212]	; (402ba4 <xQueueGenericReceive+0x134>)
  402ace:	4798      	blx	r3
  402ad0:	e008      	b.n	402ae4 <xQueueGenericReceive+0x74>
  402ad2:	6a63      	ldr	r3, [r4, #36]	; 0x24
  402ad4:	60e6      	str	r6, [r4, #12]
  402ad6:	b12b      	cbz	r3, 402ae4 <xQueueGenericReceive+0x74>
  402ad8:	f104 0024 	add.w	r0, r4, #36	; 0x24
  402adc:	4b30      	ldr	r3, [pc, #192]	; (402ba0 <xQueueGenericReceive+0x130>)
  402ade:	4798      	blx	r3
  402ae0:	2800      	cmp	r0, #0
  402ae2:	d1f3      	bne.n	402acc <xQueueGenericReceive+0x5c>
  402ae4:	47a8      	blx	r5
  402ae6:	2001      	movs	r0, #1
  402ae8:	e04c      	b.n	402b84 <xQueueGenericReceive+0x114>
  402aea:	f8dd 8004 	ldr.w	r8, [sp, #4]
  402aee:	f1b8 0f00 	cmp.w	r8, #0
  402af2:	d101      	bne.n	402af8 <xQueueGenericReceive+0x88>
  402af4:	47a8      	blx	r5
  402af6:	e03f      	b.n	402b78 <xQueueGenericReceive+0x108>
  402af8:	b916      	cbnz	r6, 402b00 <xQueueGenericReceive+0x90>
  402afa:	a802      	add	r0, sp, #8
  402afc:	4b2a      	ldr	r3, [pc, #168]	; (402ba8 <xQueueGenericReceive+0x138>)
  402afe:	4798      	blx	r3
  402b00:	47a8      	blx	r5
  402b02:	4b2a      	ldr	r3, [pc, #168]	; (402bac <xQueueGenericReceive+0x13c>)
  402b04:	4798      	blx	r3
  402b06:	47c8      	blx	r9
  402b08:	6c63      	ldr	r3, [r4, #68]	; 0x44
  402b0a:	f8df 8088 	ldr.w	r8, [pc, #136]	; 402b94 <xQueueGenericReceive+0x124>
  402b0e:	3301      	adds	r3, #1
  402b10:	bf04      	itt	eq
  402b12:	2300      	moveq	r3, #0
  402b14:	6463      	streq	r3, [r4, #68]	; 0x44
  402b16:	6ca3      	ldr	r3, [r4, #72]	; 0x48
  402b18:	4e25      	ldr	r6, [pc, #148]	; (402bb0 <xQueueGenericReceive+0x140>)
  402b1a:	3301      	adds	r3, #1
  402b1c:	bf04      	itt	eq
  402b1e:	2300      	moveq	r3, #0
  402b20:	64a3      	streq	r3, [r4, #72]	; 0x48
  402b22:	47a8      	blx	r5
  402b24:	a802      	add	r0, sp, #8
  402b26:	a901      	add	r1, sp, #4
  402b28:	4b22      	ldr	r3, [pc, #136]	; (402bb4 <xQueueGenericReceive+0x144>)
  402b2a:	4798      	blx	r3
  402b2c:	4d22      	ldr	r5, [pc, #136]	; (402bb8 <xQueueGenericReceive+0x148>)
  402b2e:	bb00      	cbnz	r0, 402b72 <xQueueGenericReceive+0x102>
  402b30:	47c8      	blx	r9
  402b32:	f8d4 9038 	ldr.w	r9, [r4, #56]	; 0x38
  402b36:	47c0      	blx	r8
  402b38:	f1b9 0f00 	cmp.w	r9, #0
  402b3c:	d115      	bne.n	402b6a <xQueueGenericReceive+0xfa>
  402b3e:	6823      	ldr	r3, [r4, #0]
  402b40:	b92b      	cbnz	r3, 402b4e <xQueueGenericReceive+0xde>
  402b42:	4b13      	ldr	r3, [pc, #76]	; (402b90 <xQueueGenericReceive+0x120>)
  402b44:	4798      	blx	r3
  402b46:	6860      	ldr	r0, [r4, #4]
  402b48:	4b1c      	ldr	r3, [pc, #112]	; (402bbc <xQueueGenericReceive+0x14c>)
  402b4a:	4798      	blx	r3
  402b4c:	47c0      	blx	r8
  402b4e:	f104 0024 	add.w	r0, r4, #36	; 0x24
  402b52:	9901      	ldr	r1, [sp, #4]
  402b54:	4b1a      	ldr	r3, [pc, #104]	; (402bc0 <xQueueGenericReceive+0x150>)
  402b56:	4798      	blx	r3
  402b58:	4620      	mov	r0, r4
  402b5a:	47b0      	blx	r6
  402b5c:	47a8      	blx	r5
  402b5e:	b108      	cbz	r0, 402b64 <xQueueGenericReceive+0xf4>
  402b60:	2601      	movs	r6, #1
  402b62:	e795      	b.n	402a90 <xQueueGenericReceive+0x20>
  402b64:	4b0f      	ldr	r3, [pc, #60]	; (402ba4 <xQueueGenericReceive+0x134>)
  402b66:	4798      	blx	r3
  402b68:	e7fa      	b.n	402b60 <xQueueGenericReceive+0xf0>
  402b6a:	4620      	mov	r0, r4
  402b6c:	47b0      	blx	r6
  402b6e:	47a8      	blx	r5
  402b70:	e7f6      	b.n	402b60 <xQueueGenericReceive+0xf0>
  402b72:	4620      	mov	r0, r4
  402b74:	47b0      	blx	r6
  402b76:	47a8      	blx	r5
  402b78:	2000      	movs	r0, #0
  402b7a:	e003      	b.n	402b84 <xQueueGenericReceive+0x114>
  402b7c:	4b03      	ldr	r3, [pc, #12]	; (402b8c <xQueueGenericReceive+0x11c>)
  402b7e:	4798      	blx	r3
  402b80:	bf00      	nop
  402b82:	e7fd      	b.n	402b80 <xQueueGenericReceive+0x110>
  402b84:	b004      	add	sp, #16
  402b86:	e8bd 87f0 	ldmia.w	sp!, {r4, r5, r6, r7, r8, r9, sl, pc}
  402b8a:	bf00      	nop
  402b8c:	00402441 	.word	0x00402441
  402b90:	00402451 	.word	0x00402451
  402b94:	00402471 	.word	0x00402471
  402b98:	004026f1 	.word	0x004026f1
  402b9c:	00403455 	.word	0x00403455
  402ba0:	00403331 	.word	0x00403331
  402ba4:	00402431 	.word	0x00402431
  402ba8:	004033a9 	.word	0x004033a9
  402bac:	00402f21 	.word	0x00402f21
  402bb0:	00402719 	.word	0x00402719
  402bb4:	004033d1 	.word	0x004033d1
  402bb8:	0040304d 	.word	0x0040304d
  402bbc:	0040347d 	.word	0x0040347d
  402bc0:	00403291 	.word	0x00403291

00402bc4 <vQueueWaitForMessageRestricted>:
  402bc4:	b538      	push	{r3, r4, r5, lr}
  402bc6:	4604      	mov	r4, r0
  402bc8:	4b0c      	ldr	r3, [pc, #48]	; (402bfc <vQueueWaitForMessageRestricted+0x38>)
  402bca:	460d      	mov	r5, r1
  402bcc:	4798      	blx	r3
  402bce:	6c63      	ldr	r3, [r4, #68]	; 0x44
  402bd0:	3301      	adds	r3, #1
  402bd2:	bf04      	itt	eq
  402bd4:	2300      	moveq	r3, #0
  402bd6:	6463      	streq	r3, [r4, #68]	; 0x44
  402bd8:	6ca3      	ldr	r3, [r4, #72]	; 0x48
  402bda:	3301      	adds	r3, #1
  402bdc:	bf04      	itt	eq
  402bde:	2300      	moveq	r3, #0
  402be0:	64a3      	streq	r3, [r4, #72]	; 0x48
  402be2:	4b07      	ldr	r3, [pc, #28]	; (402c00 <vQueueWaitForMessageRestricted+0x3c>)
  402be4:	4798      	blx	r3
  402be6:	6ba3      	ldr	r3, [r4, #56]	; 0x38
  402be8:	b923      	cbnz	r3, 402bf4 <vQueueWaitForMessageRestricted+0x30>
  402bea:	f104 0024 	add.w	r0, r4, #36	; 0x24
  402bee:	4629      	mov	r1, r5
  402bf0:	4b04      	ldr	r3, [pc, #16]	; (402c04 <vQueueWaitForMessageRestricted+0x40>)
  402bf2:	4798      	blx	r3
  402bf4:	4620      	mov	r0, r4
  402bf6:	4b04      	ldr	r3, [pc, #16]	; (402c08 <vQueueWaitForMessageRestricted+0x44>)
  402bf8:	4798      	blx	r3
  402bfa:	bd38      	pop	{r3, r4, r5, pc}
  402bfc:	00402451 	.word	0x00402451
  402c00:	00402471 	.word	0x00402471
  402c04:	004032ed 	.word	0x004032ed
  402c08:	00402719 	.word	0x00402719

00402c0c <prvAddCurrentTaskToDelayedList>:
  402c0c:	b510      	push	{r4, lr}
  402c0e:	4b0d      	ldr	r3, [pc, #52]	; (402c44 <prvAddCurrentTaskToDelayedList+0x38>)
  402c10:	4604      	mov	r4, r0
  402c12:	681a      	ldr	r2, [r3, #0]
  402c14:	6050      	str	r0, [r2, #4]
  402c16:	4a0c      	ldr	r2, [pc, #48]	; (402c48 <prvAddCurrentTaskToDelayedList+0x3c>)
  402c18:	6812      	ldr	r2, [r2, #0]
  402c1a:	4290      	cmp	r0, r2
  402c1c:	4a0b      	ldr	r2, [pc, #44]	; (402c4c <prvAddCurrentTaskToDelayedList+0x40>)
  402c1e:	d205      	bcs.n	402c2c <prvAddCurrentTaskToDelayedList+0x20>
  402c20:	490b      	ldr	r1, [pc, #44]	; (402c50 <prvAddCurrentTaskToDelayedList+0x44>)
  402c22:	6808      	ldr	r0, [r1, #0]
  402c24:	6819      	ldr	r1, [r3, #0]
  402c26:	3104      	adds	r1, #4
  402c28:	4790      	blx	r2
  402c2a:	bd10      	pop	{r4, pc}
  402c2c:	4909      	ldr	r1, [pc, #36]	; (402c54 <prvAddCurrentTaskToDelayedList+0x48>)
  402c2e:	6808      	ldr	r0, [r1, #0]
  402c30:	6819      	ldr	r1, [r3, #0]
  402c32:	3104      	adds	r1, #4
  402c34:	4790      	blx	r2
  402c36:	4b08      	ldr	r3, [pc, #32]	; (402c58 <prvAddCurrentTaskToDelayedList+0x4c>)
  402c38:	681a      	ldr	r2, [r3, #0]
  402c3a:	4294      	cmp	r4, r2
  402c3c:	bf38      	it	cc
  402c3e:	601c      	strcc	r4, [r3, #0]
  402c40:	bd10      	pop	{r4, pc}
  402c42:	bf00      	nop
  402c44:	20003d70 	.word	0x20003d70
  402c48:	20003cec 	.word	0x20003cec
  402c4c:	0040238d 	.word	0x0040238d
  402c50:	20003d8c 	.word	0x20003d8c
  402c54:	20003ccc 	.word	0x20003ccc
  402c58:	200000d4 	.word	0x200000d4

00402c5c <xTaskGenericCreate>:
  402c5c:	e92d 4ff8 	stmdb	sp!, {r3, r4, r5, r6, r7, r8, r9, sl, fp, lr}
  402c60:	9d0a      	ldr	r5, [sp, #40]	; 0x28
  402c62:	4689      	mov	r9, r1
  402c64:	4690      	mov	r8, r2
  402c66:	469a      	mov	sl, r3
  402c68:	f8dd b030 	ldr.w	fp, [sp, #48]	; 0x30
  402c6c:	4607      	mov	r7, r0
  402c6e:	b918      	cbnz	r0, 402c78 <xTaskGenericCreate+0x1c>
  402c70:	4b57      	ldr	r3, [pc, #348]	; (402dd0 <xTaskGenericCreate+0x174>)
  402c72:	4798      	blx	r3
  402c74:	bf00      	nop
  402c76:	e7fd      	b.n	402c74 <xTaskGenericCreate+0x18>
  402c78:	2d05      	cmp	r5, #5
  402c7a:	d903      	bls.n	402c84 <xTaskGenericCreate+0x28>
  402c7c:	4b54      	ldr	r3, [pc, #336]	; (402dd0 <xTaskGenericCreate+0x174>)
  402c7e:	4798      	blx	r3
  402c80:	bf00      	nop
  402c82:	e7fd      	b.n	402c80 <xTaskGenericCreate+0x24>
  402c84:	204c      	movs	r0, #76	; 0x4c
  402c86:	4e53      	ldr	r6, [pc, #332]	; (402dd4 <xTaskGenericCreate+0x178>)
  402c88:	47b0      	blx	r6
  402c8a:	4604      	mov	r4, r0
  402c8c:	2800      	cmp	r0, #0
  402c8e:	f000 809b 	beq.w	402dc8 <xTaskGenericCreate+0x16c>
  402c92:	4658      	mov	r0, fp
  402c94:	f1bb 0f00 	cmp.w	fp, #0
  402c98:	d102      	bne.n	402ca0 <xTaskGenericCreate+0x44>
  402c9a:	ea4f 0088 	mov.w	r0, r8, lsl #2
  402c9e:	47b0      	blx	r6
  402ca0:	6320      	str	r0, [r4, #48]	; 0x30
  402ca2:	b918      	cbnz	r0, 402cac <xTaskGenericCreate+0x50>
  402ca4:	4620      	mov	r0, r4
  402ca6:	4b4c      	ldr	r3, [pc, #304]	; (402dd8 <xTaskGenericCreate+0x17c>)
  402ca8:	4798      	blx	r3
  402caa:	e08d      	b.n	402dc8 <xTaskGenericCreate+0x16c>
  402cac:	ea4f 0888 	mov.w	r8, r8, lsl #2
  402cb0:	4642      	mov	r2, r8
  402cb2:	21a5      	movs	r1, #165	; 0xa5
  402cb4:	4b49      	ldr	r3, [pc, #292]	; (402ddc <xTaskGenericCreate+0x180>)
  402cb6:	4798      	blx	r3
  402cb8:	6b23      	ldr	r3, [r4, #48]	; 0x30
  402cba:	f1a8 0804 	sub.w	r8, r8, #4
  402cbe:	4649      	mov	r1, r9
  402cc0:	220a      	movs	r2, #10
  402cc2:	4498      	add	r8, r3
  402cc4:	f104 0034 	add.w	r0, r4, #52	; 0x34
  402cc8:	4b45      	ldr	r3, [pc, #276]	; (402de0 <xTaskGenericCreate+0x184>)
  402cca:	4798      	blx	r3
  402ccc:	f104 0904 	add.w	r9, r4, #4
  402cd0:	2300      	movs	r3, #0
  402cd2:	f884 303d 	strb.w	r3, [r4, #61]	; 0x3d
  402cd6:	4648      	mov	r0, r9
  402cd8:	f8df b14c 	ldr.w	fp, [pc, #332]	; 402e28 <xTaskGenericCreate+0x1cc>
  402cdc:	62e5      	str	r5, [r4, #44]	; 0x2c
  402cde:	64a5      	str	r5, [r4, #72]	; 0x48
  402ce0:	47d8      	blx	fp
  402ce2:	f104 0018 	add.w	r0, r4, #24
  402ce6:	47d8      	blx	fp
  402ce8:	f028 0807 	bic.w	r8, r8, #7
  402cec:	f1c5 0306 	rsb	r3, r5, #6
  402cf0:	61a3      	str	r3, [r4, #24]
  402cf2:	6124      	str	r4, [r4, #16]
  402cf4:	4b3b      	ldr	r3, [pc, #236]	; (402de4 <xTaskGenericCreate+0x188>)
  402cf6:	6264      	str	r4, [r4, #36]	; 0x24
  402cf8:	4640      	mov	r0, r8
  402cfa:	4639      	mov	r1, r7
  402cfc:	4652      	mov	r2, sl
  402cfe:	4798      	blx	r3
  402d00:	0743      	lsls	r3, r0, #29
  402d02:	6020      	str	r0, [r4, #0]
  402d04:	d003      	beq.n	402d0e <xTaskGenericCreate+0xb2>
  402d06:	4b32      	ldr	r3, [pc, #200]	; (402dd0 <xTaskGenericCreate+0x174>)
  402d08:	4798      	blx	r3
  402d0a:	bf00      	nop
  402d0c:	e7fd      	b.n	402d0a <xTaskGenericCreate+0xae>
  402d0e:	9b0b      	ldr	r3, [sp, #44]	; 0x2c
  402d10:	b103      	cbz	r3, 402d14 <xTaskGenericCreate+0xb8>
  402d12:	601c      	str	r4, [r3, #0]
  402d14:	4b34      	ldr	r3, [pc, #208]	; (402de8 <xTaskGenericCreate+0x18c>)
  402d16:	4798      	blx	r3
  402d18:	4b34      	ldr	r3, [pc, #208]	; (402dec <xTaskGenericCreate+0x190>)
  402d1a:	4f35      	ldr	r7, [pc, #212]	; (402df0 <xTaskGenericCreate+0x194>)
  402d1c:	681a      	ldr	r2, [r3, #0]
  402d1e:	f8df a10c 	ldr.w	sl, [pc, #268]	; 402e2c <xTaskGenericCreate+0x1d0>
  402d22:	3201      	adds	r2, #1
  402d24:	601a      	str	r2, [r3, #0]
  402d26:	683a      	ldr	r2, [r7, #0]
  402d28:	bb12      	cbnz	r2, 402d70 <xTaskGenericCreate+0x114>
  402d2a:	603c      	str	r4, [r7, #0]
  402d2c:	681b      	ldr	r3, [r3, #0]
  402d2e:	2b01      	cmp	r3, #1
  402d30:	d126      	bne.n	402d80 <xTaskGenericCreate+0x124>
  402d32:	4690      	mov	r8, r2
  402d34:	eb0a 0008 	add.w	r0, sl, r8
  402d38:	4e2e      	ldr	r6, [pc, #184]	; (402df4 <xTaskGenericCreate+0x198>)
  402d3a:	f108 0814 	add.w	r8, r8, #20
  402d3e:	47b0      	blx	r6
  402d40:	f1b8 0f78 	cmp.w	r8, #120	; 0x78
  402d44:	d1f6      	bne.n	402d34 <xTaskGenericCreate+0xd8>
  402d46:	f8df b0e8 	ldr.w	fp, [pc, #232]	; 402e30 <xTaskGenericCreate+0x1d4>
  402d4a:	f8df 80e8 	ldr.w	r8, [pc, #232]	; 402e34 <xTaskGenericCreate+0x1d8>
  402d4e:	4658      	mov	r0, fp
  402d50:	47b0      	blx	r6
  402d52:	4640      	mov	r0, r8
  402d54:	47b0      	blx	r6
  402d56:	4828      	ldr	r0, [pc, #160]	; (402df8 <xTaskGenericCreate+0x19c>)
  402d58:	47b0      	blx	r6
  402d5a:	4828      	ldr	r0, [pc, #160]	; (402dfc <xTaskGenericCreate+0x1a0>)
  402d5c:	47b0      	blx	r6
  402d5e:	4828      	ldr	r0, [pc, #160]	; (402e00 <xTaskGenericCreate+0x1a4>)
  402d60:	47b0      	blx	r6
  402d62:	4b28      	ldr	r3, [pc, #160]	; (402e04 <xTaskGenericCreate+0x1a8>)
  402d64:	f8c3 b000 	str.w	fp, [r3]
  402d68:	4b27      	ldr	r3, [pc, #156]	; (402e08 <xTaskGenericCreate+0x1ac>)
  402d6a:	f8c3 8000 	str.w	r8, [r3]
  402d6e:	e007      	b.n	402d80 <xTaskGenericCreate+0x124>
  402d70:	4b26      	ldr	r3, [pc, #152]	; (402e0c <xTaskGenericCreate+0x1b0>)
  402d72:	681b      	ldr	r3, [r3, #0]
  402d74:	b923      	cbnz	r3, 402d80 <xTaskGenericCreate+0x124>
  402d76:	683b      	ldr	r3, [r7, #0]
  402d78:	6adb      	ldr	r3, [r3, #44]	; 0x2c
  402d7a:	42ab      	cmp	r3, r5
  402d7c:	bf98      	it	ls
  402d7e:	603c      	strls	r4, [r7, #0]
  402d80:	4a23      	ldr	r2, [pc, #140]	; (402e10 <xTaskGenericCreate+0x1b4>)
  402d82:	6ae3      	ldr	r3, [r4, #44]	; 0x2c
  402d84:	6811      	ldr	r1, [r2, #0]
  402d86:	2014      	movs	r0, #20
  402d88:	428b      	cmp	r3, r1
  402d8a:	bf88      	it	hi
  402d8c:	6013      	strhi	r3, [r2, #0]
  402d8e:	4a21      	ldr	r2, [pc, #132]	; (402e14 <xTaskGenericCreate+0x1b8>)
  402d90:	fb00 a003 	mla	r0, r0, r3, sl
  402d94:	6811      	ldr	r1, [r2, #0]
  402d96:	6421      	str	r1, [r4, #64]	; 0x40
  402d98:	3101      	adds	r1, #1
  402d9a:	6011      	str	r1, [r2, #0]
  402d9c:	4a1e      	ldr	r2, [pc, #120]	; (402e18 <xTaskGenericCreate+0x1bc>)
  402d9e:	6811      	ldr	r1, [r2, #0]
  402da0:	428b      	cmp	r3, r1
  402da2:	bf88      	it	hi
  402da4:	6013      	strhi	r3, [r2, #0]
  402da6:	4649      	mov	r1, r9
  402da8:	4b1c      	ldr	r3, [pc, #112]	; (402e1c <xTaskGenericCreate+0x1c0>)
  402daa:	4798      	blx	r3
  402dac:	4b1c      	ldr	r3, [pc, #112]	; (402e20 <xTaskGenericCreate+0x1c4>)
  402dae:	4798      	blx	r3
  402db0:	4b16      	ldr	r3, [pc, #88]	; (402e0c <xTaskGenericCreate+0x1b0>)
  402db2:	681b      	ldr	r3, [r3, #0]
  402db4:	b12b      	cbz	r3, 402dc2 <xTaskGenericCreate+0x166>
  402db6:	683b      	ldr	r3, [r7, #0]
  402db8:	6adb      	ldr	r3, [r3, #44]	; 0x2c
  402dba:	42ab      	cmp	r3, r5
  402dbc:	d201      	bcs.n	402dc2 <xTaskGenericCreate+0x166>
  402dbe:	4b19      	ldr	r3, [pc, #100]	; (402e24 <xTaskGenericCreate+0x1c8>)
  402dc0:	4798      	blx	r3
  402dc2:	2001      	movs	r0, #1
  402dc4:	e8bd 8ff8 	ldmia.w	sp!, {r3, r4, r5, r6, r7, r8, r9, sl, fp, pc}
  402dc8:	f04f 30ff 	mov.w	r0, #4294967295
  402dcc:	e8bd 8ff8 	ldmia.w	sp!, {r3, r4, r5, r6, r7, r8, r9, sl, fp, pc}
  402dd0:	00402441 	.word	0x00402441
  402dd4:	0040258d 	.word	0x0040258d
  402dd8:	00402651 	.word	0x00402651
  402ddc:	00406561 	.word	0x00406561
  402de0:	00406b9d 	.word	0x00406b9d
  402de4:	004023f9 	.word	0x004023f9
  402de8:	00402451 	.word	0x00402451
  402dec:	20003dc0 	.word	0x20003dc0
  402df0:	20003d70 	.word	0x20003d70
  402df4:	00402355 	.word	0x00402355
  402df8:	20003d74 	.word	0x20003d74
  402dfc:	20003cd8 	.word	0x20003cd8
  402e00:	20003cb8 	.word	0x20003cb8
  402e04:	20003ccc 	.word	0x20003ccc
  402e08:	20003d8c 	.word	0x20003d8c
  402e0c:	20003cd0 	.word	0x20003cd0
  402e10:	20003dc4 	.word	0x20003dc4
  402e14:	20003da4 	.word	0x20003da4
  402e18:	20003cf0 	.word	0x20003cf0
  402e1c:	00402371 	.word	0x00402371
  402e20:	00402471 	.word	0x00402471
  402e24:	00402431 	.word	0x00402431
  402e28:	0040236b 	.word	0x0040236b
  402e2c:	20003cf4 	.word	0x20003cf4
  402e30:	20003da8 	.word	0x20003da8
  402e34:	20003d90 	.word	0x20003d90

00402e38 <vTaskDelete>:
  402e38:	b5f8      	push	{r3, r4, r5, r6, r7, lr}
  402e3a:	4b14      	ldr	r3, [pc, #80]	; (402e8c <vTaskDelete+0x54>)
  402e3c:	4604      	mov	r4, r0
  402e3e:	4798      	blx	r3
  402e40:	4b13      	ldr	r3, [pc, #76]	; (402e90 <vTaskDelete+0x58>)
  402e42:	681a      	ldr	r2, [r3, #0]
  402e44:	4294      	cmp	r4, r2
  402e46:	d001      	beq.n	402e4c <vTaskDelete+0x14>
  402e48:	4625      	mov	r5, r4
  402e4a:	b90c      	cbnz	r4, 402e50 <vTaskDelete+0x18>
  402e4c:	681d      	ldr	r5, [r3, #0]
  402e4e:	2400      	movs	r4, #0
  402e50:	1d2e      	adds	r6, r5, #4
  402e52:	4630      	mov	r0, r6
  402e54:	4f0f      	ldr	r7, [pc, #60]	; (402e94 <vTaskDelete+0x5c>)
  402e56:	47b8      	blx	r7
  402e58:	6aab      	ldr	r3, [r5, #40]	; 0x28
  402e5a:	b113      	cbz	r3, 402e62 <vTaskDelete+0x2a>
  402e5c:	f105 0018 	add.w	r0, r5, #24
  402e60:	47b8      	blx	r7
  402e62:	480d      	ldr	r0, [pc, #52]	; (402e98 <vTaskDelete+0x60>)
  402e64:	4631      	mov	r1, r6
  402e66:	4b0d      	ldr	r3, [pc, #52]	; (402e9c <vTaskDelete+0x64>)
  402e68:	4798      	blx	r3
  402e6a:	4b0d      	ldr	r3, [pc, #52]	; (402ea0 <vTaskDelete+0x68>)
  402e6c:	681a      	ldr	r2, [r3, #0]
  402e6e:	3201      	adds	r2, #1
  402e70:	601a      	str	r2, [r3, #0]
  402e72:	4b0c      	ldr	r3, [pc, #48]	; (402ea4 <vTaskDelete+0x6c>)
  402e74:	681a      	ldr	r2, [r3, #0]
  402e76:	3201      	adds	r2, #1
  402e78:	601a      	str	r2, [r3, #0]
  402e7a:	4b0b      	ldr	r3, [pc, #44]	; (402ea8 <vTaskDelete+0x70>)
  402e7c:	4798      	blx	r3
  402e7e:	4b0b      	ldr	r3, [pc, #44]	; (402eac <vTaskDelete+0x74>)
  402e80:	681b      	ldr	r3, [r3, #0]
  402e82:	b113      	cbz	r3, 402e8a <vTaskDelete+0x52>
  402e84:	b90c      	cbnz	r4, 402e8a <vTaskDelete+0x52>
  402e86:	4b0a      	ldr	r3, [pc, #40]	; (402eb0 <vTaskDelete+0x78>)
  402e88:	4798      	blx	r3
  402e8a:	bdf8      	pop	{r3, r4, r5, r6, r7, pc}
  402e8c:	00402451 	.word	0x00402451
  402e90:	20003d70 	.word	0x20003d70
  402e94:	004023bd 	.word	0x004023bd
  402e98:	20003cd8 	.word	0x20003cd8
  402e9c:	00402371 	.word	0x00402371
  402ea0:	20003cd4 	.word	0x20003cd4
  402ea4:	20003da4 	.word	0x20003da4
  402ea8:	00402471 	.word	0x00402471
  402eac:	20003cd0 	.word	0x20003cd0
  402eb0:	00402431 	.word	0x00402431

00402eb4 <vTaskStartScheduler>:
  402eb4:	b530      	push	{r4, r5, lr}
  402eb6:	2400      	movs	r4, #0
  402eb8:	b085      	sub	sp, #20
  402eba:	4d11      	ldr	r5, [pc, #68]	; (402f00 <vTaskStartScheduler+0x4c>)
  402ebc:	9400      	str	r4, [sp, #0]
  402ebe:	9401      	str	r4, [sp, #4]
  402ec0:	9402      	str	r4, [sp, #8]
  402ec2:	9403      	str	r4, [sp, #12]
  402ec4:	480f      	ldr	r0, [pc, #60]	; (402f04 <vTaskStartScheduler+0x50>)
  402ec6:	4910      	ldr	r1, [pc, #64]	; (402f08 <vTaskStartScheduler+0x54>)
  402ec8:	2246      	movs	r2, #70	; 0x46
  402eca:	4623      	mov	r3, r4
  402ecc:	47a8      	blx	r5
  402ece:	2801      	cmp	r0, #1
  402ed0:	4605      	mov	r5, r0
  402ed2:	d10d      	bne.n	402ef0 <vTaskStartScheduler+0x3c>
  402ed4:	4b0d      	ldr	r3, [pc, #52]	; (402f0c <vTaskStartScheduler+0x58>)
  402ed6:	4798      	blx	r3
  402ed8:	2801      	cmp	r0, #1
  402eda:	4605      	mov	r5, r0
  402edc:	d108      	bne.n	402ef0 <vTaskStartScheduler+0x3c>
  402ede:	4b0c      	ldr	r3, [pc, #48]	; (402f10 <vTaskStartScheduler+0x5c>)
  402ee0:	4798      	blx	r3
  402ee2:	4b0c      	ldr	r3, [pc, #48]	; (402f14 <vTaskStartScheduler+0x60>)
  402ee4:	601d      	str	r5, [r3, #0]
  402ee6:	4b0c      	ldr	r3, [pc, #48]	; (402f18 <vTaskStartScheduler+0x64>)
  402ee8:	601c      	str	r4, [r3, #0]
  402eea:	4b0c      	ldr	r3, [pc, #48]	; (402f1c <vTaskStartScheduler+0x68>)
  402eec:	4798      	blx	r3
  402eee:	e004      	b.n	402efa <vTaskStartScheduler+0x46>
  402ef0:	b91d      	cbnz	r5, 402efa <vTaskStartScheduler+0x46>
  402ef2:	4b07      	ldr	r3, [pc, #28]	; (402f10 <vTaskStartScheduler+0x5c>)
  402ef4:	4798      	blx	r3
  402ef6:	bf00      	nop
  402ef8:	e7fd      	b.n	402ef6 <vTaskStartScheduler+0x42>
  402efa:	b005      	add	sp, #20
  402efc:	bd30      	pop	{r4, r5, pc}
  402efe:	bf00      	nop
  402f00:	00402c5d 	.word	0x00402c5d
  402f04:	00403181 	.word	0x00403181
  402f08:	0040c422 	.word	0x0040c422
  402f0c:	004035d9 	.word	0x004035d9
  402f10:	00402441 	.word	0x00402441
  402f14:	20003cd0 	.word	0x20003cd0
  402f18:	20003cec 	.word	0x20003cec
  402f1c:	00402509 	.word	0x00402509

00402f20 <vTaskSuspendAll>:
  402f20:	4b02      	ldr	r3, [pc, #8]	; (402f2c <vTaskSuspendAll+0xc>)
  402f22:	681a      	ldr	r2, [r3, #0]
  402f24:	3201      	adds	r2, #1
  402f26:	601a      	str	r2, [r3, #0]
  402f28:	4770      	bx	lr
  402f2a:	bf00      	nop
  402f2c:	20003d88 	.word	0x20003d88

00402f30 <xTaskGetTickCount>:
  402f30:	b510      	push	{r4, lr}
  402f32:	4b04      	ldr	r3, [pc, #16]	; (402f44 <xTaskGetTickCount+0x14>)
  402f34:	4798      	blx	r3
  402f36:	4b04      	ldr	r3, [pc, #16]	; (402f48 <xTaskGetTickCount+0x18>)
  402f38:	681c      	ldr	r4, [r3, #0]
  402f3a:	4b04      	ldr	r3, [pc, #16]	; (402f4c <xTaskGetTickCount+0x1c>)
  402f3c:	4798      	blx	r3
  402f3e:	4620      	mov	r0, r4
  402f40:	bd10      	pop	{r4, pc}
  402f42:	bf00      	nop
  402f44:	00402451 	.word	0x00402451
  402f48:	20003cec 	.word	0x20003cec
  402f4c:	00402471 	.word	0x00402471

00402f50 <vTaskIncrementTick>:
  402f50:	e92d 41f0 	stmdb	sp!, {r4, r5, r6, r7, r8, lr}
  402f54:	4b30      	ldr	r3, [pc, #192]	; (403018 <vTaskIncrementTick+0xc8>)
  402f56:	681b      	ldr	r3, [r3, #0]
  402f58:	2b00      	cmp	r3, #0
  402f5a:	d150      	bne.n	402ffe <vTaskIncrementTick+0xae>
  402f5c:	4b2f      	ldr	r3, [pc, #188]	; (40301c <vTaskIncrementTick+0xcc>)
  402f5e:	681a      	ldr	r2, [r3, #0]
  402f60:	461e      	mov	r6, r3
  402f62:	3201      	adds	r2, #1
  402f64:	601a      	str	r2, [r3, #0]
  402f66:	681a      	ldr	r2, [r3, #0]
  402f68:	b9e2      	cbnz	r2, 402fa4 <vTaskIncrementTick+0x54>
  402f6a:	4b2d      	ldr	r3, [pc, #180]	; (403020 <vTaskIncrementTick+0xd0>)
  402f6c:	681a      	ldr	r2, [r3, #0]
  402f6e:	6812      	ldr	r2, [r2, #0]
  402f70:	b11a      	cbz	r2, 402f7a <vTaskIncrementTick+0x2a>
  402f72:	4b2c      	ldr	r3, [pc, #176]	; (403024 <vTaskIncrementTick+0xd4>)
  402f74:	4798      	blx	r3
  402f76:	bf00      	nop
  402f78:	e7fd      	b.n	402f76 <vTaskIncrementTick+0x26>
  402f7a:	4a2b      	ldr	r2, [pc, #172]	; (403028 <vTaskIncrementTick+0xd8>)
  402f7c:	6819      	ldr	r1, [r3, #0]
  402f7e:	6810      	ldr	r0, [r2, #0]
  402f80:	6018      	str	r0, [r3, #0]
  402f82:	6011      	str	r1, [r2, #0]
  402f84:	4a29      	ldr	r2, [pc, #164]	; (40302c <vTaskIncrementTick+0xdc>)
  402f86:	6811      	ldr	r1, [r2, #0]
  402f88:	3101      	adds	r1, #1
  402f8a:	6011      	str	r1, [r2, #0]
  402f8c:	681a      	ldr	r2, [r3, #0]
  402f8e:	6811      	ldr	r1, [r2, #0]
  402f90:	4a27      	ldr	r2, [pc, #156]	; (403030 <vTaskIncrementTick+0xe0>)
  402f92:	b911      	cbnz	r1, 402f9a <vTaskIncrementTick+0x4a>
  402f94:	f04f 33ff 	mov.w	r3, #4294967295
  402f98:	e003      	b.n	402fa2 <vTaskIncrementTick+0x52>
  402f9a:	681b      	ldr	r3, [r3, #0]
  402f9c:	68db      	ldr	r3, [r3, #12]
  402f9e:	68db      	ldr	r3, [r3, #12]
  402fa0:	685b      	ldr	r3, [r3, #4]
  402fa2:	6013      	str	r3, [r2, #0]
  402fa4:	4f22      	ldr	r7, [pc, #136]	; (403030 <vTaskIncrementTick+0xe0>)
  402fa6:	6832      	ldr	r2, [r6, #0]
  402fa8:	683b      	ldr	r3, [r7, #0]
  402faa:	429a      	cmp	r2, r3
  402fac:	d32d      	bcc.n	40300a <vTaskIncrementTick+0xba>
  402fae:	4b1c      	ldr	r3, [pc, #112]	; (403020 <vTaskIncrementTick+0xd0>)
  402fb0:	681a      	ldr	r2, [r3, #0]
  402fb2:	6812      	ldr	r2, [r2, #0]
  402fb4:	b912      	cbnz	r2, 402fbc <vTaskIncrementTick+0x6c>
  402fb6:	f04f 33ff 	mov.w	r3, #4294967295
  402fba:	e006      	b.n	402fca <vTaskIncrementTick+0x7a>
  402fbc:	681b      	ldr	r3, [r3, #0]
  402fbe:	68db      	ldr	r3, [r3, #12]
  402fc0:	68dc      	ldr	r4, [r3, #12]
  402fc2:	6832      	ldr	r2, [r6, #0]
  402fc4:	6863      	ldr	r3, [r4, #4]
  402fc6:	429a      	cmp	r2, r3
  402fc8:	d201      	bcs.n	402fce <vTaskIncrementTick+0x7e>
  402fca:	603b      	str	r3, [r7, #0]
  402fcc:	e01d      	b.n	40300a <vTaskIncrementTick+0xba>
  402fce:	1d25      	adds	r5, r4, #4
  402fd0:	4628      	mov	r0, r5
  402fd2:	f8df 8074 	ldr.w	r8, [pc, #116]	; 403048 <vTaskIncrementTick+0xf8>
  402fd6:	47c0      	blx	r8
  402fd8:	6aa3      	ldr	r3, [r4, #40]	; 0x28
  402fda:	b113      	cbz	r3, 402fe2 <vTaskIncrementTick+0x92>
  402fdc:	f104 0018 	add.w	r0, r4, #24
  402fe0:	47c0      	blx	r8
  402fe2:	4b14      	ldr	r3, [pc, #80]	; (403034 <vTaskIncrementTick+0xe4>)
  402fe4:	6ae2      	ldr	r2, [r4, #44]	; 0x2c
  402fe6:	6819      	ldr	r1, [r3, #0]
  402fe8:	2014      	movs	r0, #20
  402fea:	428a      	cmp	r2, r1
  402fec:	bf88      	it	hi
  402fee:	601a      	strhi	r2, [r3, #0]
  402ff0:	4b11      	ldr	r3, [pc, #68]	; (403038 <vTaskIncrementTick+0xe8>)
  402ff2:	4629      	mov	r1, r5
  402ff4:	fb00 3002 	mla	r0, r0, r2, r3
  402ff8:	4b10      	ldr	r3, [pc, #64]	; (40303c <vTaskIncrementTick+0xec>)
  402ffa:	4798      	blx	r3
  402ffc:	e7d7      	b.n	402fae <vTaskIncrementTick+0x5e>
  402ffe:	4b10      	ldr	r3, [pc, #64]	; (403040 <vTaskIncrementTick+0xf0>)
  403000:	681a      	ldr	r2, [r3, #0]
  403002:	3201      	adds	r2, #1
  403004:	601a      	str	r2, [r3, #0]
  403006:	4b0f      	ldr	r3, [pc, #60]	; (403044 <vTaskIncrementTick+0xf4>)
  403008:	4798      	blx	r3
  40300a:	4b0d      	ldr	r3, [pc, #52]	; (403040 <vTaskIncrementTick+0xf0>)
  40300c:	681b      	ldr	r3, [r3, #0]
  40300e:	b90b      	cbnz	r3, 403014 <vTaskIncrementTick+0xc4>
  403010:	4b0c      	ldr	r3, [pc, #48]	; (403044 <vTaskIncrementTick+0xf4>)
  403012:	4798      	blx	r3
  403014:	e8bd 81f0 	ldmia.w	sp!, {r4, r5, r6, r7, r8, pc}
  403018:	20003d88 	.word	0x20003d88
  40301c:	20003cec 	.word	0x20003cec
  403020:	20003ccc 	.word	0x20003ccc
  403024:	00402441 	.word	0x00402441
  403028:	20003d8c 	.word	0x20003d8c
  40302c:	20003d6c 	.word	0x20003d6c
  403030:	200000d4 	.word	0x200000d4
  403034:	20003cf0 	.word	0x20003cf0
  403038:	20003cf4 	.word	0x20003cf4
  40303c:	00402371 	.word	0x00402371
  403040:	20003cb4 	.word	0x20003cb4
  403044:	00403eaf 	.word	0x00403eaf
  403048:	004023bd 	.word	0x004023bd

0040304c <xTaskResumeAll>:
  40304c:	b5f8      	push	{r3, r4, r5, r6, r7, lr}
  40304e:	4c2a      	ldr	r4, [pc, #168]	; (4030f8 <xTaskResumeAll+0xac>)
  403050:	6823      	ldr	r3, [r4, #0]
  403052:	b91b      	cbnz	r3, 40305c <xTaskResumeAll+0x10>
  403054:	4b29      	ldr	r3, [pc, #164]	; (4030fc <xTaskResumeAll+0xb0>)
  403056:	4798      	blx	r3
  403058:	bf00      	nop
  40305a:	e7fd      	b.n	403058 <xTaskResumeAll+0xc>
  40305c:	4b28      	ldr	r3, [pc, #160]	; (403100 <xTaskResumeAll+0xb4>)
  40305e:	4798      	blx	r3
  403060:	6823      	ldr	r3, [r4, #0]
  403062:	3b01      	subs	r3, #1
  403064:	6023      	str	r3, [r4, #0]
  403066:	6825      	ldr	r5, [r4, #0]
  403068:	b10d      	cbz	r5, 40306e <xTaskResumeAll+0x22>
  40306a:	2400      	movs	r4, #0
  40306c:	e03f      	b.n	4030ee <xTaskResumeAll+0xa2>
  40306e:	4b25      	ldr	r3, [pc, #148]	; (403104 <xTaskResumeAll+0xb8>)
  403070:	681b      	ldr	r3, [r3, #0]
  403072:	2b00      	cmp	r3, #0
  403074:	d0f9      	beq.n	40306a <xTaskResumeAll+0x1e>
  403076:	4b24      	ldr	r3, [pc, #144]	; (403108 <xTaskResumeAll+0xbc>)
  403078:	681a      	ldr	r2, [r3, #0]
  40307a:	b1ea      	cbz	r2, 4030b8 <xTaskResumeAll+0x6c>
  40307c:	68db      	ldr	r3, [r3, #12]
  40307e:	4f23      	ldr	r7, [pc, #140]	; (40310c <xTaskResumeAll+0xc0>)
  403080:	68dc      	ldr	r4, [r3, #12]
  403082:	1d26      	adds	r6, r4, #4
  403084:	f104 0018 	add.w	r0, r4, #24
  403088:	47b8      	blx	r7
  40308a:	4630      	mov	r0, r6
  40308c:	47b8      	blx	r7
  40308e:	4a20      	ldr	r2, [pc, #128]	; (403110 <xTaskResumeAll+0xc4>)
  403090:	6ae3      	ldr	r3, [r4, #44]	; 0x2c
  403092:	6811      	ldr	r1, [r2, #0]
  403094:	2014      	movs	r0, #20
  403096:	428b      	cmp	r3, r1
  403098:	bf88      	it	hi
  40309a:	6013      	strhi	r3, [r2, #0]
  40309c:	4a1d      	ldr	r2, [pc, #116]	; (403114 <xTaskResumeAll+0xc8>)
  40309e:	4631      	mov	r1, r6
  4030a0:	fb00 2003 	mla	r0, r0, r3, r2
  4030a4:	4b1c      	ldr	r3, [pc, #112]	; (403118 <xTaskResumeAll+0xcc>)
  4030a6:	4798      	blx	r3
  4030a8:	4b1c      	ldr	r3, [pc, #112]	; (40311c <xTaskResumeAll+0xd0>)
  4030aa:	6ae2      	ldr	r2, [r4, #44]	; 0x2c
  4030ac:	681b      	ldr	r3, [r3, #0]
  4030ae:	6adb      	ldr	r3, [r3, #44]	; 0x2c
  4030b0:	429a      	cmp	r2, r3
  4030b2:	bf28      	it	cs
  4030b4:	2501      	movcs	r5, #1
  4030b6:	e7de      	b.n	403076 <xTaskResumeAll+0x2a>
  4030b8:	4b19      	ldr	r3, [pc, #100]	; (403120 <xTaskResumeAll+0xd4>)
  4030ba:	681a      	ldr	r2, [r3, #0]
  4030bc:	461e      	mov	r6, r3
  4030be:	b142      	cbz	r2, 4030d2 <xTaskResumeAll+0x86>
  4030c0:	6833      	ldr	r3, [r6, #0]
  4030c2:	4c17      	ldr	r4, [pc, #92]	; (403120 <xTaskResumeAll+0xd4>)
  4030c4:	b13b      	cbz	r3, 4030d6 <xTaskResumeAll+0x8a>
  4030c6:	4b17      	ldr	r3, [pc, #92]	; (403124 <xTaskResumeAll+0xd8>)
  4030c8:	4798      	blx	r3
  4030ca:	6823      	ldr	r3, [r4, #0]
  4030cc:	3b01      	subs	r3, #1
  4030ce:	6023      	str	r3, [r4, #0]
  4030d0:	e7f6      	b.n	4030c0 <xTaskResumeAll+0x74>
  4030d2:	2d01      	cmp	r5, #1
  4030d4:	d106      	bne.n	4030e4 <xTaskResumeAll+0x98>
  4030d6:	4b14      	ldr	r3, [pc, #80]	; (403128 <xTaskResumeAll+0xdc>)
  4030d8:	2200      	movs	r2, #0
  4030da:	601a      	str	r2, [r3, #0]
  4030dc:	4b13      	ldr	r3, [pc, #76]	; (40312c <xTaskResumeAll+0xe0>)
  4030de:	4798      	blx	r3
  4030e0:	2401      	movs	r4, #1
  4030e2:	e004      	b.n	4030ee <xTaskResumeAll+0xa2>
  4030e4:	4b10      	ldr	r3, [pc, #64]	; (403128 <xTaskResumeAll+0xdc>)
  4030e6:	681b      	ldr	r3, [r3, #0]
  4030e8:	2b01      	cmp	r3, #1
  4030ea:	d1be      	bne.n	40306a <xTaskResumeAll+0x1e>
  4030ec:	e7f3      	b.n	4030d6 <xTaskResumeAll+0x8a>
  4030ee:	4b10      	ldr	r3, [pc, #64]	; (403130 <xTaskResumeAll+0xe4>)
  4030f0:	4798      	blx	r3
  4030f2:	4620      	mov	r0, r4
  4030f4:	bdf8      	pop	{r3, r4, r5, r6, r7, pc}
  4030f6:	bf00      	nop
  4030f8:	20003d88 	.word	0x20003d88
  4030fc:	00402441 	.word	0x00402441
  403100:	00402451 	.word	0x00402451
  403104:	20003dc0 	.word	0x20003dc0
  403108:	20003d74 	.word	0x20003d74
  40310c:	004023bd 	.word	0x004023bd
  403110:	20003cf0 	.word	0x20003cf0
  403114:	20003cf4 	.word	0x20003cf4
  403118:	00402371 	.word	0x00402371
  40311c:	20003d70 	.word	0x20003d70
  403120:	20003cb4 	.word	0x20003cb4
  403124:	00402f51 	.word	0x00402f51
  403128:	20003dbc 	.word	0x20003dbc
  40312c:	00402431 	.word	0x00402431
  403130:	00402471 	.word	0x00402471

00403134 <vTaskDelay>:
  403134:	b510      	push	{r4, lr}
  403136:	4604      	mov	r4, r0
  403138:	b910      	cbnz	r0, 403140 <vTaskDelay+0xc>
  40313a:	4b0a      	ldr	r3, [pc, #40]	; (403164 <vTaskDelay+0x30>)
  40313c:	4798      	blx	r3
  40313e:	bd10      	pop	{r4, pc}
  403140:	4b09      	ldr	r3, [pc, #36]	; (403168 <vTaskDelay+0x34>)
  403142:	4798      	blx	r3
  403144:	4b09      	ldr	r3, [pc, #36]	; (40316c <vTaskDelay+0x38>)
  403146:	681b      	ldr	r3, [r3, #0]
  403148:	441c      	add	r4, r3
  40314a:	4b09      	ldr	r3, [pc, #36]	; (403170 <vTaskDelay+0x3c>)
  40314c:	6818      	ldr	r0, [r3, #0]
  40314e:	4b09      	ldr	r3, [pc, #36]	; (403174 <vTaskDelay+0x40>)
  403150:	3004      	adds	r0, #4
  403152:	4798      	blx	r3
  403154:	4b08      	ldr	r3, [pc, #32]	; (403178 <vTaskDelay+0x44>)
  403156:	4620      	mov	r0, r4
  403158:	4798      	blx	r3
  40315a:	4b08      	ldr	r3, [pc, #32]	; (40317c <vTaskDelay+0x48>)
  40315c:	4798      	blx	r3
  40315e:	2800      	cmp	r0, #0
  403160:	d0eb      	beq.n	40313a <vTaskDelay+0x6>
  403162:	bd10      	pop	{r4, pc}
  403164:	00402431 	.word	0x00402431
  403168:	00402f21 	.word	0x00402f21
  40316c:	20003cec 	.word	0x20003cec
  403170:	20003d70 	.word	0x20003d70
  403174:	004023bd 	.word	0x004023bd
  403178:	00402c0d 	.word	0x00402c0d
  40317c:	0040304d 	.word	0x0040304d

00403180 <prvIdleTask>:
  403180:	b508      	push	{r3, lr}
  403182:	4d15      	ldr	r5, [pc, #84]	; (4031d8 <prvIdleTask+0x58>)
  403184:	682b      	ldr	r3, [r5, #0]
  403186:	b1eb      	cbz	r3, 4031c4 <prvIdleTask+0x44>
  403188:	4c14      	ldr	r4, [pc, #80]	; (4031dc <prvIdleTask+0x5c>)
  40318a:	4b15      	ldr	r3, [pc, #84]	; (4031e0 <prvIdleTask+0x60>)
  40318c:	4798      	blx	r3
  40318e:	6826      	ldr	r6, [r4, #0]
  403190:	4b14      	ldr	r3, [pc, #80]	; (4031e4 <prvIdleTask+0x64>)
  403192:	4798      	blx	r3
  403194:	2e00      	cmp	r6, #0
  403196:	d0f4      	beq.n	403182 <prvIdleTask+0x2>
  403198:	4b13      	ldr	r3, [pc, #76]	; (4031e8 <prvIdleTask+0x68>)
  40319a:	4798      	blx	r3
  40319c:	68e3      	ldr	r3, [r4, #12]
  40319e:	68dc      	ldr	r4, [r3, #12]
  4031a0:	4b12      	ldr	r3, [pc, #72]	; (4031ec <prvIdleTask+0x6c>)
  4031a2:	1d20      	adds	r0, r4, #4
  4031a4:	4798      	blx	r3
  4031a6:	4b12      	ldr	r3, [pc, #72]	; (4031f0 <prvIdleTask+0x70>)
  4031a8:	681a      	ldr	r2, [r3, #0]
  4031aa:	3a01      	subs	r2, #1
  4031ac:	601a      	str	r2, [r3, #0]
  4031ae:	682b      	ldr	r3, [r5, #0]
  4031b0:	3b01      	subs	r3, #1
  4031b2:	602b      	str	r3, [r5, #0]
  4031b4:	4b0f      	ldr	r3, [pc, #60]	; (4031f4 <prvIdleTask+0x74>)
  4031b6:	4798      	blx	r3
  4031b8:	4d0f      	ldr	r5, [pc, #60]	; (4031f8 <prvIdleTask+0x78>)
  4031ba:	6b20      	ldr	r0, [r4, #48]	; 0x30
  4031bc:	47a8      	blx	r5
  4031be:	4620      	mov	r0, r4
  4031c0:	47a8      	blx	r5
  4031c2:	e7de      	b.n	403182 <prvIdleTask+0x2>
  4031c4:	4b0d      	ldr	r3, [pc, #52]	; (4031fc <prvIdleTask+0x7c>)
  4031c6:	681b      	ldr	r3, [r3, #0]
  4031c8:	2b01      	cmp	r3, #1
  4031ca:	d901      	bls.n	4031d0 <prvIdleTask+0x50>
  4031cc:	4b0c      	ldr	r3, [pc, #48]	; (403200 <prvIdleTask+0x80>)
  4031ce:	4798      	blx	r3
  4031d0:	4b0c      	ldr	r3, [pc, #48]	; (403204 <prvIdleTask+0x84>)
  4031d2:	4798      	blx	r3
  4031d4:	e7d5      	b.n	403182 <prvIdleTask+0x2>
  4031d6:	bf00      	nop
  4031d8:	20003cd4 	.word	0x20003cd4
  4031dc:	20003cd8 	.word	0x20003cd8
  4031e0:	00402f21 	.word	0x00402f21
  4031e4:	0040304d 	.word	0x0040304d
  4031e8:	00402451 	.word	0x00402451
  4031ec:	004023bd 	.word	0x004023bd
  4031f0:	20003dc0 	.word	0x20003dc0
  4031f4:	00402471 	.word	0x00402471
  4031f8:	00402651 	.word	0x00402651
  4031fc:	20003cf4 	.word	0x20003cf4
  403200:	00402431 	.word	0x00402431
  403204:	00403ead 	.word	0x00403ead

00403208 <vTaskSwitchContext>:
  403208:	b510      	push	{r4, lr}
  40320a:	4b1a      	ldr	r3, [pc, #104]	; (403274 <vTaskSwitchContext+0x6c>)
  40320c:	681b      	ldr	r3, [r3, #0]
  40320e:	b11b      	cbz	r3, 403218 <vTaskSwitchContext+0x10>
  403210:	4b19      	ldr	r3, [pc, #100]	; (403278 <vTaskSwitchContext+0x70>)
  403212:	2201      	movs	r2, #1
  403214:	601a      	str	r2, [r3, #0]
  403216:	bd10      	pop	{r4, pc}
  403218:	4c18      	ldr	r4, [pc, #96]	; (40327c <vTaskSwitchContext+0x74>)
  40321a:	6822      	ldr	r2, [r4, #0]
  40321c:	6823      	ldr	r3, [r4, #0]
  40321e:	6812      	ldr	r2, [r2, #0]
  403220:	6b1b      	ldr	r3, [r3, #48]	; 0x30
  403222:	429a      	cmp	r2, r3
  403224:	d808      	bhi.n	403238 <vTaskSwitchContext+0x30>
  403226:	6820      	ldr	r0, [r4, #0]
  403228:	6821      	ldr	r1, [r4, #0]
  40322a:	4b15      	ldr	r3, [pc, #84]	; (403280 <vTaskSwitchContext+0x78>)
  40322c:	3134      	adds	r1, #52	; 0x34
  40322e:	4798      	blx	r3
  403230:	e002      	b.n	403238 <vTaskSwitchContext+0x30>
  403232:	6813      	ldr	r3, [r2, #0]
  403234:	3b01      	subs	r3, #1
  403236:	6013      	str	r3, [r2, #0]
  403238:	4a12      	ldr	r2, [pc, #72]	; (403284 <vTaskSwitchContext+0x7c>)
  40323a:	2314      	movs	r3, #20
  40323c:	6810      	ldr	r0, [r2, #0]
  40323e:	4912      	ldr	r1, [pc, #72]	; (403288 <vTaskSwitchContext+0x80>)
  403240:	4358      	muls	r0, r3
  403242:	5808      	ldr	r0, [r1, r0]
  403244:	b930      	cbnz	r0, 403254 <vTaskSwitchContext+0x4c>
  403246:	6813      	ldr	r3, [r2, #0]
  403248:	2b00      	cmp	r3, #0
  40324a:	d1f2      	bne.n	403232 <vTaskSwitchContext+0x2a>
  40324c:	4b0f      	ldr	r3, [pc, #60]	; (40328c <vTaskSwitchContext+0x84>)
  40324e:	4798      	blx	r3
  403250:	bf00      	nop
  403252:	e7fd      	b.n	403250 <vTaskSwitchContext+0x48>
  403254:	6812      	ldr	r2, [r2, #0]
  403256:	fb03 1302 	mla	r3, r3, r2, r1
  40325a:	685a      	ldr	r2, [r3, #4]
  40325c:	f103 0108 	add.w	r1, r3, #8
  403260:	6852      	ldr	r2, [r2, #4]
  403262:	605a      	str	r2, [r3, #4]
  403264:	428a      	cmp	r2, r1
  403266:	bf04      	itt	eq
  403268:	6852      	ldreq	r2, [r2, #4]
  40326a:	605a      	streq	r2, [r3, #4]
  40326c:	685b      	ldr	r3, [r3, #4]
  40326e:	68db      	ldr	r3, [r3, #12]
  403270:	6023      	str	r3, [r4, #0]
  403272:	bd10      	pop	{r4, pc}
  403274:	20003d88 	.word	0x20003d88
  403278:	20003dbc 	.word	0x20003dbc
  40327c:	20003d70 	.word	0x20003d70
  403280:	00403e89 	.word	0x00403e89
  403284:	20003cf0 	.word	0x20003cf0
  403288:	20003cf4 	.word	0x20003cf4
  40328c:	00402441 	.word	0x00402441

00403290 <vTaskPlaceOnEventList>:
  403290:	b538      	push	{r3, r4, r5, lr}
  403292:	460d      	mov	r5, r1
  403294:	b918      	cbnz	r0, 40329e <vTaskPlaceOnEventList+0xe>
  403296:	4b0d      	ldr	r3, [pc, #52]	; (4032cc <vTaskPlaceOnEventList+0x3c>)
  403298:	4798      	blx	r3
  40329a:	bf00      	nop
  40329c:	e7fd      	b.n	40329a <vTaskPlaceOnEventList+0xa>
  40329e:	4c0c      	ldr	r4, [pc, #48]	; (4032d0 <vTaskPlaceOnEventList+0x40>)
  4032a0:	4b0c      	ldr	r3, [pc, #48]	; (4032d4 <vTaskPlaceOnEventList+0x44>)
  4032a2:	6821      	ldr	r1, [r4, #0]
  4032a4:	3118      	adds	r1, #24
  4032a6:	4798      	blx	r3
  4032a8:	6820      	ldr	r0, [r4, #0]
  4032aa:	4b0b      	ldr	r3, [pc, #44]	; (4032d8 <vTaskPlaceOnEventList+0x48>)
  4032ac:	3004      	adds	r0, #4
  4032ae:	4798      	blx	r3
  4032b0:	1c6b      	adds	r3, r5, #1
  4032b2:	d105      	bne.n	4032c0 <vTaskPlaceOnEventList+0x30>
  4032b4:	6821      	ldr	r1, [r4, #0]
  4032b6:	4809      	ldr	r0, [pc, #36]	; (4032dc <vTaskPlaceOnEventList+0x4c>)
  4032b8:	3104      	adds	r1, #4
  4032ba:	4b09      	ldr	r3, [pc, #36]	; (4032e0 <vTaskPlaceOnEventList+0x50>)
  4032bc:	4798      	blx	r3
  4032be:	bd38      	pop	{r3, r4, r5, pc}
  4032c0:	4b08      	ldr	r3, [pc, #32]	; (4032e4 <vTaskPlaceOnEventList+0x54>)
  4032c2:	6818      	ldr	r0, [r3, #0]
  4032c4:	4b08      	ldr	r3, [pc, #32]	; (4032e8 <vTaskPlaceOnEventList+0x58>)
  4032c6:	4428      	add	r0, r5
  4032c8:	4798      	blx	r3
  4032ca:	bd38      	pop	{r3, r4, r5, pc}
  4032cc:	00402441 	.word	0x00402441
  4032d0:	20003d70 	.word	0x20003d70
  4032d4:	0040238d 	.word	0x0040238d
  4032d8:	004023bd 	.word	0x004023bd
  4032dc:	20003cb8 	.word	0x20003cb8
  4032e0:	00402371 	.word	0x00402371
  4032e4:	20003cec 	.word	0x20003cec
  4032e8:	00402c0d 	.word	0x00402c0d

004032ec <vTaskPlaceOnEventListRestricted>:
  4032ec:	b538      	push	{r3, r4, r5, lr}
  4032ee:	460d      	mov	r5, r1
  4032f0:	b918      	cbnz	r0, 4032fa <vTaskPlaceOnEventListRestricted+0xe>
  4032f2:	4b09      	ldr	r3, [pc, #36]	; (403318 <vTaskPlaceOnEventListRestricted+0x2c>)
  4032f4:	4798      	blx	r3
  4032f6:	bf00      	nop
  4032f8:	e7fd      	b.n	4032f6 <vTaskPlaceOnEventListRestricted+0xa>
  4032fa:	4c08      	ldr	r4, [pc, #32]	; (40331c <vTaskPlaceOnEventListRestricted+0x30>)
  4032fc:	4b08      	ldr	r3, [pc, #32]	; (403320 <vTaskPlaceOnEventListRestricted+0x34>)
  4032fe:	6821      	ldr	r1, [r4, #0]
  403300:	3118      	adds	r1, #24
  403302:	4798      	blx	r3
  403304:	6820      	ldr	r0, [r4, #0]
  403306:	4b07      	ldr	r3, [pc, #28]	; (403324 <vTaskPlaceOnEventListRestricted+0x38>)
  403308:	3004      	adds	r0, #4
  40330a:	4798      	blx	r3
  40330c:	4b06      	ldr	r3, [pc, #24]	; (403328 <vTaskPlaceOnEventListRestricted+0x3c>)
  40330e:	6818      	ldr	r0, [r3, #0]
  403310:	4b06      	ldr	r3, [pc, #24]	; (40332c <vTaskPlaceOnEventListRestricted+0x40>)
  403312:	4428      	add	r0, r5
  403314:	4798      	blx	r3
  403316:	bd38      	pop	{r3, r4, r5, pc}
  403318:	00402441 	.word	0x00402441
  40331c:	20003d70 	.word	0x20003d70
  403320:	00402371 	.word	0x00402371
  403324:	004023bd 	.word	0x004023bd
  403328:	20003cec 	.word	0x20003cec
  40332c:	00402c0d 	.word	0x00402c0d

00403330 <xTaskRemoveFromEventList>:
  403330:	b5f8      	push	{r3, r4, r5, r6, r7, lr}
  403332:	68c3      	ldr	r3, [r0, #12]
  403334:	68dc      	ldr	r4, [r3, #12]
  403336:	b91c      	cbnz	r4, 403340 <xTaskRemoveFromEventList+0x10>
  403338:	4b13      	ldr	r3, [pc, #76]	; (403388 <xTaskRemoveFromEventList+0x58>)
  40333a:	4798      	blx	r3
  40333c:	bf00      	nop
  40333e:	e7fd      	b.n	40333c <xTaskRemoveFromEventList+0xc>
  403340:	f104 0618 	add.w	r6, r4, #24
  403344:	4630      	mov	r0, r6
  403346:	4f11      	ldr	r7, [pc, #68]	; (40338c <xTaskRemoveFromEventList+0x5c>)
  403348:	47b8      	blx	r7
  40334a:	4b11      	ldr	r3, [pc, #68]	; (403390 <xTaskRemoveFromEventList+0x60>)
  40334c:	4d11      	ldr	r5, [pc, #68]	; (403394 <xTaskRemoveFromEventList+0x64>)
  40334e:	681b      	ldr	r3, [r3, #0]
  403350:	b96b      	cbnz	r3, 40336e <xTaskRemoveFromEventList+0x3e>
  403352:	1d26      	adds	r6, r4, #4
  403354:	4630      	mov	r0, r6
  403356:	47b8      	blx	r7
  403358:	4a0f      	ldr	r2, [pc, #60]	; (403398 <xTaskRemoveFromEventList+0x68>)
  40335a:	6ae3      	ldr	r3, [r4, #44]	; 0x2c
  40335c:	6811      	ldr	r1, [r2, #0]
  40335e:	2014      	movs	r0, #20
  403360:	428b      	cmp	r3, r1
  403362:	bf88      	it	hi
  403364:	6013      	strhi	r3, [r2, #0]
  403366:	4a0d      	ldr	r2, [pc, #52]	; (40339c <xTaskRemoveFromEventList+0x6c>)
  403368:	fb00 2003 	mla	r0, r0, r3, r2
  40336c:	e000      	b.n	403370 <xTaskRemoveFromEventList+0x40>
  40336e:	480c      	ldr	r0, [pc, #48]	; (4033a0 <xTaskRemoveFromEventList+0x70>)
  403370:	4631      	mov	r1, r6
  403372:	47a8      	blx	r5
  403374:	4b0b      	ldr	r3, [pc, #44]	; (4033a4 <xTaskRemoveFromEventList+0x74>)
  403376:	6ae0      	ldr	r0, [r4, #44]	; 0x2c
  403378:	681b      	ldr	r3, [r3, #0]
  40337a:	6adb      	ldr	r3, [r3, #44]	; 0x2c
  40337c:	4298      	cmp	r0, r3
  40337e:	bf34      	ite	cc
  403380:	2000      	movcc	r0, #0
  403382:	2001      	movcs	r0, #1
  403384:	bdf8      	pop	{r3, r4, r5, r6, r7, pc}
  403386:	bf00      	nop
  403388:	00402441 	.word	0x00402441
  40338c:	004023bd 	.word	0x004023bd
  403390:	20003d88 	.word	0x20003d88
  403394:	00402371 	.word	0x00402371
  403398:	20003cf0 	.word	0x20003cf0
  40339c:	20003cf4 	.word	0x20003cf4
  4033a0:	20003d74 	.word	0x20003d74
  4033a4:	20003d70 	.word	0x20003d70

004033a8 <vTaskSetTimeOutState>:
  4033a8:	b508      	push	{r3, lr}
  4033aa:	b918      	cbnz	r0, 4033b4 <vTaskSetTimeOutState+0xc>
  4033ac:	4b05      	ldr	r3, [pc, #20]	; (4033c4 <vTaskSetTimeOutState+0x1c>)
  4033ae:	4798      	blx	r3
  4033b0:	bf00      	nop
  4033b2:	e7fd      	b.n	4033b0 <vTaskSetTimeOutState+0x8>
  4033b4:	4b04      	ldr	r3, [pc, #16]	; (4033c8 <vTaskSetTimeOutState+0x20>)
  4033b6:	681b      	ldr	r3, [r3, #0]
  4033b8:	6003      	str	r3, [r0, #0]
  4033ba:	4b04      	ldr	r3, [pc, #16]	; (4033cc <vTaskSetTimeOutState+0x24>)
  4033bc:	681b      	ldr	r3, [r3, #0]
  4033be:	6043      	str	r3, [r0, #4]
  4033c0:	bd08      	pop	{r3, pc}
  4033c2:	bf00      	nop
  4033c4:	00402441 	.word	0x00402441
  4033c8:	20003d6c 	.word	0x20003d6c
  4033cc:	20003cec 	.word	0x20003cec

004033d0 <xTaskCheckForTimeOut>:
  4033d0:	b538      	push	{r3, r4, r5, lr}
  4033d2:	460d      	mov	r5, r1
  4033d4:	4604      	mov	r4, r0
  4033d6:	b918      	cbnz	r0, 4033e0 <xTaskCheckForTimeOut+0x10>
  4033d8:	4b15      	ldr	r3, [pc, #84]	; (403430 <xTaskCheckForTimeOut+0x60>)
  4033da:	4798      	blx	r3
  4033dc:	bf00      	nop
  4033de:	e7fd      	b.n	4033dc <xTaskCheckForTimeOut+0xc>
  4033e0:	b919      	cbnz	r1, 4033ea <xTaskCheckForTimeOut+0x1a>
  4033e2:	4b13      	ldr	r3, [pc, #76]	; (403430 <xTaskCheckForTimeOut+0x60>)
  4033e4:	4798      	blx	r3
  4033e6:	bf00      	nop
  4033e8:	e7fd      	b.n	4033e6 <xTaskCheckForTimeOut+0x16>
  4033ea:	4b12      	ldr	r3, [pc, #72]	; (403434 <xTaskCheckForTimeOut+0x64>)
  4033ec:	4798      	blx	r3
  4033ee:	682b      	ldr	r3, [r5, #0]
  4033f0:	1c5a      	adds	r2, r3, #1
  4033f2:	d015      	beq.n	403420 <xTaskCheckForTimeOut+0x50>
  4033f4:	4a10      	ldr	r2, [pc, #64]	; (403438 <xTaskCheckForTimeOut+0x68>)
  4033f6:	6811      	ldr	r1, [r2, #0]
  4033f8:	6822      	ldr	r2, [r4, #0]
  4033fa:	4291      	cmp	r1, r2
  4033fc:	490f      	ldr	r1, [pc, #60]	; (40343c <xTaskCheckForTimeOut+0x6c>)
  4033fe:	6862      	ldr	r2, [r4, #4]
  403400:	d002      	beq.n	403408 <xTaskCheckForTimeOut+0x38>
  403402:	6808      	ldr	r0, [r1, #0]
  403404:	4290      	cmp	r0, r2
  403406:	d20d      	bcs.n	403424 <xTaskCheckForTimeOut+0x54>
  403408:	6809      	ldr	r1, [r1, #0]
  40340a:	1a89      	subs	r1, r1, r2
  40340c:	4299      	cmp	r1, r3
  40340e:	d209      	bcs.n	403424 <xTaskCheckForTimeOut+0x54>
  403410:	490a      	ldr	r1, [pc, #40]	; (40343c <xTaskCheckForTimeOut+0x6c>)
  403412:	4620      	mov	r0, r4
  403414:	6809      	ldr	r1, [r1, #0]
  403416:	1a52      	subs	r2, r2, r1
  403418:	4413      	add	r3, r2
  40341a:	602b      	str	r3, [r5, #0]
  40341c:	4b08      	ldr	r3, [pc, #32]	; (403440 <xTaskCheckForTimeOut+0x70>)
  40341e:	4798      	blx	r3
  403420:	2400      	movs	r4, #0
  403422:	e000      	b.n	403426 <xTaskCheckForTimeOut+0x56>
  403424:	2401      	movs	r4, #1
  403426:	4b07      	ldr	r3, [pc, #28]	; (403444 <xTaskCheckForTimeOut+0x74>)
  403428:	4798      	blx	r3
  40342a:	4620      	mov	r0, r4
  40342c:	bd38      	pop	{r3, r4, r5, pc}
  40342e:	bf00      	nop
  403430:	00402441 	.word	0x00402441
  403434:	00402451 	.word	0x00402451
  403438:	20003d6c 	.word	0x20003d6c
  40343c:	20003cec 	.word	0x20003cec
  403440:	004033a9 	.word	0x004033a9
  403444:	00402471 	.word	0x00402471

00403448 <vTaskMissedYield>:
  403448:	4b01      	ldr	r3, [pc, #4]	; (403450 <vTaskMissedYield+0x8>)
  40344a:	2201      	movs	r2, #1
  40344c:	601a      	str	r2, [r3, #0]
  40344e:	4770      	bx	lr
  403450:	20003dbc 	.word	0x20003dbc

00403454 <xTaskGetCurrentTaskHandle>:
  403454:	4b01      	ldr	r3, [pc, #4]	; (40345c <xTaskGetCurrentTaskHandle+0x8>)
  403456:	6818      	ldr	r0, [r3, #0]
  403458:	4770      	bx	lr
  40345a:	bf00      	nop
  40345c:	20003d70 	.word	0x20003d70

00403460 <xTaskGetSchedulerState>:
  403460:	4b04      	ldr	r3, [pc, #16]	; (403474 <xTaskGetSchedulerState+0x14>)
  403462:	6818      	ldr	r0, [r3, #0]
  403464:	b128      	cbz	r0, 403472 <xTaskGetSchedulerState+0x12>
  403466:	4b04      	ldr	r3, [pc, #16]	; (403478 <xTaskGetSchedulerState+0x18>)
  403468:	681b      	ldr	r3, [r3, #0]
  40346a:	2b00      	cmp	r3, #0
  40346c:	bf14      	ite	ne
  40346e:	2002      	movne	r0, #2
  403470:	2001      	moveq	r0, #1
  403472:	4770      	bx	lr
  403474:	20003cd0 	.word	0x20003cd0
  403478:	20003d88 	.word	0x20003d88

0040347c <vTaskPriorityInherit>:
  40347c:	b5f8      	push	{r3, r4, r5, r6, r7, lr}
  40347e:	4604      	mov	r4, r0
  403480:	2800      	cmp	r0, #0
  403482:	d028      	beq.n	4034d6 <vTaskPriorityInherit+0x5a>
  403484:	4d14      	ldr	r5, [pc, #80]	; (4034d8 <vTaskPriorityInherit+0x5c>)
  403486:	6ac3      	ldr	r3, [r0, #44]	; 0x2c
  403488:	682a      	ldr	r2, [r5, #0]
  40348a:	6ad2      	ldr	r2, [r2, #44]	; 0x2c
  40348c:	4293      	cmp	r3, r2
  40348e:	d222      	bcs.n	4034d6 <vTaskPriorityInherit+0x5a>
  403490:	682a      	ldr	r2, [r5, #0]
  403492:	6ad2      	ldr	r2, [r2, #44]	; 0x2c
  403494:	f1c2 0206 	rsb	r2, r2, #6
  403498:	6182      	str	r2, [r0, #24]
  40349a:	4810      	ldr	r0, [pc, #64]	; (4034dc <vTaskPriorityInherit+0x60>)
  40349c:	2214      	movs	r2, #20
  40349e:	fb02 0303 	mla	r3, r2, r3, r0
  4034a2:	6962      	ldr	r2, [r4, #20]
  4034a4:	4607      	mov	r7, r0
  4034a6:	429a      	cmp	r2, r3
  4034a8:	d112      	bne.n	4034d0 <vTaskPriorityInherit+0x54>
  4034aa:	1d26      	adds	r6, r4, #4
  4034ac:	4630      	mov	r0, r6
  4034ae:	4b0c      	ldr	r3, [pc, #48]	; (4034e0 <vTaskPriorityInherit+0x64>)
  4034b0:	4798      	blx	r3
  4034b2:	682b      	ldr	r3, [r5, #0]
  4034b4:	4a0b      	ldr	r2, [pc, #44]	; (4034e4 <vTaskPriorityInherit+0x68>)
  4034b6:	6adb      	ldr	r3, [r3, #44]	; 0x2c
  4034b8:	6811      	ldr	r1, [r2, #0]
  4034ba:	2014      	movs	r0, #20
  4034bc:	428b      	cmp	r3, r1
  4034be:	62e3      	str	r3, [r4, #44]	; 0x2c
  4034c0:	bf88      	it	hi
  4034c2:	6013      	strhi	r3, [r2, #0]
  4034c4:	fb00 7003 	mla	r0, r0, r3, r7
  4034c8:	4631      	mov	r1, r6
  4034ca:	4b07      	ldr	r3, [pc, #28]	; (4034e8 <vTaskPriorityInherit+0x6c>)
  4034cc:	4798      	blx	r3
  4034ce:	bdf8      	pop	{r3, r4, r5, r6, r7, pc}
  4034d0:	682b      	ldr	r3, [r5, #0]
  4034d2:	6adb      	ldr	r3, [r3, #44]	; 0x2c
  4034d4:	62e3      	str	r3, [r4, #44]	; 0x2c
  4034d6:	bdf8      	pop	{r3, r4, r5, r6, r7, pc}
  4034d8:	20003d70 	.word	0x20003d70
  4034dc:	20003cf4 	.word	0x20003cf4
  4034e0:	004023bd 	.word	0x004023bd
  4034e4:	20003cf0 	.word	0x20003cf0
  4034e8:	00402371 	.word	0x00402371

004034ec <vTaskPriorityDisinherit>:
  4034ec:	b538      	push	{r3, r4, r5, lr}
  4034ee:	4604      	mov	r4, r0
  4034f0:	b1c0      	cbz	r0, 403524 <vTaskPriorityDisinherit+0x38>
  4034f2:	6ac2      	ldr	r2, [r0, #44]	; 0x2c
  4034f4:	6c83      	ldr	r3, [r0, #72]	; 0x48
  4034f6:	429a      	cmp	r2, r3
  4034f8:	d014      	beq.n	403524 <vTaskPriorityDisinherit+0x38>
  4034fa:	1d05      	adds	r5, r0, #4
  4034fc:	4b0a      	ldr	r3, [pc, #40]	; (403528 <vTaskPriorityDisinherit+0x3c>)
  4034fe:	4628      	mov	r0, r5
  403500:	4798      	blx	r3
  403502:	6ca3      	ldr	r3, [r4, #72]	; 0x48
  403504:	2014      	movs	r0, #20
  403506:	f1c3 0206 	rsb	r2, r3, #6
  40350a:	61a2      	str	r2, [r4, #24]
  40350c:	4a07      	ldr	r2, [pc, #28]	; (40352c <vTaskPriorityDisinherit+0x40>)
  40350e:	62e3      	str	r3, [r4, #44]	; 0x2c
  403510:	6811      	ldr	r1, [r2, #0]
  403512:	428b      	cmp	r3, r1
  403514:	bf88      	it	hi
  403516:	6013      	strhi	r3, [r2, #0]
  403518:	4a05      	ldr	r2, [pc, #20]	; (403530 <vTaskPriorityDisinherit+0x44>)
  40351a:	4629      	mov	r1, r5
  40351c:	fb00 2003 	mla	r0, r0, r3, r2
  403520:	4b04      	ldr	r3, [pc, #16]	; (403534 <vTaskPriorityDisinherit+0x48>)
  403522:	4798      	blx	r3
  403524:	bd38      	pop	{r3, r4, r5, pc}
  403526:	bf00      	nop
  403528:	004023bd 	.word	0x004023bd
  40352c:	20003cf0 	.word	0x20003cf0
  403530:	20003cf4 	.word	0x20003cf4
  403534:	00402371 	.word	0x00402371

00403538 <prvCheckForValidListAndQueue>:
  403538:	e92d 41f0 	stmdb	sp!, {r4, r5, r6, r7, r8, lr}
  40353c:	4c0d      	ldr	r4, [pc, #52]	; (403574 <prvCheckForValidListAndQueue+0x3c>)
  40353e:	4b0e      	ldr	r3, [pc, #56]	; (403578 <prvCheckForValidListAndQueue+0x40>)
  403540:	4798      	blx	r3
  403542:	6825      	ldr	r5, [r4, #0]
  403544:	b98d      	cbnz	r5, 40356a <prvCheckForValidListAndQueue+0x32>
  403546:	4f0d      	ldr	r7, [pc, #52]	; (40357c <prvCheckForValidListAndQueue+0x44>)
  403548:	4e0d      	ldr	r6, [pc, #52]	; (403580 <prvCheckForValidListAndQueue+0x48>)
  40354a:	4638      	mov	r0, r7
  40354c:	f8df 8044 	ldr.w	r8, [pc, #68]	; 403594 <prvCheckForValidListAndQueue+0x5c>
  403550:	47c0      	blx	r8
  403552:	4630      	mov	r0, r6
  403554:	47c0      	blx	r8
  403556:	4b0b      	ldr	r3, [pc, #44]	; (403584 <prvCheckForValidListAndQueue+0x4c>)
  403558:	2005      	movs	r0, #5
  40355a:	601f      	str	r7, [r3, #0]
  40355c:	4b0a      	ldr	r3, [pc, #40]	; (403588 <prvCheckForValidListAndQueue+0x50>)
  40355e:	210c      	movs	r1, #12
  403560:	601e      	str	r6, [r3, #0]
  403562:	462a      	mov	r2, r5
  403564:	4b09      	ldr	r3, [pc, #36]	; (40358c <prvCheckForValidListAndQueue+0x54>)
  403566:	4798      	blx	r3
  403568:	6020      	str	r0, [r4, #0]
  40356a:	4b09      	ldr	r3, [pc, #36]	; (403590 <prvCheckForValidListAndQueue+0x58>)
  40356c:	4798      	blx	r3
  40356e:	e8bd 81f0 	ldmia.w	sp!, {r4, r5, r6, r7, r8, pc}
  403572:	bf00      	nop
  403574:	20003df8 	.word	0x20003df8
  403578:	00402451 	.word	0x00402451
  40357c:	20003dcc 	.word	0x20003dcc
  403580:	20003de0 	.word	0x20003de0
  403584:	20003dc8 	.word	0x20003dc8
  403588:	20003dfc 	.word	0x20003dfc
  40358c:	00402805 	.word	0x00402805
  403590:	00402471 	.word	0x00402471
  403594:	00402355 	.word	0x00402355

00403598 <prvInsertTimerInActiveList>:
  403598:	b510      	push	{r4, lr}
  40359a:	4291      	cmp	r1, r2
  40359c:	4604      	mov	r4, r0
  40359e:	6041      	str	r1, [r0, #4]
  4035a0:	6120      	str	r0, [r4, #16]
  4035a2:	d805      	bhi.n	4035b0 <prvInsertTimerInActiveList+0x18>
  4035a4:	6981      	ldr	r1, [r0, #24]
  4035a6:	1ad2      	subs	r2, r2, r3
  4035a8:	428a      	cmp	r2, r1
  4035aa:	d20c      	bcs.n	4035c6 <prvInsertTimerInActiveList+0x2e>
  4035ac:	4b07      	ldr	r3, [pc, #28]	; (4035cc <prvInsertTimerInActiveList+0x34>)
  4035ae:	e004      	b.n	4035ba <prvInsertTimerInActiveList+0x22>
  4035b0:	429a      	cmp	r2, r3
  4035b2:	d201      	bcs.n	4035b8 <prvInsertTimerInActiveList+0x20>
  4035b4:	4299      	cmp	r1, r3
  4035b6:	d206      	bcs.n	4035c6 <prvInsertTimerInActiveList+0x2e>
  4035b8:	4b05      	ldr	r3, [pc, #20]	; (4035d0 <prvInsertTimerInActiveList+0x38>)
  4035ba:	6818      	ldr	r0, [r3, #0]
  4035bc:	1d21      	adds	r1, r4, #4
  4035be:	4b05      	ldr	r3, [pc, #20]	; (4035d4 <prvInsertTimerInActiveList+0x3c>)
  4035c0:	4798      	blx	r3
  4035c2:	2000      	movs	r0, #0
  4035c4:	bd10      	pop	{r4, pc}
  4035c6:	2001      	movs	r0, #1
  4035c8:	bd10      	pop	{r4, pc}
  4035ca:	bf00      	nop
  4035cc:	20003dfc 	.word	0x20003dfc
  4035d0:	20003dc8 	.word	0x20003dc8
  4035d4:	0040238d 	.word	0x0040238d

004035d8 <xTimerCreateTimerTask>:
  4035d8:	b51f      	push	{r0, r1, r2, r3, r4, lr}
  4035da:	4b0c      	ldr	r3, [pc, #48]	; (40360c <xTimerCreateTimerTask+0x34>)
  4035dc:	4798      	blx	r3
  4035de:	4b0c      	ldr	r3, [pc, #48]	; (403610 <xTimerCreateTimerTask+0x38>)
  4035e0:	681b      	ldr	r3, [r3, #0]
  4035e2:	b913      	cbnz	r3, 4035ea <xTimerCreateTimerTask+0x12>
  4035e4:	4b0b      	ldr	r3, [pc, #44]	; (403614 <xTimerCreateTimerTask+0x3c>)
  4035e6:	4798      	blx	r3
  4035e8:	e00e      	b.n	403608 <xTimerCreateTimerTask+0x30>
  4035ea:	2305      	movs	r3, #5
  4035ec:	9300      	str	r3, [sp, #0]
  4035ee:	2300      	movs	r3, #0
  4035f0:	9301      	str	r3, [sp, #4]
  4035f2:	9302      	str	r3, [sp, #8]
  4035f4:	9303      	str	r3, [sp, #12]
  4035f6:	4808      	ldr	r0, [pc, #32]	; (403618 <xTimerCreateTimerTask+0x40>)
  4035f8:	4908      	ldr	r1, [pc, #32]	; (40361c <xTimerCreateTimerTask+0x44>)
  4035fa:	228c      	movs	r2, #140	; 0x8c
  4035fc:	4c08      	ldr	r4, [pc, #32]	; (403620 <xTimerCreateTimerTask+0x48>)
  4035fe:	47a0      	blx	r4
  403600:	2800      	cmp	r0, #0
  403602:	d0ef      	beq.n	4035e4 <xTimerCreateTimerTask+0xc>
  403604:	b004      	add	sp, #16
  403606:	bd10      	pop	{r4, pc}
  403608:	bf00      	nop
  40360a:	e7fd      	b.n	403608 <xTimerCreateTimerTask+0x30>
  40360c:	00403539 	.word	0x00403539
  403610:	20003df8 	.word	0x20003df8
  403614:	00402441 	.word	0x00402441
  403618:	004036f1 	.word	0x004036f1
  40361c:	0040c427 	.word	0x0040c427
  403620:	00402c5d 	.word	0x00402c5d

00403624 <xTimerGenericCommand>:
  403624:	b57f      	push	{r0, r1, r2, r3, r4, r5, r6, lr}
  403626:	4d0f      	ldr	r5, [pc, #60]	; (403664 <xTimerGenericCommand+0x40>)
  403628:	4606      	mov	r6, r0
  40362a:	6828      	ldr	r0, [r5, #0]
  40362c:	461c      	mov	r4, r3
  40362e:	b1b0      	cbz	r0, 40365e <xTimerGenericCommand+0x3a>
  403630:	9101      	str	r1, [sp, #4]
  403632:	9202      	str	r2, [sp, #8]
  403634:	9603      	str	r6, [sp, #12]
  403636:	b96b      	cbnz	r3, 403654 <xTimerGenericCommand+0x30>
  403638:	4b0b      	ldr	r3, [pc, #44]	; (403668 <xTimerGenericCommand+0x44>)
  40363a:	4798      	blx	r3
  40363c:	2801      	cmp	r0, #1
  40363e:	bf18      	it	ne
  403640:	4622      	movne	r2, r4
  403642:	4e0a      	ldr	r6, [pc, #40]	; (40366c <xTimerGenericCommand+0x48>)
  403644:	6828      	ldr	r0, [r5, #0]
  403646:	a901      	add	r1, sp, #4
  403648:	bf06      	itte	eq
  40364a:	9a08      	ldreq	r2, [sp, #32]
  40364c:	4623      	moveq	r3, r4
  40364e:	4613      	movne	r3, r2
  403650:	47b0      	blx	r6
  403652:	e004      	b.n	40365e <xTimerGenericCommand+0x3a>
  403654:	461a      	mov	r2, r3
  403656:	a901      	add	r1, sp, #4
  403658:	2300      	movs	r3, #0
  40365a:	4c05      	ldr	r4, [pc, #20]	; (403670 <xTimerGenericCommand+0x4c>)
  40365c:	47a0      	blx	r4
  40365e:	b004      	add	sp, #16
  403660:	bd70      	pop	{r4, r5, r6, pc}
  403662:	bf00      	nop
  403664:	20003df8 	.word	0x20003df8
  403668:	00403461 	.word	0x00403461
  40366c:	00402881 	.word	0x00402881
  403670:	004029f5 	.word	0x004029f5

00403674 <prvSwitchTimerLists.isra.1>:
  403674:	b5f7      	push	{r0, r1, r2, r4, r5, r6, r7, lr}
  403676:	4e18      	ldr	r6, [pc, #96]	; (4036d8 <prvSwitchTimerLists.isra.1+0x64>)
  403678:	6833      	ldr	r3, [r6, #0]
  40367a:	681a      	ldr	r2, [r3, #0]
  40367c:	2a00      	cmp	r2, #0
  40367e:	d025      	beq.n	4036cc <prvSwitchTimerLists.isra.1+0x58>
  403680:	68da      	ldr	r2, [r3, #12]
  403682:	6815      	ldr	r5, [r2, #0]
  403684:	68db      	ldr	r3, [r3, #12]
  403686:	68dc      	ldr	r4, [r3, #12]
  403688:	4b14      	ldr	r3, [pc, #80]	; (4036dc <prvSwitchTimerLists.isra.1+0x68>)
  40368a:	1d27      	adds	r7, r4, #4
  40368c:	4638      	mov	r0, r7
  40368e:	4798      	blx	r3
  403690:	6a63      	ldr	r3, [r4, #36]	; 0x24
  403692:	4620      	mov	r0, r4
  403694:	4798      	blx	r3
  403696:	69e3      	ldr	r3, [r4, #28]
  403698:	2b01      	cmp	r3, #1
  40369a:	d1ec      	bne.n	403676 <prvSwitchTimerLists.isra.1+0x2>
  40369c:	69a3      	ldr	r3, [r4, #24]
  40369e:	442b      	add	r3, r5
  4036a0:	42ab      	cmp	r3, r5
  4036a2:	d906      	bls.n	4036b2 <prvSwitchTimerLists.isra.1+0x3e>
  4036a4:	6063      	str	r3, [r4, #4]
  4036a6:	6124      	str	r4, [r4, #16]
  4036a8:	6830      	ldr	r0, [r6, #0]
  4036aa:	4639      	mov	r1, r7
  4036ac:	4b0c      	ldr	r3, [pc, #48]	; (4036e0 <prvSwitchTimerLists.isra.1+0x6c>)
  4036ae:	4798      	blx	r3
  4036b0:	e7e1      	b.n	403676 <prvSwitchTimerLists.isra.1+0x2>
  4036b2:	2100      	movs	r1, #0
  4036b4:	4620      	mov	r0, r4
  4036b6:	9100      	str	r1, [sp, #0]
  4036b8:	462a      	mov	r2, r5
  4036ba:	460b      	mov	r3, r1
  4036bc:	4c09      	ldr	r4, [pc, #36]	; (4036e4 <prvSwitchTimerLists.isra.1+0x70>)
  4036be:	47a0      	blx	r4
  4036c0:	2800      	cmp	r0, #0
  4036c2:	d1d8      	bne.n	403676 <prvSwitchTimerLists.isra.1+0x2>
  4036c4:	4b08      	ldr	r3, [pc, #32]	; (4036e8 <prvSwitchTimerLists.isra.1+0x74>)
  4036c6:	4798      	blx	r3
  4036c8:	bf00      	nop
  4036ca:	e7fd      	b.n	4036c8 <prvSwitchTimerLists.isra.1+0x54>
  4036cc:	4a07      	ldr	r2, [pc, #28]	; (4036ec <prvSwitchTimerLists.isra.1+0x78>)
  4036ce:	6811      	ldr	r1, [r2, #0]
  4036d0:	6013      	str	r3, [r2, #0]
  4036d2:	6031      	str	r1, [r6, #0]
  4036d4:	b003      	add	sp, #12
  4036d6:	bdf0      	pop	{r4, r5, r6, r7, pc}
  4036d8:	20003dc8 	.word	0x20003dc8
  4036dc:	004023bd 	.word	0x004023bd
  4036e0:	0040238d 	.word	0x0040238d
  4036e4:	00403625 	.word	0x00403625
  4036e8:	00402441 	.word	0x00402441
  4036ec:	20003dfc 	.word	0x20003dfc

004036f0 <prvTimerTask>:
  4036f0:	e92d 47f0 	stmdb	sp!, {r4, r5, r6, r7, r8, r9, sl, lr}
  4036f4:	b086      	sub	sp, #24
  4036f6:	f8df 9188 	ldr.w	r9, [pc, #392]	; 403880 <prvTimerTask+0x190>
  4036fa:	f8d9 3000 	ldr.w	r3, [r9]
  4036fe:	681a      	ldr	r2, [r3, #0]
  403700:	f1d2 0801 	rsbs	r8, r2, #1
  403704:	bf38      	it	cc
  403706:	f04f 0800 	movcc.w	r8, #0
  40370a:	f1b8 0f00 	cmp.w	r8, #0
  40370e:	d102      	bne.n	403716 <prvTimerTask+0x26>
  403710:	68db      	ldr	r3, [r3, #12]
  403712:	681d      	ldr	r5, [r3, #0]
  403714:	e000      	b.n	403718 <prvTimerTask+0x28>
  403716:	2500      	movs	r5, #0
  403718:	4b4b      	ldr	r3, [pc, #300]	; (403848 <prvTimerTask+0x158>)
  40371a:	4c4c      	ldr	r4, [pc, #304]	; (40384c <prvTimerTask+0x15c>)
  40371c:	4798      	blx	r3
  40371e:	47a0      	blx	r4
  403720:	4f4b      	ldr	r7, [pc, #300]	; (403850 <prvTimerTask+0x160>)
  403722:	4606      	mov	r6, r0
  403724:	683b      	ldr	r3, [r7, #0]
  403726:	46a2      	mov	sl, r4
  403728:	4298      	cmp	r0, r3
  40372a:	d203      	bcs.n	403734 <prvTimerTask+0x44>
  40372c:	4b49      	ldr	r3, [pc, #292]	; (403854 <prvTimerTask+0x164>)
  40372e:	4798      	blx	r3
  403730:	2301      	movs	r3, #1
  403732:	e000      	b.n	403736 <prvTimerTask+0x46>
  403734:	2300      	movs	r3, #0
  403736:	603e      	str	r6, [r7, #0]
  403738:	4c47      	ldr	r4, [pc, #284]	; (403858 <prvTimerTask+0x168>)
  40373a:	2b00      	cmp	r3, #0
  40373c:	d133      	bne.n	4037a6 <prvTimerTask+0xb6>
  40373e:	f1b8 0f00 	cmp.w	r8, #0
  403742:	d126      	bne.n	403792 <prvTimerTask+0xa2>
  403744:	42b5      	cmp	r5, r6
  403746:	d824      	bhi.n	403792 <prvTimerTask+0xa2>
  403748:	47a0      	blx	r4
  40374a:	f8d9 3000 	ldr.w	r3, [r9]
  40374e:	68db      	ldr	r3, [r3, #12]
  403750:	68dc      	ldr	r4, [r3, #12]
  403752:	4b42      	ldr	r3, [pc, #264]	; (40385c <prvTimerTask+0x16c>)
  403754:	1d20      	adds	r0, r4, #4
  403756:	4798      	blx	r3
  403758:	69e3      	ldr	r3, [r4, #28]
  40375a:	2b01      	cmp	r3, #1
  40375c:	d115      	bne.n	40378a <prvTimerTask+0x9a>
  40375e:	69a1      	ldr	r1, [r4, #24]
  403760:	4632      	mov	r2, r6
  403762:	4620      	mov	r0, r4
  403764:	4429      	add	r1, r5
  403766:	462b      	mov	r3, r5
  403768:	4e3d      	ldr	r6, [pc, #244]	; (403860 <prvTimerTask+0x170>)
  40376a:	47b0      	blx	r6
  40376c:	2801      	cmp	r0, #1
  40376e:	d10c      	bne.n	40378a <prvTimerTask+0x9a>
  403770:	462a      	mov	r2, r5
  403772:	f8cd 8000 	str.w	r8, [sp]
  403776:	4620      	mov	r0, r4
  403778:	4641      	mov	r1, r8
  40377a:	4643      	mov	r3, r8
  40377c:	4d39      	ldr	r5, [pc, #228]	; (403864 <prvTimerTask+0x174>)
  40377e:	47a8      	blx	r5
  403780:	b918      	cbnz	r0, 40378a <prvTimerTask+0x9a>
  403782:	4b39      	ldr	r3, [pc, #228]	; (403868 <prvTimerTask+0x178>)
  403784:	4798      	blx	r3
  403786:	bf00      	nop
  403788:	e7fd      	b.n	403786 <prvTimerTask+0x96>
  40378a:	6a63      	ldr	r3, [r4, #36]	; 0x24
  40378c:	4620      	mov	r0, r4
  40378e:	4798      	blx	r3
  403790:	e00a      	b.n	4037a8 <prvTimerTask+0xb8>
  403792:	4b36      	ldr	r3, [pc, #216]	; (40386c <prvTimerTask+0x17c>)
  403794:	1ba9      	subs	r1, r5, r6
  403796:	6818      	ldr	r0, [r3, #0]
  403798:	4b35      	ldr	r3, [pc, #212]	; (403870 <prvTimerTask+0x180>)
  40379a:	4798      	blx	r3
  40379c:	47a0      	blx	r4
  40379e:	b918      	cbnz	r0, 4037a8 <prvTimerTask+0xb8>
  4037a0:	4b34      	ldr	r3, [pc, #208]	; (403874 <prvTimerTask+0x184>)
  4037a2:	4798      	blx	r3
  4037a4:	e000      	b.n	4037a8 <prvTimerTask+0xb8>
  4037a6:	47a0      	blx	r4
  4037a8:	47d0      	blx	sl
  4037aa:	683b      	ldr	r3, [r7, #0]
  4037ac:	4605      	mov	r5, r0
  4037ae:	4298      	cmp	r0, r3
  4037b0:	d201      	bcs.n	4037b6 <prvTimerTask+0xc6>
  4037b2:	4b28      	ldr	r3, [pc, #160]	; (403854 <prvTimerTask+0x164>)
  4037b4:	4798      	blx	r3
  4037b6:	603d      	str	r5, [r7, #0]
  4037b8:	4b2c      	ldr	r3, [pc, #176]	; (40386c <prvTimerTask+0x17c>)
  4037ba:	2200      	movs	r2, #0
  4037bc:	6818      	ldr	r0, [r3, #0]
  4037be:	a903      	add	r1, sp, #12
  4037c0:	4613      	mov	r3, r2
  4037c2:	4c2d      	ldr	r4, [pc, #180]	; (403878 <prvTimerTask+0x188>)
  4037c4:	47a0      	blx	r4
  4037c6:	2800      	cmp	r0, #0
  4037c8:	d095      	beq.n	4036f6 <prvTimerTask+0x6>
  4037ca:	9c05      	ldr	r4, [sp, #20]
  4037cc:	b124      	cbz	r4, 4037d8 <prvTimerTask+0xe8>
  4037ce:	6963      	ldr	r3, [r4, #20]
  4037d0:	b113      	cbz	r3, 4037d8 <prvTimerTask+0xe8>
  4037d2:	1d20      	adds	r0, r4, #4
  4037d4:	4b21      	ldr	r3, [pc, #132]	; (40385c <prvTimerTask+0x16c>)
  4037d6:	4798      	blx	r3
  4037d8:	9e03      	ldr	r6, [sp, #12]
  4037da:	2e02      	cmp	r6, #2
  4037dc:	d021      	beq.n	403822 <prvTimerTask+0x132>
  4037de:	2e03      	cmp	r6, #3
  4037e0:	d02d      	beq.n	40383e <prvTimerTask+0x14e>
  4037e2:	2e00      	cmp	r6, #0
  4037e4:	d1e8      	bne.n	4037b8 <prvTimerTask+0xc8>
  4037e6:	9b04      	ldr	r3, [sp, #16]
  4037e8:	69a1      	ldr	r1, [r4, #24]
  4037ea:	4620      	mov	r0, r4
  4037ec:	4419      	add	r1, r3
  4037ee:	462a      	mov	r2, r5
  4037f0:	4f1b      	ldr	r7, [pc, #108]	; (403860 <prvTimerTask+0x170>)
  4037f2:	47b8      	blx	r7
  4037f4:	2801      	cmp	r0, #1
  4037f6:	d1df      	bne.n	4037b8 <prvTimerTask+0xc8>
  4037f8:	6a63      	ldr	r3, [r4, #36]	; 0x24
  4037fa:	4620      	mov	r0, r4
  4037fc:	4798      	blx	r3
  4037fe:	69e3      	ldr	r3, [r4, #28]
  403800:	2b01      	cmp	r3, #1
  403802:	d1d9      	bne.n	4037b8 <prvTimerTask+0xc8>
  403804:	69a2      	ldr	r2, [r4, #24]
  403806:	9b04      	ldr	r3, [sp, #16]
  403808:	4620      	mov	r0, r4
  40380a:	441a      	add	r2, r3
  40380c:	9600      	str	r6, [sp, #0]
  40380e:	4631      	mov	r1, r6
  403810:	4633      	mov	r3, r6
  403812:	4c14      	ldr	r4, [pc, #80]	; (403864 <prvTimerTask+0x174>)
  403814:	47a0      	blx	r4
  403816:	2800      	cmp	r0, #0
  403818:	d1ce      	bne.n	4037b8 <prvTimerTask+0xc8>
  40381a:	4b13      	ldr	r3, [pc, #76]	; (403868 <prvTimerTask+0x178>)
  40381c:	4798      	blx	r3
  40381e:	bf00      	nop
  403820:	e7fd      	b.n	40381e <prvTimerTask+0x12e>
  403822:	9904      	ldr	r1, [sp, #16]
  403824:	61a1      	str	r1, [r4, #24]
  403826:	b919      	cbnz	r1, 403830 <prvTimerTask+0x140>
  403828:	4b0f      	ldr	r3, [pc, #60]	; (403868 <prvTimerTask+0x178>)
  40382a:	4798      	blx	r3
  40382c:	bf00      	nop
  40382e:	e7fd      	b.n	40382c <prvTimerTask+0x13c>
  403830:	4620      	mov	r0, r4
  403832:	4429      	add	r1, r5
  403834:	462a      	mov	r2, r5
  403836:	462b      	mov	r3, r5
  403838:	4c09      	ldr	r4, [pc, #36]	; (403860 <prvTimerTask+0x170>)
  40383a:	47a0      	blx	r4
  40383c:	e7bc      	b.n	4037b8 <prvTimerTask+0xc8>
  40383e:	4620      	mov	r0, r4
  403840:	4b0e      	ldr	r3, [pc, #56]	; (40387c <prvTimerTask+0x18c>)
  403842:	4798      	blx	r3
  403844:	e7b8      	b.n	4037b8 <prvTimerTask+0xc8>
  403846:	bf00      	nop
  403848:	00402f21 	.word	0x00402f21
  40384c:	00402f31 	.word	0x00402f31
  403850:	20003df4 	.word	0x20003df4
  403854:	00403675 	.word	0x00403675
  403858:	0040304d 	.word	0x0040304d
  40385c:	004023bd 	.word	0x004023bd
  403860:	00403599 	.word	0x00403599
  403864:	00403625 	.word	0x00403625
  403868:	00402441 	.word	0x00402441
  40386c:	20003df8 	.word	0x20003df8
  403870:	00402bc5 	.word	0x00402bc5
  403874:	00402431 	.word	0x00402431
  403878:	00402a71 	.word	0x00402a71
  40387c:	00402651 	.word	0x00402651
  403880:	20003dc8 	.word	0x20003dc8
  403884:	00000000 	.word	0x00000000

00403888 <getPureAngle>:
  403888:	b510      	push	{r4, lr}
  40388a:	4603      	mov	r3, r0
  40388c:	e9d3 2302 	ldrd	r2, r3, [r3, #8]
  403890:	c803      	ldmia	r0, {r0, r1}
  403892:	4c07      	ldr	r4, [pc, #28]	; (4038b0 <getPureAngle+0x28>)
  403894:	47a0      	blx	r4
  403896:	4b07      	ldr	r3, [pc, #28]	; (4038b4 <getPureAngle+0x2c>)
  403898:	4798      	blx	r3
  40389a:	a303      	add	r3, pc, #12	; (adr r3, 4038a8 <getPureAngle+0x20>)
  40389c:	e9d3 2300 	ldrd	r2, r3, [r3]
  4038a0:	4c05      	ldr	r4, [pc, #20]	; (4038b8 <getPureAngle+0x30>)
  4038a2:	47a0      	blx	r4
  4038a4:	bd10      	pop	{r4, pc}
  4038a6:	bf00      	nop
  4038a8:	1a63c1f8 	.word	0x1a63c1f8
  4038ac:	404ca5dc 	.word	0x404ca5dc
  4038b0:	00405901 	.word	0x00405901
  4038b4:	004040b1 	.word	0x004040b1
  4038b8:	004056ad 	.word	0x004056ad
  4038bc:	f3af 8000 	nop.w

004038c0 <adxl_write.constprop.2>:
  4038c0:	b510      	push	{r4, lr}
  4038c2:	b088      	sub	sp, #32
  4038c4:	460c      	mov	r4, r1
  4038c6:	f88d 0007 	strb.w	r0, [sp, #7]
  4038ca:	2100      	movs	r1, #0
  4038cc:	a803      	add	r0, sp, #12
  4038ce:	2214      	movs	r2, #20
  4038d0:	4b0b      	ldr	r3, [pc, #44]	; (403900 <adxl_write.constprop.2+0x40>)
  4038d2:	4798      	blx	r3
  4038d4:	2301      	movs	r3, #1
  4038d6:	9304      	str	r3, [sp, #16]
  4038d8:	9306      	str	r3, [sp, #24]
  4038da:	2353      	movs	r3, #83	; 0x53
  4038dc:	f88d 301c 	strb.w	r3, [sp, #28]
  4038e0:	4b08      	ldr	r3, [pc, #32]	; (403904 <adxl_write.constprop.2+0x44>)
  4038e2:	f10d 0207 	add.w	r2, sp, #7
  4038e6:	f88d 400c 	strb.w	r4, [sp, #12]
  4038ea:	9205      	str	r2, [sp, #20]
  4038ec:	6818      	ldr	r0, [r3, #0]
  4038ee:	a903      	add	r1, sp, #12
  4038f0:	f04f 32ff 	mov.w	r2, #4294967295
  4038f4:	2300      	movs	r3, #0
  4038f6:	4c04      	ldr	r4, [pc, #16]	; (403908 <adxl_write.constprop.2+0x48>)
  4038f8:	47a0      	blx	r4
  4038fa:	b008      	add	sp, #32
  4038fc:	bd10      	pop	{r4, pc}
  4038fe:	bf00      	nop
  403900:	00406561 	.word	0x00406561
  403904:	20003ed0 	.word	0x20003ed0
  403908:	00400b91 	.word	0x00400b91

0040390c <itg_write.constprop.4>:
  40390c:	b510      	push	{r4, lr}
  40390e:	b088      	sub	sp, #32
  403910:	460c      	mov	r4, r1
  403912:	f88d 0007 	strb.w	r0, [sp, #7]
  403916:	2100      	movs	r1, #0
  403918:	a803      	add	r0, sp, #12
  40391a:	2214      	movs	r2, #20
  40391c:	4b0b      	ldr	r3, [pc, #44]	; (40394c <itg_write.constprop.4+0x40>)
  40391e:	4798      	blx	r3
  403920:	2301      	movs	r3, #1
  403922:	9304      	str	r3, [sp, #16]
  403924:	9306      	str	r3, [sp, #24]
  403926:	2368      	movs	r3, #104	; 0x68
  403928:	f88d 301c 	strb.w	r3, [sp, #28]
  40392c:	4b08      	ldr	r3, [pc, #32]	; (403950 <itg_write.constprop.4+0x44>)
  40392e:	f10d 0207 	add.w	r2, sp, #7
  403932:	f88d 400c 	strb.w	r4, [sp, #12]
  403936:	9205      	str	r2, [sp, #20]
  403938:	6818      	ldr	r0, [r3, #0]
  40393a:	a903      	add	r1, sp, #12
  40393c:	f04f 32ff 	mov.w	r2, #4294967295
  403940:	2300      	movs	r3, #0
  403942:	4c04      	ldr	r4, [pc, #16]	; (403954 <itg_write.constprop.4+0x48>)
  403944:	47a0      	blx	r4
  403946:	b008      	add	sp, #32
  403948:	bd10      	pop	{r4, pc}
  40394a:	bf00      	nop
  40394c:	00406561 	.word	0x00406561
  403950:	20003ed0 	.word	0x20003ed0
  403954:	00400b91 	.word	0x00400b91

00403958 <adxl_read.constprop.7>:
  403958:	b530      	push	{r4, r5, lr}
  40395a:	b087      	sub	sp, #28
  40395c:	4605      	mov	r5, r0
  40395e:	460c      	mov	r4, r1
  403960:	a801      	add	r0, sp, #4
  403962:	2100      	movs	r1, #0
  403964:	2214      	movs	r2, #20
  403966:	4b0b      	ldr	r3, [pc, #44]	; (403994 <adxl_read.constprop.7+0x3c>)
  403968:	4798      	blx	r3
  40396a:	2332      	movs	r3, #50	; 0x32
  40396c:	f88d 3004 	strb.w	r3, [sp, #4]
  403970:	2301      	movs	r3, #1
  403972:	9302      	str	r3, [sp, #8]
  403974:	2353      	movs	r3, #83	; 0x53
  403976:	f88d 3014 	strb.w	r3, [sp, #20]
  40397a:	4b07      	ldr	r3, [pc, #28]	; (403998 <adxl_read.constprop.7+0x40>)
  40397c:	9404      	str	r4, [sp, #16]
  40397e:	6818      	ldr	r0, [r3, #0]
  403980:	a901      	add	r1, sp, #4
  403982:	f04f 32ff 	mov.w	r2, #4294967295
  403986:	2300      	movs	r3, #0
  403988:	4c04      	ldr	r4, [pc, #16]	; (40399c <adxl_read.constprop.7+0x44>)
  40398a:	9503      	str	r5, [sp, #12]
  40398c:	47a0      	blx	r4
  40398e:	b007      	add	sp, #28
  403990:	bd30      	pop	{r4, r5, pc}
  403992:	bf00      	nop
  403994:	00406561 	.word	0x00406561
  403998:	20003ed0 	.word	0x20003ed0
  40399c:	00400cf1 	.word	0x00400cf1

004039a0 <getAllAcelValue.constprop.6>:
  4039a0:	b5f7      	push	{r0, r1, r2, r4, r5, r6, r7, lr}
  4039a2:	4b25      	ldr	r3, [pc, #148]	; (403a38 <getAllAcelValue.constprop.6+0x98>)
  4039a4:	4925      	ldr	r1, [pc, #148]	; (403a3c <getAllAcelValue.constprop.6+0x9c>)
  4039a6:	2203      	movs	r2, #3
  4039a8:	4604      	mov	r4, r0
  4039aa:	4798      	blx	r3
  4039ac:	2300      	movs	r3, #0
  4039ae:	9300      	str	r3, [sp, #0]
  4039b0:	f8ad 3004 	strh.w	r3, [sp, #4]
  4039b4:	4668      	mov	r0, sp
  4039b6:	2106      	movs	r1, #6
  4039b8:	4b21      	ldr	r3, [pc, #132]	; (403a40 <getAllAcelValue.constprop.6+0xa0>)
  4039ba:	4798      	blx	r3
  4039bc:	2800      	cmp	r0, #0
  4039be:	d132      	bne.n	403a26 <getAllAcelValue.constprop.6+0x86>
  4039c0:	4605      	mov	r5, r0
  4039c2:	ab00      	add	r3, sp, #0
  4039c4:	442b      	add	r3, r5
  4039c6:	7858      	ldrb	r0, [r3, #1]
  4039c8:	f81d 3005 	ldrb.w	r3, [sp, r5]
  4039cc:	4e1d      	ldr	r6, [pc, #116]	; (403a44 <getAllAcelValue.constprop.6+0xa4>)
  4039ce:	ea43 2000 	orr.w	r0, r3, r0, lsl #8
  4039d2:	f410 4f7c 	tst.w	r0, #64512	; 0xfc00
  4039d6:	4b1c      	ldr	r3, [pc, #112]	; (403a48 <getAllAcelValue.constprop.6+0xa8>)
  4039d8:	4f1c      	ldr	r7, [pc, #112]	; (403a4c <getAllAcelValue.constprop.6+0xac>)
  4039da:	d108      	bne.n	4039ee <getAllAcelValue.constprop.6+0x4e>
  4039dc:	4798      	blx	r3
  4039de:	47b0      	blx	r6
  4039e0:	a313      	add	r3, pc, #76	; (adr r3, 403a30 <getAllAcelValue.constprop.6+0x90>)
  4039e2:	e9d3 2300 	ldrd	r2, r3, [r3]
  4039e6:	47b8      	blx	r7
  4039e8:	e9c4 0100 	strd	r0, r1, [r4]
  4039ec:	e00c      	b.n	403a08 <getAllAcelValue.constprop.6+0x68>
  4039ee:	4240      	negs	r0, r0
  4039f0:	f3c0 0009 	ubfx	r0, r0, #0, #10
  4039f4:	4798      	blx	r3
  4039f6:	47b0      	blx	r6
  4039f8:	a30d      	add	r3, pc, #52	; (adr r3, 403a30 <getAllAcelValue.constprop.6+0x90>)
  4039fa:	e9d3 2300 	ldrd	r2, r3, [r3]
  4039fe:	47b8      	blx	r7
  403a00:	f101 4300 	add.w	r3, r1, #2147483648	; 0x80000000
  403a04:	6020      	str	r0, [r4, #0]
  403a06:	6063      	str	r3, [r4, #4]
  403a08:	4b11      	ldr	r3, [pc, #68]	; (403a50 <getAllAcelValue.constprop.6+0xb0>)
  403a0a:	f853 0015 	ldr.w	r0, [r3, r5, lsl #1]
  403a0e:	47b0      	blx	r6
  403a10:	4e10      	ldr	r6, [pc, #64]	; (403a54 <getAllAcelValue.constprop.6+0xb4>)
  403a12:	4602      	mov	r2, r0
  403a14:	460b      	mov	r3, r1
  403a16:	e9d4 0100 	ldrd	r0, r1, [r4]
  403a1a:	47b0      	blx	r6
  403a1c:	3502      	adds	r5, #2
  403a1e:	2d06      	cmp	r5, #6
  403a20:	e8e4 0102 	strd	r0, r1, [r4], #8
  403a24:	d1cd      	bne.n	4039c2 <getAllAcelValue.constprop.6+0x22>
  403a26:	b003      	add	sp, #12
  403a28:	bdf0      	pop	{r4, r5, r6, r7, pc}
  403a2a:	bf00      	nop
  403a2c:	f3af 8000 	nop.w
  403a30:	33333333 	.word	0x33333333
  403a34:	400f3333 	.word	0x400f3333
  403a38:	00406561 	.word	0x00406561
  403a3c:	ffffc180 	.word	0xffffc180
  403a40:	00403959 	.word	0x00403959
  403a44:	00405605 	.word	0x00405605
  403a48:	00405d9d 	.word	0x00405d9d
  403a4c:	004056ad 	.word	0x004056ad
  403a50:	0040c440 	.word	0x0040c440
  403a54:	00405349 	.word	0x00405349

00403a58 <intpin_handler>:
  403a58:	b510      	push	{r4, lr}
  403a5a:	4b04      	ldr	r3, [pc, #16]	; (403a6c <intpin_handler+0x14>)
  403a5c:	2100      	movs	r1, #0
  403a5e:	6818      	ldr	r0, [r3, #0]
  403a60:	460a      	mov	r2, r1
  403a62:	460b      	mov	r3, r1
  403a64:	4c02      	ldr	r4, [pc, #8]	; (403a70 <intpin_handler+0x18>)
  403a66:	47a0      	blx	r4
  403a68:	bd10      	pop	{r4, pc}
  403a6a:	bf00      	nop
  403a6c:	20003ed8 	.word	0x20003ed8
  403a70:	004029f5 	.word	0x004029f5

00403a74 <twi_init>:
  403a74:	b51f      	push	{r0, r1, r2, r3, r4, lr}
  403a76:	4b0b      	ldr	r3, [pc, #44]	; (403aa4 <twi_init+0x30>)
  403a78:	cb0f      	ldmia	r3, {r0, r1, r2, r3}
  403a7a:	e88d 000f 	stmia.w	sp, {r0, r1, r2, r3}
  403a7e:	4b0a      	ldr	r3, [pc, #40]	; (403aa8 <twi_init+0x34>)
  403a80:	480a      	ldr	r0, [pc, #40]	; (403aac <twi_init+0x38>)
  403a82:	4669      	mov	r1, sp
  403a84:	4798      	blx	r3
  403a86:	4b0a      	ldr	r3, [pc, #40]	; (403ab0 <twi_init+0x3c>)
  403a88:	6018      	str	r0, [r3, #0]
  403a8a:	b918      	cbnz	r0, 403a94 <twi_init+0x20>
  403a8c:	4b09      	ldr	r3, [pc, #36]	; (403ab4 <twi_init+0x40>)
  403a8e:	4798      	blx	r3
  403a90:	bf00      	nop
  403a92:	e7fd      	b.n	403a90 <twi_init+0x1c>
  403a94:	4908      	ldr	r1, [pc, #32]	; (403ab8 <twi_init+0x44>)
  403a96:	4a09      	ldr	r2, [pc, #36]	; (403abc <twi_init+0x48>)
  403a98:	4b09      	ldr	r3, [pc, #36]	; (403ac0 <twi_init+0x4c>)
  403a9a:	4804      	ldr	r0, [pc, #16]	; (403aac <twi_init+0x38>)
  403a9c:	4798      	blx	r3
  403a9e:	b2c0      	uxtb	r0, r0
  403aa0:	b004      	add	sp, #16
  403aa2:	bd10      	pop	{r4, pc}
  403aa4:	0040c430 	.word	0x0040c430
  403aa8:	00400a85 	.word	0x00400a85
  403aac:	40018000 	.word	0x40018000
  403ab0:	20003ed0 	.word	0x20003ed0
  403ab4:	00402441 	.word	0x00402441
  403ab8:	00061a80 	.word	0x00061a80
  403abc:	02dc6c00 	.word	0x02dc6c00
  403ac0:	004020c9 	.word	0x004020c9
  403ac4:	00000000 	.word	0x00000000

00403ac8 <IMUTask>:
  403ac8:	e92d 4ff0 	stmdb	sp!, {r4, r5, r6, r7, r8, r9, sl, fp, lr}
  403acc:	a32e      	add	r3, pc, #184	; (adr r3, 403b88 <IMUTask+0xc0>)
  403ace:	e9d3 2300 	ldrd	r2, r3, [r3]
  403ad2:	4d2f      	ldr	r5, [pc, #188]	; (403b90 <IMUTask+0xc8>)
  403ad4:	4c2f      	ldr	r4, [pc, #188]	; (403b94 <IMUTask+0xcc>)
  403ad6:	e9c5 2300 	strd	r2, r3, [r5]
  403ada:	b09f      	sub	sp, #124	; 0x7c
  403adc:	2203      	movs	r2, #3
  403ade:	2001      	movs	r0, #1
  403ae0:	2100      	movs	r1, #0
  403ae2:	47a0      	blx	r4
  403ae4:	4a2c      	ldr	r2, [pc, #176]	; (403b98 <IMUTask+0xd0>)
  403ae6:	4625      	mov	r5, r4
  403ae8:	6010      	str	r0, [r2, #0]
  403aea:	4692      	mov	sl, r2
  403aec:	b120      	cbz	r0, 403af8 <IMUTask+0x30>
  403aee:	2100      	movs	r1, #0
  403af0:	460a      	mov	r2, r1
  403af2:	460b      	mov	r3, r1
  403af4:	4c29      	ldr	r4, [pc, #164]	; (403b9c <IMUTask+0xd4>)
  403af6:	47a0      	blx	r4
  403af8:	f8da 0000 	ldr.w	r0, [sl]
  403afc:	b918      	cbnz	r0, 403b06 <IMUTask+0x3e>
  403afe:	4b28      	ldr	r3, [pc, #160]	; (403ba0 <IMUTask+0xd8>)
  403b00:	4798      	blx	r3
  403b02:	bf00      	nop
  403b04:	e7fd      	b.n	403b02 <IMUTask+0x3a>
  403b06:	2100      	movs	r1, #0
  403b08:	460a      	mov	r2, r1
  403b0a:	460b      	mov	r3, r1
  403b0c:	4c25      	ldr	r4, [pc, #148]	; (403ba4 <IMUTask+0xdc>)
  403b0e:	47a0      	blx	r4
  403b10:	2203      	movs	r2, #3
  403b12:	2001      	movs	r0, #1
  403b14:	2100      	movs	r1, #0
  403b16:	47a8      	blx	r5
  403b18:	4a23      	ldr	r2, [pc, #140]	; (403ba8 <IMUTask+0xe0>)
  403b1a:	46a3      	mov	fp, r4
  403b1c:	6010      	str	r0, [r2, #0]
  403b1e:	4614      	mov	r4, r2
  403b20:	b120      	cbz	r0, 403b2c <IMUTask+0x64>
  403b22:	2100      	movs	r1, #0
  403b24:	460a      	mov	r2, r1
  403b26:	460b      	mov	r3, r1
  403b28:	4d1c      	ldr	r5, [pc, #112]	; (403b9c <IMUTask+0xd4>)
  403b2a:	47a8      	blx	r5
  403b2c:	6820      	ldr	r0, [r4, #0]
  403b2e:	b918      	cbnz	r0, 403b38 <IMUTask+0x70>
  403b30:	4b1b      	ldr	r3, [pc, #108]	; (403ba0 <IMUTask+0xd8>)
  403b32:	4798      	blx	r3
  403b34:	bf00      	nop
  403b36:	e7fd      	b.n	403b34 <IMUTask+0x6c>
  403b38:	2100      	movs	r1, #0
  403b3a:	460b      	mov	r3, r1
  403b3c:	460a      	mov	r2, r1
  403b3e:	47d8      	blx	fp
  403b40:	4b1a      	ldr	r3, [pc, #104]	; (403bac <IMUTask+0xe4>)
  403b42:	4798      	blx	r3
  403b44:	b108      	cbz	r0, 403b4a <IMUTask+0x82>
  403b46:	481a      	ldr	r0, [pc, #104]	; (403bb0 <IMUTask+0xe8>)
  403b48:	e048      	b.n	403bdc <IMUTask+0x114>
  403b4a:	2008      	movs	r0, #8
  403b4c:	2131      	movs	r1, #49	; 0x31
  403b4e:	4c19      	ldr	r4, [pc, #100]	; (403bb4 <IMUTask+0xec>)
  403b50:	47a0      	blx	r4
  403b52:	b9a0      	cbnz	r0, 403b7e <IMUTask+0xb6>
  403b54:	4b18      	ldr	r3, [pc, #96]	; (403bb8 <IMUTask+0xf0>)
  403b56:	212c      	movs	r1, #44	; 0x2c
  403b58:	7818      	ldrb	r0, [r3, #0]
  403b5a:	47a0      	blx	r4
  403b5c:	b978      	cbnz	r0, 403b7e <IMUTask+0xb6>
  403b5e:	2080      	movs	r0, #128	; 0x80
  403b60:	212e      	movs	r1, #46	; 0x2e
  403b62:	47a0      	blx	r4
  403b64:	b958      	cbnz	r0, 403b7e <IMUTask+0xb6>
  403b66:	207f      	movs	r0, #127	; 0x7f
  403b68:	212f      	movs	r1, #47	; 0x2f
  403b6a:	47a0      	blx	r4
  403b6c:	b938      	cbnz	r0, 403b7e <IMUTask+0xb6>
  403b6e:	2101      	movs	r1, #1
  403b70:	a818      	add	r0, sp, #96	; 0x60
  403b72:	4b12      	ldr	r3, [pc, #72]	; (403bbc <IMUTask+0xf4>)
  403b74:	4798      	blx	r3
  403b76:	2008      	movs	r0, #8
  403b78:	212d      	movs	r1, #45	; 0x2d
  403b7a:	47a0      	blx	r4
  403b7c:	b310      	cbz	r0, 403bc4 <IMUTask+0xfc>
  403b7e:	4810      	ldr	r0, [pc, #64]	; (403bc0 <IMUTask+0xf8>)
  403b80:	e02c      	b.n	403bdc <IMUTask+0x114>
  403b82:	bf00      	nop
  403b84:	f3af 8000 	nop.w
  403b88:	47ae147b 	.word	0x47ae147b
  403b8c:	3fc47ae1 	.word	0x3fc47ae1
  403b90:	20003f10 	.word	0x20003f10
  403b94:	00402805 	.word	0x00402805
  403b98:	20003e4c 	.word	0x20003e4c
  403b9c:	00402881 	.word	0x00402881
  403ba0:	00402441 	.word	0x00402441
  403ba4:	00402a71 	.word	0x00402a71
  403ba8:	20003ed8 	.word	0x20003ed8
  403bac:	00403a75 	.word	0x00403a75
  403bb0:	0040c458 	.word	0x0040c458
  403bb4:	004038c1 	.word	0x004038c1
  403bb8:	200000d8 	.word	0x200000d8
  403bbc:	00403959 	.word	0x00403959
  403bc0:	0040c468 	.word	0x0040c468
  403bc4:	201b      	movs	r0, #27
  403bc6:	2116      	movs	r1, #22
  403bc8:	4c87      	ldr	r4, [pc, #540]	; (403de8 <IMUTask+0x320>)
  403bca:	47a0      	blx	r4
  403bcc:	b928      	cbnz	r0, 403bda <IMUTask+0x112>
  403bce:	2115      	movs	r1, #21
  403bd0:	47a0      	blx	r4
  403bd2:	b910      	cbnz	r0, 403bda <IMUTask+0x112>
  403bd4:	213e      	movs	r1, #62	; 0x3e
  403bd6:	47a0      	blx	r4
  403bd8:	b158      	cbz	r0, 403bf2 <IMUTask+0x12a>
  403bda:	4884      	ldr	r0, [pc, #528]	; (403dec <IMUTask+0x324>)
  403bdc:	4b84      	ldr	r3, [pc, #528]	; (403df0 <IMUTask+0x328>)
  403bde:	4798      	blx	r3
  403be0:	4884      	ldr	r0, [pc, #528]	; (403df4 <IMUTask+0x32c>)
  403be2:	4b83      	ldr	r3, [pc, #524]	; (403df0 <IMUTask+0x328>)
  403be4:	4798      	blx	r3
  403be6:	2019      	movs	r0, #25
  403be8:	4b83      	ldr	r3, [pc, #524]	; (403df8 <IMUTask+0x330>)
  403bea:	4798      	blx	r3
  403bec:	2000      	movs	r0, #0
  403bee:	4b83      	ldr	r3, [pc, #524]	; (403dfc <IMUTask+0x334>)
  403bf0:	4798      	blx	r3
  403bf2:	2400      	movs	r4, #0
  403bf4:	2500      	movs	r5, #0
  403bf6:	a818      	add	r0, sp, #96	; 0x60
  403bf8:	4b81      	ldr	r3, [pc, #516]	; (403e00 <IMUTask+0x338>)
  403bfa:	e9cd 4506 	strd	r4, r5, [sp, #24]
  403bfe:	4798      	blx	r3
  403c00:	a818      	add	r0, sp, #96	; 0x60
  403c02:	4b80      	ldr	r3, [pc, #512]	; (403e04 <IMUTask+0x33c>)
  403c04:	4798      	blx	r3
  403c06:	e9cd 450a 	strd	r4, r5, [sp, #40]	; 0x28
  403c0a:	e9cd 0108 	strd	r0, r1, [sp, #32]
  403c0e:	4b7e      	ldr	r3, [pc, #504]	; (403e08 <IMUTask+0x340>)
  403c10:	2100      	movs	r1, #0
  403c12:	6818      	ldr	r0, [r3, #0]
  403c14:	f04f 32ff 	mov.w	r2, #4294967295
  403c18:	460b      	mov	r3, r1
  403c1a:	47d8      	blx	fp
  403c1c:	2100      	movs	r1, #0
  403c1e:	2218      	movs	r2, #24
  403c20:	4b7a      	ldr	r3, [pc, #488]	; (403e0c <IMUTask+0x344>)
  403c22:	a812      	add	r0, sp, #72	; 0x48
  403c24:	4798      	blx	r3
  403c26:	a812      	add	r0, sp, #72	; 0x48
  403c28:	4b75      	ldr	r3, [pc, #468]	; (403e00 <IMUTask+0x338>)
  403c2a:	4798      	blx	r3
  403c2c:	2400      	movs	r4, #0
  403c2e:	4d78      	ldr	r5, [pc, #480]	; (403e10 <IMUTask+0x348>)
  403c30:	2100      	movs	r1, #0
  403c32:	f855 0024 	ldr.w	r0, [r5, r4, lsl #2]
  403c36:	4f77      	ldr	r7, [pc, #476]	; (403e14 <IMUTask+0x34c>)
  403c38:	47b8      	blx	r7
  403c3a:	ab12      	add	r3, sp, #72	; 0x48
  403c3c:	f855 0024 	ldr.w	r0, [r5, r4, lsl #2]
  403c40:	eb03 01c4 	add.w	r1, r3, r4, lsl #3
  403c44:	2200      	movs	r2, #0
  403c46:	2301      	movs	r3, #1
  403c48:	4d73      	ldr	r5, [pc, #460]	; (403e18 <IMUTask+0x350>)
  403c4a:	3401      	adds	r4, #1
  403c4c:	47a8      	blx	r5
  403c4e:	2c03      	cmp	r4, #3
  403c50:	d1ed      	bne.n	403c2e <IMUTask+0x166>
  403c52:	f8df 91b0 	ldr.w	r9, [pc, #432]	; 403e04 <IMUTask+0x33c>
  403c56:	a812      	add	r0, sp, #72	; 0x48
  403c58:	47c8      	blx	r9
  403c5a:	f10d 0878 	add.w	r8, sp, #120	; 0x78
  403c5e:	4d6f      	ldr	r5, [pc, #444]	; (403e1c <IMUTask+0x354>)
  403c60:	e968 0118 	strd	r0, r1, [r8, #-96]!	; 0x60
  403c64:	6828      	ldr	r0, [r5, #0]
  403c66:	2100      	movs	r1, #0
  403c68:	47b8      	blx	r7
  403c6a:	4e6b      	ldr	r6, [pc, #428]	; (403e18 <IMUTask+0x350>)
  403c6c:	4641      	mov	r1, r8
  403c6e:	2200      	movs	r2, #0
  403c70:	2301      	movs	r3, #1
  403c72:	6828      	ldr	r0, [r5, #0]
  403c74:	47b0      	blx	r6
  403c76:	a812      	add	r0, sp, #72	; 0x48
  403c78:	47c8      	blx	r9
  403c7a:	4e69      	ldr	r6, [pc, #420]	; (403e20 <IMUTask+0x358>)
  403c7c:	f8df 91c4 	ldr.w	r9, [pc, #452]	; 403e44 <IMUTask+0x37c>
  403c80:	e9d6 2300 	ldrd	r2, r3, [r6]
  403c84:	e9cd 0100 	strd	r0, r1, [sp]
  403c88:	e9dd 011c 	ldrd	r0, r1, [sp, #112]	; 0x70
  403c8c:	47c8      	blx	r9
  403c8e:	e9dd 2308 	ldrd	r2, r3, [sp, #32]
  403c92:	f8df 81b4 	ldr.w	r8, [pc, #436]	; 403e48 <IMUTask+0x380>
  403c96:	47c0      	blx	r8
  403c98:	a34f      	add	r3, pc, #316	; (adr r3, 403dd8 <IMUTask+0x310>)
  403c9a:	e9d3 2300 	ldrd	r2, r3, [r3]
  403c9e:	47c8      	blx	r9
  403ca0:	a34f      	add	r3, pc, #316	; (adr r3, 403de0 <IMUTask+0x318>)
  403ca2:	e9d3 2300 	ldrd	r2, r3, [r3]
  403ca6:	e9cd 0102 	strd	r0, r1, [sp, #8]
  403caa:	e9dd 0100 	ldrd	r0, r1, [sp]
  403cae:	47c8      	blx	r9
  403cb0:	4602      	mov	r2, r0
  403cb2:	460b      	mov	r3, r1
  403cb4:	e9dd 0102 	ldrd	r0, r1, [sp, #8]
  403cb8:	47c0      	blx	r8
  403cba:	f10d 0978 	add.w	r9, sp, #120	; 0x78
  403cbe:	e969 0116 	strd	r0, r1, [r9, #-88]!	; 0x58
  403cc2:	6868      	ldr	r0, [r5, #4]
  403cc4:	2100      	movs	r1, #0
  403cc6:	47b8      	blx	r7
  403cc8:	4e53      	ldr	r6, [pc, #332]	; (403e18 <IMUTask+0x350>)
  403cca:	2200      	movs	r2, #0
  403ccc:	2301      	movs	r3, #1
  403cce:	6868      	ldr	r0, [r5, #4]
  403cd0:	4649      	mov	r1, r9
  403cd2:	47b0      	blx	r6
  403cd4:	68a8      	ldr	r0, [r5, #8]
  403cd6:	2100      	movs	r1, #0
  403cd8:	47b8      	blx	r7
  403cda:	2301      	movs	r3, #1
  403cdc:	68a8      	ldr	r0, [r5, #8]
  403cde:	a90a      	add	r1, sp, #40	; 0x28
  403ce0:	2200      	movs	r2, #0
  403ce2:	47b0      	blx	r6
  403ce4:	4d49      	ldr	r5, [pc, #292]	; (403e0c <IMUTask+0x344>)
  403ce6:	2100      	movs	r1, #0
  403ce8:	2218      	movs	r2, #24
  403cea:	a818      	add	r0, sp, #96	; 0x60
  403cec:	47a8      	blx	r5
  403cee:	4622      	mov	r2, r4
  403cf0:	494c      	ldr	r1, [pc, #304]	; (403e24 <IMUTask+0x35c>)
  403cf2:	2400      	movs	r4, #0
  403cf4:	a818      	add	r0, sp, #96	; 0x60
  403cf6:	47a8      	blx	r5
  403cf8:	4621      	mov	r1, r4
  403cfa:	2214      	movs	r2, #20
  403cfc:	a80d      	add	r0, sp, #52	; 0x34
  403cfe:	9404      	str	r4, [sp, #16]
  403d00:	f8ad 4014 	strh.w	r4, [sp, #20]
  403d04:	47a8      	blx	r5
  403d06:	231d      	movs	r3, #29
  403d08:	f88d 3034 	strb.w	r3, [sp, #52]	; 0x34
  403d0c:	2301      	movs	r3, #1
  403d0e:	930e      	str	r3, [sp, #56]	; 0x38
  403d10:	ab04      	add	r3, sp, #16
  403d12:	930f      	str	r3, [sp, #60]	; 0x3c
  403d14:	2306      	movs	r3, #6
  403d16:	9310      	str	r3, [sp, #64]	; 0x40
  403d18:	2368      	movs	r3, #104	; 0x68
  403d1a:	f88d 3044 	strb.w	r3, [sp, #68]	; 0x44
  403d1e:	4b42      	ldr	r3, [pc, #264]	; (403e28 <IMUTask+0x360>)
  403d20:	a90d      	add	r1, sp, #52	; 0x34
  403d22:	6818      	ldr	r0, [r3, #0]
  403d24:	f04f 32ff 	mov.w	r2, #4294967295
  403d28:	4623      	mov	r3, r4
  403d2a:	4c40      	ldr	r4, [pc, #256]	; (403e2c <IMUTask+0x364>)
  403d2c:	47a0      	blx	r4
  403d2e:	4646      	mov	r6, r8
  403d30:	2800      	cmp	r0, #0
  403d32:	d134      	bne.n	403d9e <IMUTask+0x2d6>
  403d34:	ac18      	add	r4, sp, #96	; 0x60
  403d36:	4607      	mov	r7, r0
  403d38:	ad04      	add	r5, sp, #16
  403d3a:	462b      	mov	r3, r5
  403d3c:	443b      	add	r3, r7
  403d3e:	5dea      	ldrb	r2, [r5, r7]
  403d40:	785b      	ldrb	r3, [r3, #1]
  403d42:	4d3b      	ldr	r5, [pc, #236]	; (403e30 <IMUTask+0x368>)
  403d44:	ea43 2302 	orr.w	r3, r3, r2, lsl #8
  403d48:	f413 4f00 	tst.w	r3, #32768	; 0x8000
  403d4c:	b298      	uxth	r0, r3
  403d4e:	4b39      	ldr	r3, [pc, #228]	; (403e34 <IMUTask+0x36c>)
  403d50:	d109      	bne.n	403d66 <IMUTask+0x29e>
  403d52:	4798      	blx	r3
  403d54:	47a8      	blx	r5
  403d56:	2200      	movs	r2, #0
  403d58:	4b37      	ldr	r3, [pc, #220]	; (403e38 <IMUTask+0x370>)
  403d5a:	f8df c0f0 	ldr.w	ip, [pc, #240]	; 403e4c <IMUTask+0x384>
  403d5e:	47e0      	blx	ip
  403d60:	e9c4 0100 	strd	r0, r1, [r4]
  403d64:	e00d      	b.n	403d82 <IMUTask+0x2ba>
  403d66:	4240      	negs	r0, r0
  403d68:	f3c0 000e 	ubfx	r0, r0, #0, #15
  403d6c:	4798      	blx	r3
  403d6e:	47a8      	blx	r5
  403d70:	4b31      	ldr	r3, [pc, #196]	; (403e38 <IMUTask+0x370>)
  403d72:	2200      	movs	r2, #0
  403d74:	f8df c0d4 	ldr.w	ip, [pc, #212]	; 403e4c <IMUTask+0x384>
  403d78:	47e0      	blx	ip
  403d7a:	f101 4300 	add.w	r3, r1, #2147483648	; 0x80000000
  403d7e:	6020      	str	r0, [r4, #0]
  403d80:	6063      	str	r3, [r4, #4]
  403d82:	4b2e      	ldr	r3, [pc, #184]	; (403e3c <IMUTask+0x374>)
  403d84:	f853 0017 	ldr.w	r0, [r3, r7, lsl #1]
  403d88:	47a8      	blx	r5
  403d8a:	4602      	mov	r2, r0
  403d8c:	460b      	mov	r3, r1
  403d8e:	e9d4 0100 	ldrd	r0, r1, [r4]
  403d92:	47b0      	blx	r6
  403d94:	3702      	adds	r7, #2
  403d96:	2f06      	cmp	r7, #6
  403d98:	e8e4 0102 	strd	r0, r1, [r4], #8
  403d9c:	d1cc      	bne.n	403d38 <IMUTask+0x270>
  403d9e:	2400      	movs	r4, #0
  403da0:	4d27      	ldr	r5, [pc, #156]	; (403e40 <IMUTask+0x378>)
  403da2:	2100      	movs	r1, #0
  403da4:	f855 0024 	ldr.w	r0, [r5, r4, lsl #2]
  403da8:	4b1a      	ldr	r3, [pc, #104]	; (403e14 <IMUTask+0x34c>)
  403daa:	ae18      	add	r6, sp, #96	; 0x60
  403dac:	4798      	blx	r3
  403dae:	f855 0024 	ldr.w	r0, [r5, r4, lsl #2]
  403db2:	eb06 01c4 	add.w	r1, r6, r4, lsl #3
  403db6:	2200      	movs	r2, #0
  403db8:	2301      	movs	r3, #1
  403dba:	4d17      	ldr	r5, [pc, #92]	; (403e18 <IMUTask+0x350>)
  403dbc:	3401      	adds	r4, #1
  403dbe:	47a8      	blx	r5
  403dc0:	2c03      	cmp	r4, #3
  403dc2:	d1ed      	bne.n	403da0 <IMUTask+0x2d8>
  403dc4:	2100      	movs	r1, #0
  403dc6:	f8da 0000 	ldr.w	r0, [sl]
  403dca:	460a      	mov	r2, r1
  403dcc:	460b      	mov	r3, r1
  403dce:	47a8      	blx	r5
  403dd0:	e71d      	b.n	403c0e <IMUTask+0x146>
  403dd2:	bf00      	nop
  403dd4:	f3af 8000 	nop.w
  403dd8:	e219652c 	.word	0xe219652c
  403ddc:	3fed1758 	.word	0x3fed1758
  403de0:	ef34d6a0 	.word	0xef34d6a0
  403de4:	3fb74538 	.word	0x3fb74538
  403de8:	0040390d 	.word	0x0040390d
  403dec:	0040c479 	.word	0x0040c479
  403df0:	004003f9 	.word	0x004003f9
  403df4:	0040c489 	.word	0x0040c489
  403df8:	004014f9 	.word	0x004014f9
  403dfc:	00402e39 	.word	0x00402e39
  403e00:	004039a1 	.word	0x004039a1
  403e04:	00403889 	.word	0x00403889
  403e08:	20003ed8 	.word	0x20003ed8
  403e0c:	00406561 	.word	0x00406561
  403e10:	20003e50 	.word	0x20003e50
  403e14:	00402789 	.word	0x00402789
  403e18:	00402881 	.word	0x00402881
  403e1c:	20003e34 	.word	0x20003e34
  403e20:	20003f10 	.word	0x20003f10
  403e24:	ffffc180 	.word	0xffffc180
  403e28:	20003ed0 	.word	0x20003ed0
  403e2c:	00400cf1 	.word	0x00400cf1
  403e30:	00405605 	.word	0x00405605
  403e34:	00405d9d 	.word	0x00405d9d
  403e38:	402cc000 	.word	0x402cc000
  403e3c:	0040c44c 	.word	0x0040c44c
  403e40:	20003e40 	.word	0x20003e40
  403e44:	004056ad 	.word	0x004056ad
  403e48:	00405349 	.word	0x00405349
  403e4c:	00405901 	.word	0x00405901

00403e50 <button_handler>:
  403e50:	b510      	push	{r4, lr}
  403e52:	4b04      	ldr	r3, [pc, #16]	; (403e64 <button_handler+0x14>)
  403e54:	2100      	movs	r1, #0
  403e56:	6818      	ldr	r0, [r3, #0]
  403e58:	460a      	mov	r2, r1
  403e5a:	460b      	mov	r3, r1
  403e5c:	4c02      	ldr	r4, [pc, #8]	; (403e68 <button_handler+0x18>)
  403e5e:	47a0      	blx	r4
  403e60:	bd10      	pop	{r4, pc}
  403e62:	bf00      	nop
  403e64:	20003f1c 	.word	0x20003f1c
  403e68:	004029f5 	.word	0x004029f5

00403e6c <task_led0>:
  403e6c:	b508      	push	{r3, lr}
  403e6e:	2017      	movs	r0, #23
  403e70:	4b03      	ldr	r3, [pc, #12]	; (403e80 <task_led0+0x14>)
  403e72:	4798      	blx	r3
  403e74:	f44f 70fa 	mov.w	r0, #500	; 0x1f4
  403e78:	4b02      	ldr	r3, [pc, #8]	; (403e84 <task_led0+0x18>)
  403e7a:	4798      	blx	r3
  403e7c:	e7f7      	b.n	403e6e <task_led0+0x2>
  403e7e:	bf00      	nop
  403e80:	00401c75 	.word	0x00401c75
  403e84:	00403135 	.word	0x00403135

00403e88 <vApplicationStackOverflowHook>:
  403e88:	b508      	push	{r3, lr}
  403e8a:	4603      	mov	r3, r0
  403e8c:	460a      	mov	r2, r1
  403e8e:	4804      	ldr	r0, [pc, #16]	; (403ea0 <vApplicationStackOverflowHook+0x18>)
  403e90:	4619      	mov	r1, r3
  403e92:	4b04      	ldr	r3, [pc, #16]	; (403ea4 <vApplicationStackOverflowHook+0x1c>)
  403e94:	4798      	blx	r3
  403e96:	2019      	movs	r0, #25
  403e98:	4b03      	ldr	r3, [pc, #12]	; (403ea8 <vApplicationStackOverflowHook+0x20>)
  403e9a:	4798      	blx	r3
  403e9c:	e7fb      	b.n	403e96 <vApplicationStackOverflowHook+0xe>
  403e9e:	bf00      	nop
  403ea0:	0040c494 	.word	0x0040c494
  403ea4:	00405e9d 	.word	0x00405e9d
  403ea8:	004014f9 	.word	0x004014f9

00403eac <vApplicationIdleHook>:
  403eac:	4770      	bx	lr

00403eae <vApplicationTickHook>:
  403eae:	4770      	bx	lr

00403eb0 <vApplicationMallocFailedHook>:
  403eb0:	b508      	push	{r3, lr}
  403eb2:	4b01      	ldr	r3, [pc, #4]	; (403eb8 <vApplicationMallocFailedHook+0x8>)
  403eb4:	4798      	blx	r3
  403eb6:	e7fe      	b.n	403eb6 <vApplicationMallocFailedHook+0x6>
  403eb8:	00402441 	.word	0x00402441

00403ebc <config_interrupt>:
  403ebc:	b537      	push	{r0, r1, r2, r4, r5, lr}
  403ebe:	4b26      	ldr	r3, [pc, #152]	; (403f58 <config_interrupt+0x9c>)
  403ec0:	f44f 4200 	mov.w	r2, #32768	; 0x8000
  403ec4:	4d25      	ldr	r5, [pc, #148]	; (403f5c <config_interrupt+0xa0>)
  403ec6:	9300      	str	r3, [sp, #0]
  403ec8:	210b      	movs	r1, #11
  403eca:	2350      	movs	r3, #80	; 0x50
  403ecc:	4824      	ldr	r0, [pc, #144]	; (403f60 <config_interrupt+0xa4>)
  403ece:	47a8      	blx	r5
  403ed0:	4c24      	ldr	r4, [pc, #144]	; (403f64 <config_interrupt+0xa8>)
  403ed2:	4823      	ldr	r0, [pc, #140]	; (403f60 <config_interrupt+0xa4>)
  403ed4:	f44f 4100 	mov.w	r1, #32768	; 0x8000
  403ed8:	47a0      	blx	r4
  403eda:	4821      	ldr	r0, [pc, #132]	; (403f60 <config_interrupt+0xa4>)
  403edc:	f44f 1180 	mov.w	r1, #1048576	; 0x100000
  403ee0:	2200      	movs	r2, #0
  403ee2:	4b21      	ldr	r3, [pc, #132]	; (403f68 <config_interrupt+0xac>)
  403ee4:	4798      	blx	r3
  403ee6:	481e      	ldr	r0, [pc, #120]	; (403f60 <config_interrupt+0xa4>)
  403ee8:	f44f 1180 	mov.w	r1, #1048576	; 0x100000
  403eec:	2201      	movs	r2, #1
  403eee:	4b1f      	ldr	r3, [pc, #124]	; (403f6c <config_interrupt+0xb0>)
  403ef0:	4798      	blx	r3
  403ef2:	4b1f      	ldr	r3, [pc, #124]	; (403f70 <config_interrupt+0xb4>)
  403ef4:	f44f 1280 	mov.w	r2, #1048576	; 0x100000
  403ef8:	9300      	str	r3, [sp, #0]
  403efa:	210b      	movs	r1, #11
  403efc:	2370      	movs	r3, #112	; 0x70
  403efe:	4818      	ldr	r0, [pc, #96]	; (403f60 <config_interrupt+0xa4>)
  403f00:	47a8      	blx	r5
  403f02:	4817      	ldr	r0, [pc, #92]	; (403f60 <config_interrupt+0xa4>)
  403f04:	f44f 1180 	mov.w	r1, #1048576	; 0x100000
  403f08:	47a0      	blx	r4
  403f0a:	4b1a      	ldr	r3, [pc, #104]	; (403f74 <config_interrupt+0xb8>)
  403f0c:	f44f 6200 	mov.w	r2, #2048	; 0x800
  403f10:	2400      	movs	r4, #0
  403f12:	f8c3 2080 	str.w	r2, [r3, #128]	; 0x80
  403f16:	2001      	movs	r0, #1
  403f18:	f8c3 2180 	str.w	r2, [r3, #384]	; 0x180
  403f1c:	4621      	mov	r1, r4
  403f1e:	f883 430b 	strb.w	r4, [r3, #779]	; 0x30b
  403f22:	601a      	str	r2, [r3, #0]
  403f24:	2203      	movs	r2, #3
  403f26:	4b14      	ldr	r3, [pc, #80]	; (403f78 <config_interrupt+0xbc>)
  403f28:	4798      	blx	r3
  403f2a:	4a14      	ldr	r2, [pc, #80]	; (403f7c <config_interrupt+0xc0>)
  403f2c:	6010      	str	r0, [r2, #0]
  403f2e:	4615      	mov	r5, r2
  403f30:	b120      	cbz	r0, 403f3c <config_interrupt+0x80>
  403f32:	4621      	mov	r1, r4
  403f34:	4622      	mov	r2, r4
  403f36:	4623      	mov	r3, r4
  403f38:	4c11      	ldr	r4, [pc, #68]	; (403f80 <config_interrupt+0xc4>)
  403f3a:	47a0      	blx	r4
  403f3c:	6828      	ldr	r0, [r5, #0]
  403f3e:	b918      	cbnz	r0, 403f48 <config_interrupt+0x8c>
  403f40:	4b10      	ldr	r3, [pc, #64]	; (403f84 <config_interrupt+0xc8>)
  403f42:	4798      	blx	r3
  403f44:	bf00      	nop
  403f46:	e7fd      	b.n	403f44 <config_interrupt+0x88>
  403f48:	2100      	movs	r1, #0
  403f4a:	460a      	mov	r2, r1
  403f4c:	460b      	mov	r3, r1
  403f4e:	4c0e      	ldr	r4, [pc, #56]	; (403f88 <config_interrupt+0xcc>)
  403f50:	47a0      	blx	r4
  403f52:	b003      	add	sp, #12
  403f54:	bd30      	pop	{r4, r5, pc}
  403f56:	bf00      	nop
  403f58:	00403e51 	.word	0x00403e51
  403f5c:	00401e29 	.word	0x00401e29
  403f60:	400e0e00 	.word	0x400e0e00
  403f64:	00401c33 	.word	0x00401c33
  403f68:	00401bad 	.word	0x00401bad
  403f6c:	00401bfd 	.word	0x00401bfd
  403f70:	00403a59 	.word	0x00403a59
  403f74:	e000e100 	.word	0xe000e100
  403f78:	00402805 	.word	0x00402805
  403f7c:	20003f1c 	.word	0x20003f1c
  403f80:	00402881 	.word	0x00402881
  403f84:	00402441 	.word	0x00402441
  403f88:	00402a71 	.word	0x00402a71

00403f8c <main>:
  403f8c:	b57f      	push	{r0, r1, r2, r3, r4, r5, r6, lr}
  403f8e:	4b31      	ldr	r3, [pc, #196]	; (404054 <main+0xc8>)
  403f90:	4798      	blx	r3
  403f92:	4a31      	ldr	r2, [pc, #196]	; (404058 <main+0xcc>)
  403f94:	f64f 03ff 	movw	r3, #63743	; 0xf8ff
  403f98:	68d1      	ldr	r1, [r2, #12]
  403f9a:	4d30      	ldr	r5, [pc, #192]	; (40405c <main+0xd0>)
  403f9c:	400b      	ands	r3, r1
  403f9e:	f043 63bf 	orr.w	r3, r3, #100139008	; 0x5f80000
  403fa2:	f443 3300 	orr.w	r3, r3, #131072	; 0x20000
  403fa6:	60d3      	str	r3, [r2, #12]
  403fa8:	4b2d      	ldr	r3, [pc, #180]	; (404060 <main+0xd4>)
  403faa:	4798      	blx	r3
  403fac:	4b2d      	ldr	r3, [pc, #180]	; (404064 <main+0xd8>)
  403fae:	4798      	blx	r3
  403fb0:	482d      	ldr	r0, [pc, #180]	; (404068 <main+0xdc>)
  403fb2:	47a8      	blx	r5
  403fb4:	4b2d      	ldr	r3, [pc, #180]	; (40406c <main+0xe0>)
  403fb6:	4798      	blx	r3
  403fb8:	4b2d      	ldr	r3, [pc, #180]	; (404070 <main+0xe4>)
  403fba:	4798      	blx	r3
  403fbc:	2301      	movs	r3, #1
  403fbe:	9300      	str	r3, [sp, #0]
  403fc0:	2300      	movs	r3, #0
  403fc2:	9301      	str	r3, [sp, #4]
  403fc4:	9302      	str	r3, [sp, #8]
  403fc6:	9303      	str	r3, [sp, #12]
  403fc8:	482a      	ldr	r0, [pc, #168]	; (404074 <main+0xe8>)
  403fca:	492b      	ldr	r1, [pc, #172]	; (404078 <main+0xec>)
  403fcc:	2246      	movs	r2, #70	; 0x46
  403fce:	4e2b      	ldr	r6, [pc, #172]	; (40407c <main+0xf0>)
  403fd0:	47b0      	blx	r6
  403fd2:	2801      	cmp	r0, #1
  403fd4:	4c2a      	ldr	r4, [pc, #168]	; (404080 <main+0xf4>)
  403fd6:	d003      	beq.n	403fe0 <main+0x54>
  403fd8:	482a      	ldr	r0, [pc, #168]	; (404084 <main+0xf8>)
  403fda:	47a8      	blx	r5
  403fdc:	2019      	movs	r0, #25
  403fde:	47a0      	blx	r4
  403fe0:	2304      	movs	r3, #4
  403fe2:	9300      	str	r3, [sp, #0]
  403fe4:	2300      	movs	r3, #0
  403fe6:	9301      	str	r3, [sp, #4]
  403fe8:	9302      	str	r3, [sp, #8]
  403fea:	9303      	str	r3, [sp, #12]
  403fec:	4826      	ldr	r0, [pc, #152]	; (404088 <main+0xfc>)
  403fee:	4927      	ldr	r1, [pc, #156]	; (40408c <main+0x100>)
  403ff0:	f44f 7200 	mov.w	r2, #512	; 0x200
  403ff4:	47b0      	blx	r6
  403ff6:	2801      	cmp	r0, #1
  403ff8:	d003      	beq.n	404002 <main+0x76>
  403ffa:	4825      	ldr	r0, [pc, #148]	; (404090 <main+0x104>)
  403ffc:	47a8      	blx	r5
  403ffe:	2019      	movs	r0, #25
  404000:	47a0      	blx	r4
  404002:	2302      	movs	r3, #2
  404004:	9300      	str	r3, [sp, #0]
  404006:	2300      	movs	r3, #0
  404008:	9301      	str	r3, [sp, #4]
  40400a:	9302      	str	r3, [sp, #8]
  40400c:	9303      	str	r3, [sp, #12]
  40400e:	4821      	ldr	r0, [pc, #132]	; (404094 <main+0x108>)
  404010:	4921      	ldr	r1, [pc, #132]	; (404098 <main+0x10c>)
  404012:	f44f 7280 	mov.w	r2, #256	; 0x100
  404016:	47b0      	blx	r6
  404018:	2801      	cmp	r0, #1
  40401a:	d003      	beq.n	404024 <main+0x98>
  40401c:	481f      	ldr	r0, [pc, #124]	; (40409c <main+0x110>)
  40401e:	47a8      	blx	r5
  404020:	2019      	movs	r0, #25
  404022:	47a0      	blx	r4
  404024:	2303      	movs	r3, #3
  404026:	9300      	str	r3, [sp, #0]
  404028:	2300      	movs	r3, #0
  40402a:	9301      	str	r3, [sp, #4]
  40402c:	9302      	str	r3, [sp, #8]
  40402e:	9303      	str	r3, [sp, #12]
  404030:	481b      	ldr	r0, [pc, #108]	; (4040a0 <main+0x114>)
  404032:	491c      	ldr	r1, [pc, #112]	; (4040a4 <main+0x118>)
  404034:	f44f 7200 	mov.w	r2, #512	; 0x200
  404038:	47b0      	blx	r6
  40403a:	2801      	cmp	r0, #1
  40403c:	d003      	beq.n	404046 <main+0xba>
  40403e:	481a      	ldr	r0, [pc, #104]	; (4040a8 <main+0x11c>)
  404040:	47a8      	blx	r5
  404042:	2019      	movs	r0, #25
  404044:	47a0      	blx	r4
  404046:	4b19      	ldr	r3, [pc, #100]	; (4040ac <main+0x120>)
  404048:	4798      	blx	r3
  40404a:	2019      	movs	r0, #25
  40404c:	47a0      	blx	r4
  40404e:	2000      	movs	r0, #0
  404050:	b004      	add	sp, #16
  404052:	bd70      	pop	{r4, r5, r6, pc}
  404054:	00400631 	.word	0x00400631
  404058:	e000ed00 	.word	0xe000ed00
  40405c:	00405e9d 	.word	0x00405e9d
  404060:	0040140d 	.word	0x0040140d
  404064:	00400439 	.word	0x00400439
  404068:	0040c4ab 	.word	0x0040c4ab
  40406c:	00400125 	.word	0x00400125
  404070:	00403ebd 	.word	0x00403ebd
  404074:	00403e6d 	.word	0x00403e6d
  404078:	0040c4b8 	.word	0x0040c4b8
  40407c:	00402c5d 	.word	0x00402c5d
  404080:	004014f9 	.word	0x004014f9
  404084:	0040c4bd 	.word	0x0040c4bd
  404088:	00403ac9 	.word	0x00403ac9
  40408c:	0040c4de 	.word	0x0040c4de
  404090:	0040c4e4 	.word	0x0040c4e4
  404094:	004001e1 	.word	0x004001e1
  404098:	0040c504 	.word	0x0040c504
  40409c:	0040c50a 	.word	0x0040c50a
  4040a0:	004004e1 	.word	0x004004e1
  4040a4:	0040c52a 	.word	0x0040c52a
  4040a8:	0040c52f 	.word	0x0040c52f
  4040ac:	00402eb5 	.word	0x00402eb5

004040b0 <sin>:
  4040b0:	b570      	push	{r4, r5, r6, lr}
  4040b2:	4e22      	ldr	r6, [pc, #136]	; (40413c <sin+0x8c>)
  4040b4:	f021 4400 	bic.w	r4, r1, #2147483648	; 0x80000000
  4040b8:	42b4      	cmp	r4, r6
  4040ba:	b086      	sub	sp, #24
  4040bc:	4602      	mov	r2, r0
  4040be:	460b      	mov	r3, r1
  4040c0:	dd1a      	ble.n	4040f8 <sin+0x48>
  4040c2:	4d1f      	ldr	r5, [pc, #124]	; (404140 <sin+0x90>)
  4040c4:	42ac      	cmp	r4, r5
  4040c6:	dd03      	ble.n	4040d0 <sin+0x20>
  4040c8:	f001 f93c 	bl	405344 <__aeabi_dsub>
  4040cc:	b006      	add	sp, #24
  4040ce:	bd70      	pop	{r4, r5, r6, pc}
  4040d0:	aa02      	add	r2, sp, #8
  4040d2:	f000 f839 	bl	404148 <__ieee754_rem_pio2>
  4040d6:	f000 0003 	and.w	r0, r0, #3
  4040da:	2801      	cmp	r0, #1
  4040dc:	d01d      	beq.n	40411a <sin+0x6a>
  4040de:	2802      	cmp	r0, #2
  4040e0:	d012      	beq.n	404108 <sin+0x58>
  4040e2:	b308      	cbz	r0, 404128 <sin+0x78>
  4040e4:	e9dd 0102 	ldrd	r0, r1, [sp, #8]
  4040e8:	e9dd 2304 	ldrd	r2, r3, [sp, #16]
  4040ec:	f000 fa4c 	bl	404588 <__kernel_cos>
  4040f0:	f101 4100 	add.w	r1, r1, #2147483648	; 0x80000000
  4040f4:	b006      	add	sp, #24
  4040f6:	bd70      	pop	{r4, r5, r6, pc}
  4040f8:	2300      	movs	r3, #0
  4040fa:	9300      	str	r3, [sp, #0]
  4040fc:	2200      	movs	r2, #0
  4040fe:	2300      	movs	r3, #0
  404100:	f000 ff46 	bl	404f90 <__kernel_sin>
  404104:	b006      	add	sp, #24
  404106:	bd70      	pop	{r4, r5, r6, pc}
  404108:	2301      	movs	r3, #1
  40410a:	9300      	str	r3, [sp, #0]
  40410c:	e9dd 0102 	ldrd	r0, r1, [sp, #8]
  404110:	e9dd 2304 	ldrd	r2, r3, [sp, #16]
  404114:	f000 ff3c 	bl	404f90 <__kernel_sin>
  404118:	e7ea      	b.n	4040f0 <sin+0x40>
  40411a:	e9dd 0102 	ldrd	r0, r1, [sp, #8]
  40411e:	e9dd 2304 	ldrd	r2, r3, [sp, #16]
  404122:	f000 fa31 	bl	404588 <__kernel_cos>
  404126:	e7d1      	b.n	4040cc <sin+0x1c>
  404128:	2301      	movs	r3, #1
  40412a:	9300      	str	r3, [sp, #0]
  40412c:	e9dd 0102 	ldrd	r0, r1, [sp, #8]
  404130:	e9dd 2304 	ldrd	r2, r3, [sp, #16]
  404134:	f000 ff2c 	bl	404f90 <__kernel_sin>
  404138:	e7c8      	b.n	4040cc <sin+0x1c>
  40413a:	bf00      	nop
  40413c:	3fe921fb 	.word	0x3fe921fb
  404140:	7fefffff 	.word	0x7fefffff
  404144:	00000000 	.word	0x00000000

00404148 <__ieee754_rem_pio2>:
  404148:	e92d 4ff0 	stmdb	sp!, {r4, r5, r6, r7, r8, r9, sl, fp, lr}
  40414c:	4b96      	ldr	r3, [pc, #600]	; (4043a8 <__ieee754_rem_pio2+0x260>)
  40414e:	f021 4600 	bic.w	r6, r1, #2147483648	; 0x80000000
  404152:	429e      	cmp	r6, r3
  404154:	b091      	sub	sp, #68	; 0x44
  404156:	4604      	mov	r4, r0
  404158:	460d      	mov	r5, r1
  40415a:	468b      	mov	fp, r1
  40415c:	4690      	mov	r8, r2
  40415e:	f340 8081 	ble.w	404264 <__ieee754_rem_pio2+0x11c>
  404162:	4b92      	ldr	r3, [pc, #584]	; (4043ac <__ieee754_rem_pio2+0x264>)
  404164:	429e      	cmp	r6, r3
  404166:	dc26      	bgt.n	4041b6 <__ieee754_rem_pio2+0x6e>
  404168:	a385      	add	r3, pc, #532	; (adr r3, 404380 <__ieee754_rem_pio2+0x238>)
  40416a:	e9d3 2300 	ldrd	r2, r3, [r3]
  40416e:	2900      	cmp	r1, #0
  404170:	f340 81a0 	ble.w	4044b4 <__ieee754_rem_pio2+0x36c>
  404174:	f001 f8e6 	bl	405344 <__aeabi_dsub>
  404178:	4b8d      	ldr	r3, [pc, #564]	; (4043b0 <__ieee754_rem_pio2+0x268>)
  40417a:	4604      	mov	r4, r0
  40417c:	429e      	cmp	r6, r3
  40417e:	460d      	mov	r5, r1
  404180:	f000 8085 	beq.w	40428e <__ieee754_rem_pio2+0x146>
  404184:	a380      	add	r3, pc, #512	; (adr r3, 404388 <__ieee754_rem_pio2+0x240>)
  404186:	e9d3 2300 	ldrd	r2, r3, [r3]
  40418a:	f001 f8db 	bl	405344 <__aeabi_dsub>
  40418e:	4602      	mov	r2, r0
  404190:	460b      	mov	r3, r1
  404192:	e9c8 2300 	strd	r2, r3, [r8]
  404196:	4620      	mov	r0, r4
  404198:	4629      	mov	r1, r5
  40419a:	f001 f8d3 	bl	405344 <__aeabi_dsub>
  40419e:	a37a      	add	r3, pc, #488	; (adr r3, 404388 <__ieee754_rem_pio2+0x240>)
  4041a0:	e9d3 2300 	ldrd	r2, r3, [r3]
  4041a4:	f001 f8ce 	bl	405344 <__aeabi_dsub>
  4041a8:	2701      	movs	r7, #1
  4041aa:	e9c8 0102 	strd	r0, r1, [r8, #8]
  4041ae:	4638      	mov	r0, r7
  4041b0:	b011      	add	sp, #68	; 0x44
  4041b2:	e8bd 8ff0 	ldmia.w	sp!, {r4, r5, r6, r7, r8, r9, sl, fp, pc}
  4041b6:	4b7f      	ldr	r3, [pc, #508]	; (4043b4 <__ieee754_rem_pio2+0x26c>)
  4041b8:	429e      	cmp	r6, r3
  4041ba:	f340 8085 	ble.w	4042c8 <__ieee754_rem_pio2+0x180>
  4041be:	4b7e      	ldr	r3, [pc, #504]	; (4043b8 <__ieee754_rem_pio2+0x270>)
  4041c0:	429e      	cmp	r6, r3
  4041c2:	dc5a      	bgt.n	40427a <__ieee754_rem_pio2+0x132>
  4041c4:	ea4f 5926 	mov.w	r9, r6, asr #20
  4041c8:	f2a9 4916 	subw	r9, r9, #1046	; 0x416
  4041cc:	eba6 5509 	sub.w	r5, r6, r9, lsl #20
  4041d0:	4629      	mov	r1, r5
  4041d2:	4604      	mov	r4, r0
  4041d4:	f001 fd04 	bl	405be0 <__aeabi_d2iz>
  4041d8:	f001 fa02 	bl	4055e0 <__aeabi_i2d>
  4041dc:	4606      	mov	r6, r0
  4041de:	460f      	mov	r7, r1
  4041e0:	4602      	mov	r2, r0
  4041e2:	460b      	mov	r3, r1
  4041e4:	4620      	mov	r0, r4
  4041e6:	4629      	mov	r1, r5
  4041e8:	e9cd 670a 	strd	r6, r7, [sp, #40]	; 0x28
  4041ec:	f001 f8aa 	bl	405344 <__aeabi_dsub>
  4041f0:	2200      	movs	r2, #0
  4041f2:	4b72      	ldr	r3, [pc, #456]	; (4043bc <__ieee754_rem_pio2+0x274>)
  4041f4:	f001 fa5a 	bl	4056ac <__aeabi_dmul>
  4041f8:	460f      	mov	r7, r1
  4041fa:	4606      	mov	r6, r0
  4041fc:	f001 fcf0 	bl	405be0 <__aeabi_d2iz>
  404200:	f001 f9ee 	bl	4055e0 <__aeabi_i2d>
  404204:	4602      	mov	r2, r0
  404206:	460b      	mov	r3, r1
  404208:	4604      	mov	r4, r0
  40420a:	460d      	mov	r5, r1
  40420c:	4630      	mov	r0, r6
  40420e:	4639      	mov	r1, r7
  404210:	e9cd 450c 	strd	r4, r5, [sp, #48]	; 0x30
  404214:	f001 f896 	bl	405344 <__aeabi_dsub>
  404218:	2200      	movs	r2, #0
  40421a:	4b68      	ldr	r3, [pc, #416]	; (4043bc <__ieee754_rem_pio2+0x274>)
  40421c:	f001 fa46 	bl	4056ac <__aeabi_dmul>
  404220:	2200      	movs	r2, #0
  404222:	2300      	movs	r3, #0
  404224:	e9cd 010e 	strd	r0, r1, [sp, #56]	; 0x38
  404228:	f001 fca8 	bl	405b7c <__aeabi_dcmpeq>
  40422c:	2800      	cmp	r0, #0
  40422e:	f000 816d 	beq.w	40450c <__ieee754_rem_pio2+0x3c4>
  404232:	2300      	movs	r3, #0
  404234:	4620      	mov	r0, r4
  404236:	4629      	mov	r1, r5
  404238:	2200      	movs	r2, #0
  40423a:	f001 fc9f 	bl	405b7c <__aeabi_dcmpeq>
  40423e:	2800      	cmp	r0, #0
  404240:	bf14      	ite	ne
  404242:	2301      	movne	r3, #1
  404244:	2302      	moveq	r3, #2
  404246:	485e      	ldr	r0, [pc, #376]	; (4043c0 <__ieee754_rem_pio2+0x278>)
  404248:	2102      	movs	r1, #2
  40424a:	9001      	str	r0, [sp, #4]
  40424c:	9100      	str	r1, [sp, #0]
  40424e:	464a      	mov	r2, r9
  404250:	a80a      	add	r0, sp, #40	; 0x28
  404252:	4641      	mov	r1, r8
  404254:	f000 fabc 	bl	4047d0 <__kernel_rem_pio2>
  404258:	f1bb 0f00 	cmp.w	fp, #0
  40425c:	f2c0 8148 	blt.w	4044f0 <__ieee754_rem_pio2+0x3a8>
  404260:	4607      	mov	r7, r0
  404262:	e006      	b.n	404272 <__ieee754_rem_pio2+0x12a>
  404264:	2200      	movs	r2, #0
  404266:	2300      	movs	r3, #0
  404268:	e9c8 4500 	strd	r4, r5, [r8]
  40426c:	e9c8 2302 	strd	r2, r3, [r8, #8]
  404270:	2700      	movs	r7, #0
  404272:	4638      	mov	r0, r7
  404274:	b011      	add	sp, #68	; 0x44
  404276:	e8bd 8ff0 	ldmia.w	sp!, {r4, r5, r6, r7, r8, r9, sl, fp, pc}
  40427a:	4602      	mov	r2, r0
  40427c:	460b      	mov	r3, r1
  40427e:	f001 f861 	bl	405344 <__aeabi_dsub>
  404282:	2700      	movs	r7, #0
  404284:	e9c8 0102 	strd	r0, r1, [r8, #8]
  404288:	e9c8 0100 	strd	r0, r1, [r8]
  40428c:	e7f1      	b.n	404272 <__ieee754_rem_pio2+0x12a>
  40428e:	a340      	add	r3, pc, #256	; (adr r3, 404390 <__ieee754_rem_pio2+0x248>)
  404290:	e9d3 2300 	ldrd	r2, r3, [r3]
  404294:	f001 f856 	bl	405344 <__aeabi_dsub>
  404298:	a33f      	add	r3, pc, #252	; (adr r3, 404398 <__ieee754_rem_pio2+0x250>)
  40429a:	e9d3 2300 	ldrd	r2, r3, [r3]
  40429e:	4604      	mov	r4, r0
  4042a0:	460d      	mov	r5, r1
  4042a2:	f001 f84f 	bl	405344 <__aeabi_dsub>
  4042a6:	4602      	mov	r2, r0
  4042a8:	460b      	mov	r3, r1
  4042aa:	e9c8 2300 	strd	r2, r3, [r8]
  4042ae:	4620      	mov	r0, r4
  4042b0:	4629      	mov	r1, r5
  4042b2:	f001 f847 	bl	405344 <__aeabi_dsub>
  4042b6:	a338      	add	r3, pc, #224	; (adr r3, 404398 <__ieee754_rem_pio2+0x250>)
  4042b8:	e9d3 2300 	ldrd	r2, r3, [r3]
  4042bc:	f001 f842 	bl	405344 <__aeabi_dsub>
  4042c0:	2701      	movs	r7, #1
  4042c2:	e9c8 0102 	strd	r0, r1, [r8, #8]
  4042c6:	e7d4      	b.n	404272 <__ieee754_rem_pio2+0x12a>
  4042c8:	f000 ff1a 	bl	405100 <fabs>
  4042cc:	a334      	add	r3, pc, #208	; (adr r3, 4043a0 <__ieee754_rem_pio2+0x258>)
  4042ce:	e9d3 2300 	ldrd	r2, r3, [r3]
  4042d2:	4604      	mov	r4, r0
  4042d4:	460d      	mov	r5, r1
  4042d6:	f001 f9e9 	bl	4056ac <__aeabi_dmul>
  4042da:	2200      	movs	r2, #0
  4042dc:	4b39      	ldr	r3, [pc, #228]	; (4043c4 <__ieee754_rem_pio2+0x27c>)
  4042de:	f001 f833 	bl	405348 <__adddf3>
  4042e2:	f001 fc7d 	bl	405be0 <__aeabi_d2iz>
  4042e6:	4607      	mov	r7, r0
  4042e8:	f001 f97a 	bl	4055e0 <__aeabi_i2d>
  4042ec:	a324      	add	r3, pc, #144	; (adr r3, 404380 <__ieee754_rem_pio2+0x238>)
  4042ee:	e9d3 2300 	ldrd	r2, r3, [r3]
  4042f2:	e9cd 0106 	strd	r0, r1, [sp, #24]
  4042f6:	f001 f9d9 	bl	4056ac <__aeabi_dmul>
  4042fa:	4602      	mov	r2, r0
  4042fc:	460b      	mov	r3, r1
  4042fe:	4620      	mov	r0, r4
  404300:	4629      	mov	r1, r5
  404302:	f001 f81f 	bl	405344 <__aeabi_dsub>
  404306:	a320      	add	r3, pc, #128	; (adr r3, 404388 <__ieee754_rem_pio2+0x240>)
  404308:	e9d3 2300 	ldrd	r2, r3, [r3]
  40430c:	e9cd 0102 	strd	r0, r1, [sp, #8]
  404310:	e9dd 0106 	ldrd	r0, r1, [sp, #24]
  404314:	f001 f9ca 	bl	4056ac <__aeabi_dmul>
  404318:	2f1f      	cmp	r7, #31
  40431a:	e9cd 0104 	strd	r0, r1, [sp, #16]
  40431e:	e9dd 0102 	ldrd	r0, r1, [sp, #8]
  404322:	dc53      	bgt.n	4043cc <__ieee754_rem_pio2+0x284>
  404324:	4b28      	ldr	r3, [pc, #160]	; (4043c8 <__ieee754_rem_pio2+0x280>)
  404326:	1e7a      	subs	r2, r7, #1
  404328:	f853 3022 	ldr.w	r3, [r3, r2, lsl #2]
  40432c:	42b3      	cmp	r3, r6
  40432e:	d04d      	beq.n	4043cc <__ieee754_rem_pio2+0x284>
  404330:	e9dd 2304 	ldrd	r2, r3, [sp, #16]
  404334:	f001 f806 	bl	405344 <__aeabi_dsub>
  404338:	4604      	mov	r4, r0
  40433a:	460d      	mov	r5, r1
  40433c:	e9c8 4500 	strd	r4, r5, [r8]
  404340:	e9dd 0102 	ldrd	r0, r1, [sp, #8]
  404344:	4622      	mov	r2, r4
  404346:	462b      	mov	r3, r5
  404348:	f000 fffc 	bl	405344 <__aeabi_dsub>
  40434c:	e9dd 2304 	ldrd	r2, r3, [sp, #16]
  404350:	f000 fff8 	bl	405344 <__aeabi_dsub>
  404354:	f1bb 0f00 	cmp.w	fp, #0
  404358:	e9c8 0102 	strd	r0, r1, [r8, #8]
  40435c:	da89      	bge.n	404272 <__ieee754_rem_pio2+0x12a>
  40435e:	4626      	mov	r6, r4
  404360:	f101 4300 	add.w	r3, r1, #2147483648	; 0x80000000
  404364:	f105 4400 	add.w	r4, r5, #2147483648	; 0x80000000
  404368:	427f      	negs	r7, r7
  40436a:	f8c8 6000 	str.w	r6, [r8]
  40436e:	f8c8 4004 	str.w	r4, [r8, #4]
  404372:	f8c8 0008 	str.w	r0, [r8, #8]
  404376:	f8c8 300c 	str.w	r3, [r8, #12]
  40437a:	e77a      	b.n	404272 <__ieee754_rem_pio2+0x12a>
  40437c:	f3af 8000 	nop.w
  404380:	54400000 	.word	0x54400000
  404384:	3ff921fb 	.word	0x3ff921fb
  404388:	1a626331 	.word	0x1a626331
  40438c:	3dd0b461 	.word	0x3dd0b461
  404390:	1a600000 	.word	0x1a600000
  404394:	3dd0b461 	.word	0x3dd0b461
  404398:	2e037073 	.word	0x2e037073
  40439c:	3ba3198a 	.word	0x3ba3198a
  4043a0:	6dc9c883 	.word	0x6dc9c883
  4043a4:	3fe45f30 	.word	0x3fe45f30
  4043a8:	3fe921fb 	.word	0x3fe921fb
  4043ac:	4002d97b 	.word	0x4002d97b
  4043b0:	3ff921fb 	.word	0x3ff921fb
  4043b4:	413921fb 	.word	0x413921fb
  4043b8:	7fefffff 	.word	0x7fefffff
  4043bc:	41700000 	.word	0x41700000
  4043c0:	0040c5d0 	.word	0x0040c5d0
  4043c4:	3fe00000 	.word	0x3fe00000
  4043c8:	0040c550 	.word	0x0040c550
  4043cc:	e9dd 2304 	ldrd	r2, r3, [sp, #16]
  4043d0:	f000 ffb8 	bl	405344 <__aeabi_dsub>
  4043d4:	1536      	asrs	r6, r6, #20
  4043d6:	f3c1 530a 	ubfx	r3, r1, #20, #11
  4043da:	1af3      	subs	r3, r6, r3
  4043dc:	4604      	mov	r4, r0
  4043de:	460d      	mov	r5, r1
  4043e0:	2b10      	cmp	r3, #16
  4043e2:	e9c8 4500 	strd	r4, r5, [r8]
  4043e6:	ddab      	ble.n	404340 <__ieee754_rem_pio2+0x1f8>
  4043e8:	a35b      	add	r3, pc, #364	; (adr r3, 404558 <__ieee754_rem_pio2+0x410>)
  4043ea:	e9d3 2300 	ldrd	r2, r3, [r3]
  4043ee:	e9dd 0106 	ldrd	r0, r1, [sp, #24]
  4043f2:	f001 f95b 	bl	4056ac <__aeabi_dmul>
  4043f6:	4604      	mov	r4, r0
  4043f8:	460d      	mov	r5, r1
  4043fa:	4622      	mov	r2, r4
  4043fc:	462b      	mov	r3, r5
  4043fe:	e9dd 0102 	ldrd	r0, r1, [sp, #8]
  404402:	f000 ff9f 	bl	405344 <__aeabi_dsub>
  404406:	e9cd 0108 	strd	r0, r1, [sp, #32]
  40440a:	e9dd 2308 	ldrd	r2, r3, [sp, #32]
  40440e:	e9dd 0102 	ldrd	r0, r1, [sp, #8]
  404412:	f000 ff97 	bl	405344 <__aeabi_dsub>
  404416:	4622      	mov	r2, r4
  404418:	462b      	mov	r3, r5
  40441a:	f000 ff93 	bl	405344 <__aeabi_dsub>
  40441e:	a350      	add	r3, pc, #320	; (adr r3, 404560 <__ieee754_rem_pio2+0x418>)
  404420:	e9d3 2300 	ldrd	r2, r3, [r3]
  404424:	4604      	mov	r4, r0
  404426:	460d      	mov	r5, r1
  404428:	e9dd 0106 	ldrd	r0, r1, [sp, #24]
  40442c:	f001 f93e 	bl	4056ac <__aeabi_dmul>
  404430:	4622      	mov	r2, r4
  404432:	462b      	mov	r3, r5
  404434:	f000 ff86 	bl	405344 <__aeabi_dsub>
  404438:	e9cd 0104 	strd	r0, r1, [sp, #16]
  40443c:	e9dd 2304 	ldrd	r2, r3, [sp, #16]
  404440:	e9dd 0108 	ldrd	r0, r1, [sp, #32]
  404444:	f000 ff7e 	bl	405344 <__aeabi_dsub>
  404448:	f3c1 530a 	ubfx	r3, r1, #20, #11
  40444c:	1af6      	subs	r6, r6, r3
  40444e:	4604      	mov	r4, r0
  404450:	460d      	mov	r5, r1
  404452:	2e31      	cmp	r6, #49	; 0x31
  404454:	e9c8 4500 	strd	r4, r5, [r8]
  404458:	dd78      	ble.n	40454c <__ieee754_rem_pio2+0x404>
  40445a:	a343      	add	r3, pc, #268	; (adr r3, 404568 <__ieee754_rem_pio2+0x420>)
  40445c:	e9d3 2300 	ldrd	r2, r3, [r3]
  404460:	e9dd 0106 	ldrd	r0, r1, [sp, #24]
  404464:	f001 f922 	bl	4056ac <__aeabi_dmul>
  404468:	4604      	mov	r4, r0
  40446a:	460d      	mov	r5, r1
  40446c:	4622      	mov	r2, r4
  40446e:	462b      	mov	r3, r5
  404470:	e9dd 0108 	ldrd	r0, r1, [sp, #32]
  404474:	f000 ff66 	bl	405344 <__aeabi_dsub>
  404478:	e9cd 0102 	strd	r0, r1, [sp, #8]
  40447c:	e9dd 2302 	ldrd	r2, r3, [sp, #8]
  404480:	e9dd 0108 	ldrd	r0, r1, [sp, #32]
  404484:	f000 ff5e 	bl	405344 <__aeabi_dsub>
  404488:	4622      	mov	r2, r4
  40448a:	462b      	mov	r3, r5
  40448c:	f000 ff5a 	bl	405344 <__aeabi_dsub>
  404490:	a337      	add	r3, pc, #220	; (adr r3, 404570 <__ieee754_rem_pio2+0x428>)
  404492:	e9d3 2300 	ldrd	r2, r3, [r3]
  404496:	4604      	mov	r4, r0
  404498:	460d      	mov	r5, r1
  40449a:	e9dd 0106 	ldrd	r0, r1, [sp, #24]
  40449e:	f001 f905 	bl	4056ac <__aeabi_dmul>
  4044a2:	4622      	mov	r2, r4
  4044a4:	462b      	mov	r3, r5
  4044a6:	f000 ff4d 	bl	405344 <__aeabi_dsub>
  4044aa:	e9cd 0104 	strd	r0, r1, [sp, #16]
  4044ae:	e9dd 0102 	ldrd	r0, r1, [sp, #8]
  4044b2:	e73d      	b.n	404330 <__ieee754_rem_pio2+0x1e8>
  4044b4:	f000 ff48 	bl	405348 <__adddf3>
  4044b8:	4b31      	ldr	r3, [pc, #196]	; (404580 <__ieee754_rem_pio2+0x438>)
  4044ba:	4604      	mov	r4, r0
  4044bc:	429e      	cmp	r6, r3
  4044be:	460d      	mov	r5, r1
  4044c0:	d026      	beq.n	404510 <__ieee754_rem_pio2+0x3c8>
  4044c2:	a32d      	add	r3, pc, #180	; (adr r3, 404578 <__ieee754_rem_pio2+0x430>)
  4044c4:	e9d3 2300 	ldrd	r2, r3, [r3]
  4044c8:	f000 ff3e 	bl	405348 <__adddf3>
  4044cc:	4602      	mov	r2, r0
  4044ce:	460b      	mov	r3, r1
  4044d0:	e9c8 2300 	strd	r2, r3, [r8]
  4044d4:	4620      	mov	r0, r4
  4044d6:	4629      	mov	r1, r5
  4044d8:	f000 ff34 	bl	405344 <__aeabi_dsub>
  4044dc:	a326      	add	r3, pc, #152	; (adr r3, 404578 <__ieee754_rem_pio2+0x430>)
  4044de:	e9d3 2300 	ldrd	r2, r3, [r3]
  4044e2:	f000 ff31 	bl	405348 <__adddf3>
  4044e6:	f04f 37ff 	mov.w	r7, #4294967295
  4044ea:	e9c8 0102 	strd	r0, r1, [r8, #8]
  4044ee:	e6c0      	b.n	404272 <__ieee754_rem_pio2+0x12a>
  4044f0:	f8d8 2004 	ldr.w	r2, [r8, #4]
  4044f4:	f8d8 300c 	ldr.w	r3, [r8, #12]
  4044f8:	f102 4200 	add.w	r2, r2, #2147483648	; 0x80000000
  4044fc:	f103 4300 	add.w	r3, r3, #2147483648	; 0x80000000
  404500:	4247      	negs	r7, r0
  404502:	f8c8 2004 	str.w	r2, [r8, #4]
  404506:	f8c8 300c 	str.w	r3, [r8, #12]
  40450a:	e6b2      	b.n	404272 <__ieee754_rem_pio2+0x12a>
  40450c:	2303      	movs	r3, #3
  40450e:	e69a      	b.n	404246 <__ieee754_rem_pio2+0xfe>
  404510:	a311      	add	r3, pc, #68	; (adr r3, 404558 <__ieee754_rem_pio2+0x410>)
  404512:	e9d3 2300 	ldrd	r2, r3, [r3]
  404516:	f000 ff17 	bl	405348 <__adddf3>
  40451a:	a311      	add	r3, pc, #68	; (adr r3, 404560 <__ieee754_rem_pio2+0x418>)
  40451c:	e9d3 2300 	ldrd	r2, r3, [r3]
  404520:	4604      	mov	r4, r0
  404522:	460d      	mov	r5, r1
  404524:	f000 ff10 	bl	405348 <__adddf3>
  404528:	4602      	mov	r2, r0
  40452a:	460b      	mov	r3, r1
  40452c:	e9c8 2300 	strd	r2, r3, [r8]
  404530:	4620      	mov	r0, r4
  404532:	4629      	mov	r1, r5
  404534:	f000 ff06 	bl	405344 <__aeabi_dsub>
  404538:	a309      	add	r3, pc, #36	; (adr r3, 404560 <__ieee754_rem_pio2+0x418>)
  40453a:	e9d3 2300 	ldrd	r2, r3, [r3]
  40453e:	f000 ff03 	bl	405348 <__adddf3>
  404542:	f04f 37ff 	mov.w	r7, #4294967295
  404546:	e9c8 0102 	strd	r0, r1, [r8, #8]
  40454a:	e692      	b.n	404272 <__ieee754_rem_pio2+0x12a>
  40454c:	e9dd 2308 	ldrd	r2, r3, [sp, #32]
  404550:	e9cd 2302 	strd	r2, r3, [sp, #8]
  404554:	e6f4      	b.n	404340 <__ieee754_rem_pio2+0x1f8>
  404556:	bf00      	nop
  404558:	1a600000 	.word	0x1a600000
  40455c:	3dd0b461 	.word	0x3dd0b461
  404560:	2e037073 	.word	0x2e037073
  404564:	3ba3198a 	.word	0x3ba3198a
  404568:	2e000000 	.word	0x2e000000
  40456c:	3ba3198a 	.word	0x3ba3198a
  404570:	252049c1 	.word	0x252049c1
  404574:	397b839a 	.word	0x397b839a
  404578:	1a626331 	.word	0x1a626331
  40457c:	3dd0b461 	.word	0x3dd0b461
  404580:	3ff921fb 	.word	0x3ff921fb
  404584:	f3af 8000 	nop.w

00404588 <__kernel_cos>:
  404588:	e92d 4ff0 	stmdb	sp!, {r4, r5, r6, r7, r8, r9, sl, fp, lr}
  40458c:	f021 4900 	bic.w	r9, r1, #2147483648	; 0x80000000
  404590:	f1b9 5f79 	cmp.w	r9, #1044381696	; 0x3e400000
  404594:	b085      	sub	sp, #20
  404596:	4606      	mov	r6, r0
  404598:	460f      	mov	r7, r1
  40459a:	4692      	mov	sl, r2
  40459c:	469b      	mov	fp, r3
  40459e:	da6b      	bge.n	404678 <__kernel_cos+0xf0>
  4045a0:	f001 fb1e 	bl	405be0 <__aeabi_d2iz>
  4045a4:	2800      	cmp	r0, #0
  4045a6:	f000 80ea 	beq.w	40477e <__kernel_cos+0x1f6>
  4045aa:	4632      	mov	r2, r6
  4045ac:	463b      	mov	r3, r7
  4045ae:	4630      	mov	r0, r6
  4045b0:	4639      	mov	r1, r7
  4045b2:	f001 f87b 	bl	4056ac <__aeabi_dmul>
  4045b6:	a374      	add	r3, pc, #464	; (adr r3, 404788 <__kernel_cos+0x200>)
  4045b8:	e9d3 2300 	ldrd	r2, r3, [r3]
  4045bc:	4604      	mov	r4, r0
  4045be:	460d      	mov	r5, r1
  4045c0:	f001 f874 	bl	4056ac <__aeabi_dmul>
  4045c4:	a372      	add	r3, pc, #456	; (adr r3, 404790 <__kernel_cos+0x208>)
  4045c6:	e9d3 2300 	ldrd	r2, r3, [r3]
  4045ca:	f000 febd 	bl	405348 <__adddf3>
  4045ce:	4622      	mov	r2, r4
  4045d0:	462b      	mov	r3, r5
  4045d2:	f001 f86b 	bl	4056ac <__aeabi_dmul>
  4045d6:	a370      	add	r3, pc, #448	; (adr r3, 404798 <__kernel_cos+0x210>)
  4045d8:	e9d3 2300 	ldrd	r2, r3, [r3]
  4045dc:	f000 feb2 	bl	405344 <__aeabi_dsub>
  4045e0:	4622      	mov	r2, r4
  4045e2:	462b      	mov	r3, r5
  4045e4:	f001 f862 	bl	4056ac <__aeabi_dmul>
  4045e8:	a36d      	add	r3, pc, #436	; (adr r3, 4047a0 <__kernel_cos+0x218>)
  4045ea:	e9d3 2300 	ldrd	r2, r3, [r3]
  4045ee:	f000 feab 	bl	405348 <__adddf3>
  4045f2:	4622      	mov	r2, r4
  4045f4:	462b      	mov	r3, r5
  4045f6:	f001 f859 	bl	4056ac <__aeabi_dmul>
  4045fa:	a36b      	add	r3, pc, #428	; (adr r3, 4047a8 <__kernel_cos+0x220>)
  4045fc:	e9d3 2300 	ldrd	r2, r3, [r3]
  404600:	f000 fea0 	bl	405344 <__aeabi_dsub>
  404604:	4622      	mov	r2, r4
  404606:	462b      	mov	r3, r5
  404608:	f001 f850 	bl	4056ac <__aeabi_dmul>
  40460c:	a368      	add	r3, pc, #416	; (adr r3, 4047b0 <__kernel_cos+0x228>)
  40460e:	e9d3 2300 	ldrd	r2, r3, [r3]
  404612:	f000 fe99 	bl	405348 <__adddf3>
  404616:	4622      	mov	r2, r4
  404618:	462b      	mov	r3, r5
  40461a:	f001 f847 	bl	4056ac <__aeabi_dmul>
  40461e:	e9cd 0100 	strd	r0, r1, [sp]
  404622:	4620      	mov	r0, r4
  404624:	4629      	mov	r1, r5
  404626:	2200      	movs	r2, #0
  404628:	4b63      	ldr	r3, [pc, #396]	; (4047b8 <__kernel_cos+0x230>)
  40462a:	f001 f83f 	bl	4056ac <__aeabi_dmul>
  40462e:	e9dd 2300 	ldrd	r2, r3, [sp]
  404632:	4680      	mov	r8, r0
  404634:	4689      	mov	r9, r1
  404636:	4620      	mov	r0, r4
  404638:	4629      	mov	r1, r5
  40463a:	f001 f837 	bl	4056ac <__aeabi_dmul>
  40463e:	4652      	mov	r2, sl
  404640:	4604      	mov	r4, r0
  404642:	460d      	mov	r5, r1
  404644:	465b      	mov	r3, fp
  404646:	4630      	mov	r0, r6
  404648:	4639      	mov	r1, r7
  40464a:	f001 f82f 	bl	4056ac <__aeabi_dmul>
  40464e:	4602      	mov	r2, r0
  404650:	460b      	mov	r3, r1
  404652:	4620      	mov	r0, r4
  404654:	4629      	mov	r1, r5
  404656:	f000 fe75 	bl	405344 <__aeabi_dsub>
  40465a:	4602      	mov	r2, r0
  40465c:	460b      	mov	r3, r1
  40465e:	4640      	mov	r0, r8
  404660:	4649      	mov	r1, r9
  404662:	f000 fe6f 	bl	405344 <__aeabi_dsub>
  404666:	4602      	mov	r2, r0
  404668:	460b      	mov	r3, r1
  40466a:	2000      	movs	r0, #0
  40466c:	4953      	ldr	r1, [pc, #332]	; (4047bc <__kernel_cos+0x234>)
  40466e:	f000 fe69 	bl	405344 <__aeabi_dsub>
  404672:	b005      	add	sp, #20
  404674:	e8bd 8ff0 	ldmia.w	sp!, {r4, r5, r6, r7, r8, r9, sl, fp, pc}
  404678:	4602      	mov	r2, r0
  40467a:	460b      	mov	r3, r1
  40467c:	f001 f816 	bl	4056ac <__aeabi_dmul>
  404680:	a341      	add	r3, pc, #260	; (adr r3, 404788 <__kernel_cos+0x200>)
  404682:	e9d3 2300 	ldrd	r2, r3, [r3]
  404686:	4604      	mov	r4, r0
  404688:	460d      	mov	r5, r1
  40468a:	f001 f80f 	bl	4056ac <__aeabi_dmul>
  40468e:	a340      	add	r3, pc, #256	; (adr r3, 404790 <__kernel_cos+0x208>)
  404690:	e9d3 2300 	ldrd	r2, r3, [r3]
  404694:	f000 fe58 	bl	405348 <__adddf3>
  404698:	4622      	mov	r2, r4
  40469a:	462b      	mov	r3, r5
  40469c:	f001 f806 	bl	4056ac <__aeabi_dmul>
  4046a0:	a33d      	add	r3, pc, #244	; (adr r3, 404798 <__kernel_cos+0x210>)
  4046a2:	e9d3 2300 	ldrd	r2, r3, [r3]
  4046a6:	f000 fe4d 	bl	405344 <__aeabi_dsub>
  4046aa:	4622      	mov	r2, r4
  4046ac:	462b      	mov	r3, r5
  4046ae:	f000 fffd 	bl	4056ac <__aeabi_dmul>
  4046b2:	a33b      	add	r3, pc, #236	; (adr r3, 4047a0 <__kernel_cos+0x218>)
  4046b4:	e9d3 2300 	ldrd	r2, r3, [r3]
  4046b8:	f000 fe46 	bl	405348 <__adddf3>
  4046bc:	4622      	mov	r2, r4
  4046be:	462b      	mov	r3, r5
  4046c0:	f000 fff4 	bl	4056ac <__aeabi_dmul>
  4046c4:	a338      	add	r3, pc, #224	; (adr r3, 4047a8 <__kernel_cos+0x220>)
  4046c6:	e9d3 2300 	ldrd	r2, r3, [r3]
  4046ca:	f000 fe3b 	bl	405344 <__aeabi_dsub>
  4046ce:	4622      	mov	r2, r4
  4046d0:	462b      	mov	r3, r5
  4046d2:	f000 ffeb 	bl	4056ac <__aeabi_dmul>
  4046d6:	a336      	add	r3, pc, #216	; (adr r3, 4047b0 <__kernel_cos+0x228>)
  4046d8:	e9d3 2300 	ldrd	r2, r3, [r3]
  4046dc:	f000 fe34 	bl	405348 <__adddf3>
  4046e0:	462b      	mov	r3, r5
  4046e2:	4622      	mov	r2, r4
  4046e4:	f000 ffe2 	bl	4056ac <__aeabi_dmul>
  4046e8:	4b35      	ldr	r3, [pc, #212]	; (4047c0 <__kernel_cos+0x238>)
  4046ea:	e9cd 0100 	strd	r0, r1, [sp]
  4046ee:	4599      	cmp	r9, r3
  4046f0:	dd97      	ble.n	404622 <__kernel_cos+0x9a>
  4046f2:	4b34      	ldr	r3, [pc, #208]	; (4047c4 <__kernel_cos+0x23c>)
  4046f4:	2200      	movs	r2, #0
  4046f6:	4599      	cmp	r9, r3
  4046f8:	dc39      	bgt.n	40476e <__kernel_cos+0x1e6>
  4046fa:	f5a9 1300 	sub.w	r3, r9, #2097152	; 0x200000
  4046fe:	2200      	movs	r2, #0
  404700:	2000      	movs	r0, #0
  404702:	492e      	ldr	r1, [pc, #184]	; (4047bc <__kernel_cos+0x234>)
  404704:	4690      	mov	r8, r2
  404706:	4699      	mov	r9, r3
  404708:	f000 fe1c 	bl	405344 <__aeabi_dsub>
  40470c:	e9cd 0102 	strd	r0, r1, [sp, #8]
  404710:	4620      	mov	r0, r4
  404712:	4629      	mov	r1, r5
  404714:	2200      	movs	r2, #0
  404716:	4b28      	ldr	r3, [pc, #160]	; (4047b8 <__kernel_cos+0x230>)
  404718:	f000 ffc8 	bl	4056ac <__aeabi_dmul>
  40471c:	4642      	mov	r2, r8
  40471e:	464b      	mov	r3, r9
  404720:	f000 fe10 	bl	405344 <__aeabi_dsub>
  404724:	e9dd 2300 	ldrd	r2, r3, [sp]
  404728:	4680      	mov	r8, r0
  40472a:	4689      	mov	r9, r1
  40472c:	4620      	mov	r0, r4
  40472e:	4629      	mov	r1, r5
  404730:	f000 ffbc 	bl	4056ac <__aeabi_dmul>
  404734:	4652      	mov	r2, sl
  404736:	4604      	mov	r4, r0
  404738:	460d      	mov	r5, r1
  40473a:	465b      	mov	r3, fp
  40473c:	4630      	mov	r0, r6
  40473e:	4639      	mov	r1, r7
  404740:	f000 ffb4 	bl	4056ac <__aeabi_dmul>
  404744:	4602      	mov	r2, r0
  404746:	460b      	mov	r3, r1
  404748:	4620      	mov	r0, r4
  40474a:	4629      	mov	r1, r5
  40474c:	f000 fdfa 	bl	405344 <__aeabi_dsub>
  404750:	4602      	mov	r2, r0
  404752:	460b      	mov	r3, r1
  404754:	4640      	mov	r0, r8
  404756:	4649      	mov	r1, r9
  404758:	f000 fdf4 	bl	405344 <__aeabi_dsub>
  40475c:	4602      	mov	r2, r0
  40475e:	460b      	mov	r3, r1
  404760:	e9dd 0102 	ldrd	r0, r1, [sp, #8]
  404764:	f000 fdee 	bl	405344 <__aeabi_dsub>
  404768:	b005      	add	sp, #20
  40476a:	e8bd 8ff0 	ldmia.w	sp!, {r4, r5, r6, r7, r8, r9, sl, fp, pc}
  40476e:	4b16      	ldr	r3, [pc, #88]	; (4047c8 <__kernel_cos+0x240>)
  404770:	f04f 0800 	mov.w	r8, #0
  404774:	e9cd 2302 	strd	r2, r3, [sp, #8]
  404778:	f8df 9050 	ldr.w	r9, [pc, #80]	; 4047cc <__kernel_cos+0x244>
  40477c:	e7c8      	b.n	404710 <__kernel_cos+0x188>
  40477e:	490f      	ldr	r1, [pc, #60]	; (4047bc <__kernel_cos+0x234>)
  404780:	2000      	movs	r0, #0
  404782:	b005      	add	sp, #20
  404784:	e8bd 8ff0 	ldmia.w	sp!, {r4, r5, r6, r7, r8, r9, sl, fp, pc}
  404788:	be8838d4 	.word	0xbe8838d4
  40478c:	bda8fae9 	.word	0xbda8fae9
  404790:	bdb4b1c4 	.word	0xbdb4b1c4
  404794:	3e21ee9e 	.word	0x3e21ee9e
  404798:	809c52ad 	.word	0x809c52ad
  40479c:	3e927e4f 	.word	0x3e927e4f
  4047a0:	19cb1590 	.word	0x19cb1590
  4047a4:	3efa01a0 	.word	0x3efa01a0
  4047a8:	16c15177 	.word	0x16c15177
  4047ac:	3f56c16c 	.word	0x3f56c16c
  4047b0:	5555554c 	.word	0x5555554c
  4047b4:	3fa55555 	.word	0x3fa55555
  4047b8:	3fe00000 	.word	0x3fe00000
  4047bc:	3ff00000 	.word	0x3ff00000
  4047c0:	3fd33332 	.word	0x3fd33332
  4047c4:	3fe90000 	.word	0x3fe90000
  4047c8:	3fe70000 	.word	0x3fe70000
  4047cc:	3fd20000 	.word	0x3fd20000

004047d0 <__kernel_rem_pio2>:
  4047d0:	e92d 4ff0 	stmdb	sp!, {r4, r5, r6, r7, r8, r9, sl, fp, lr}
  4047d4:	4d7b      	ldr	r5, [pc, #492]	; (4049c4 <__kernel_rem_pio2+0x1f4>)
  4047d6:	1ed4      	subs	r4, r2, #3
  4047d8:	fb85 6504 	smull	r6, r5, r5, r4
  4047dc:	17e4      	asrs	r4, r4, #31
  4047de:	ebc4 05a5 	rsb	r5, r4, r5, asr #2
  4047e2:	f5ad 7d1d 	sub.w	sp, sp, #628	; 0x274
  4047e6:	ea25 75e5 	bic.w	r5, r5, r5, asr #31
  4047ea:	950e      	str	r5, [sp, #56]	; 0x38
  4047ec:	4699      	mov	r9, r3
  4047ee:	4c76      	ldr	r4, [pc, #472]	; (4049c8 <__kernel_rem_pio2+0x1f8>)
  4047f0:	43eb      	mvns	r3, r5
  4047f2:	9da6      	ldr	r5, [sp, #664]	; 0x298
  4047f4:	f109 36ff 	add.w	r6, r9, #4294967295
  4047f8:	f854 4025 	ldr.w	r4, [r4, r5, lsl #2]
  4047fc:	9604      	str	r6, [sp, #16]
  4047fe:	940c      	str	r4, [sp, #48]	; 0x30
  404800:	9007      	str	r0, [sp, #28]
  404802:	9c0e      	ldr	r4, [sp, #56]	; 0x38
  404804:	9d04      	ldr	r5, [sp, #16]
  404806:	980c      	ldr	r0, [sp, #48]	; 0x30
  404808:	eb03 0343 	add.w	r3, r3, r3, lsl #1
  40480c:	eb02 03c3 	add.w	r3, r2, r3, lsl #3
  404810:	1ba6      	subs	r6, r4, r6
  404812:	182c      	adds	r4, r5, r0
  404814:	910b      	str	r1, [sp, #44]	; 0x2c
  404816:	930a      	str	r3, [sp, #40]	; 0x28
  404818:	d417      	bmi.n	40484a <__kernel_rem_pio2+0x7a>
  40481a:	98a7      	ldr	r0, [sp, #668]	; 0x29c
  40481c:	4434      	add	r4, r6
  40481e:	3401      	adds	r4, #1
  404820:	f10d 0888 	add.w	r8, sp, #136	; 0x88
  404824:	eb00 0586 	add.w	r5, r0, r6, lsl #2
  404828:	2700      	movs	r7, #0
  40482a:	e009      	b.n	404840 <__kernel_rem_pio2+0x70>
  40482c:	59e8      	ldr	r0, [r5, r7]
  40482e:	f000 fed7 	bl	4055e0 <__aeabi_i2d>
  404832:	3601      	adds	r6, #1
  404834:	42a6      	cmp	r6, r4
  404836:	e9e8 0102 	strd	r0, r1, [r8, #8]!
  40483a:	f107 0704 	add.w	r7, r7, #4
  40483e:	d004      	beq.n	40484a <__kernel_rem_pio2+0x7a>
  404840:	2e00      	cmp	r6, #0
  404842:	daf3      	bge.n	40482c <__kernel_rem_pio2+0x5c>
  404844:	2000      	movs	r0, #0
  404846:	2100      	movs	r1, #0
  404848:	e7f3      	b.n	404832 <__kernel_rem_pio2+0x62>
  40484a:	9c0c      	ldr	r4, [sp, #48]	; 0x30
  40484c:	2c00      	cmp	r4, #0
  40484e:	db2d      	blt.n	4048ac <__kernel_rem_pio2+0xdc>
  404850:	9d0c      	ldr	r5, [sp, #48]	; 0x30
  404852:	ae74      	add	r6, sp, #464	; 0x1d0
  404854:	eb06 0bc5 	add.w	fp, r6, r5, lsl #3
  404858:	a824      	add	r0, sp, #144	; 0x90
  40485a:	eb00 0ac9 	add.w	sl, r0, r9, lsl #3
  40485e:	f50d 78e4 	add.w	r8, sp, #456	; 0x1c8
  404862:	f8cd b00c 	str.w	fp, [sp, #12]
  404866:	9c04      	ldr	r4, [sp, #16]
  404868:	2c00      	cmp	r4, #0
  40486a:	f2c0 8195 	blt.w	404b98 <__kernel_rem_pio2+0x3c8>
  40486e:	9d07      	ldr	r5, [sp, #28]
  404870:	4657      	mov	r7, sl
  404872:	f1a5 0b08 	sub.w	fp, r5, #8
  404876:	2400      	movs	r4, #0
  404878:	2500      	movs	r5, #0
  40487a:	2600      	movs	r6, #0
  40487c:	e977 2302 	ldrd	r2, r3, [r7, #-8]!
  404880:	e9fb 0102 	ldrd	r0, r1, [fp, #8]!
  404884:	f000 ff12 	bl	4056ac <__aeabi_dmul>
  404888:	4602      	mov	r2, r0
  40488a:	460b      	mov	r3, r1
  40488c:	4620      	mov	r0, r4
  40488e:	4629      	mov	r1, r5
  404890:	f000 fd5a 	bl	405348 <__adddf3>
  404894:	3601      	adds	r6, #1
  404896:	454e      	cmp	r6, r9
  404898:	4604      	mov	r4, r0
  40489a:	460d      	mov	r5, r1
  40489c:	d1ee      	bne.n	40487c <__kernel_rem_pio2+0xac>
  40489e:	e9e8 4502 	strd	r4, r5, [r8, #8]!
  4048a2:	9c03      	ldr	r4, [sp, #12]
  4048a4:	f10a 0a08 	add.w	sl, sl, #8
  4048a8:	45a0      	cmp	r8, r4
  4048aa:	d1dc      	bne.n	404866 <__kernel_rem_pio2+0x96>
  4048ac:	9d0c      	ldr	r5, [sp, #48]	; 0x30
  4048ae:	ac10      	add	r4, sp, #64	; 0x40
  4048b0:	eb04 0685 	add.w	r6, r4, r5, lsl #2
  4048b4:	9402      	str	r4, [sp, #8]
  4048b6:	960f      	str	r6, [sp, #60]	; 0x3c
  4048b8:	9503      	str	r5, [sp, #12]
  4048ba:	9e03      	ldr	r6, [sp, #12]
  4048bc:	ab9c      	add	r3, sp, #624	; 0x270
  4048be:	00f6      	lsls	r6, r6, #3
  4048c0:	4433      	add	r3, r6
  4048c2:	9606      	str	r6, [sp, #24]
  4048c4:	9e03      	ldr	r6, [sp, #12]
  4048c6:	e953 4528 	ldrd	r4, r5, [r3, #-160]	; 0xa0
  4048ca:	2e00      	cmp	r6, #0
  4048cc:	dd2e      	ble.n	40492c <__kernel_rem_pio2+0x15c>
  4048ce:	9e06      	ldr	r6, [sp, #24]
  4048d0:	f50d 7ae8 	add.w	sl, sp, #464	; 0x1d0
  4048d4:	44b2      	add	sl, r6
  4048d6:	9e03      	ldr	r6, [sp, #12]
  4048d8:	f10d 0b3c 	add.w	fp, sp, #60	; 0x3c
  4048dc:	eb0b 0b86 	add.w	fp, fp, r6, lsl #2
  4048e0:	f10d 083c 	add.w	r8, sp, #60	; 0x3c
  4048e4:	2200      	movs	r2, #0
  4048e6:	4b39      	ldr	r3, [pc, #228]	; (4049cc <__kernel_rem_pio2+0x1fc>)
  4048e8:	4620      	mov	r0, r4
  4048ea:	4629      	mov	r1, r5
  4048ec:	f000 fede 	bl	4056ac <__aeabi_dmul>
  4048f0:	f001 f976 	bl	405be0 <__aeabi_d2iz>
  4048f4:	f000 fe74 	bl	4055e0 <__aeabi_i2d>
  4048f8:	2200      	movs	r2, #0
  4048fa:	4b35      	ldr	r3, [pc, #212]	; (4049d0 <__kernel_rem_pio2+0x200>)
  4048fc:	4606      	mov	r6, r0
  4048fe:	460f      	mov	r7, r1
  404900:	f000 fed4 	bl	4056ac <__aeabi_dmul>
  404904:	4602      	mov	r2, r0
  404906:	460b      	mov	r3, r1
  404908:	4620      	mov	r0, r4
  40490a:	4629      	mov	r1, r5
  40490c:	f000 fd1a 	bl	405344 <__aeabi_dsub>
  404910:	f001 f966 	bl	405be0 <__aeabi_d2iz>
  404914:	4632      	mov	r2, r6
  404916:	f848 0f04 	str.w	r0, [r8, #4]!
  40491a:	463b      	mov	r3, r7
  40491c:	e97a 0102 	ldrd	r0, r1, [sl, #-8]!
  404920:	f000 fd12 	bl	405348 <__adddf3>
  404924:	45d8      	cmp	r8, fp
  404926:	4604      	mov	r4, r0
  404928:	460d      	mov	r5, r1
  40492a:	d1db      	bne.n	4048e4 <__kernel_rem_pio2+0x114>
  40492c:	4620      	mov	r0, r4
  40492e:	4629      	mov	r1, r5
  404930:	9a0a      	ldr	r2, [sp, #40]	; 0x28
  404932:	f000 fc79 	bl	405228 <scalbn>
  404936:	2200      	movs	r2, #0
  404938:	f04f 537f 	mov.w	r3, #1069547520	; 0x3fc00000
  40493c:	4604      	mov	r4, r0
  40493e:	460d      	mov	r5, r1
  404940:	f000 feb4 	bl	4056ac <__aeabi_dmul>
  404944:	f000 fbe0 	bl	405108 <floor>
  404948:	2200      	movs	r2, #0
  40494a:	4b22      	ldr	r3, [pc, #136]	; (4049d4 <__kernel_rem_pio2+0x204>)
  40494c:	f000 feae 	bl	4056ac <__aeabi_dmul>
  404950:	4602      	mov	r2, r0
  404952:	460b      	mov	r3, r1
  404954:	4620      	mov	r0, r4
  404956:	4629      	mov	r1, r5
  404958:	f000 fcf4 	bl	405344 <__aeabi_dsub>
  40495c:	4604      	mov	r4, r0
  40495e:	460d      	mov	r5, r1
  404960:	f001 f93e 	bl	405be0 <__aeabi_d2iz>
  404964:	4682      	mov	sl, r0
  404966:	f000 fe3b 	bl	4055e0 <__aeabi_i2d>
  40496a:	4602      	mov	r2, r0
  40496c:	460b      	mov	r3, r1
  40496e:	4620      	mov	r0, r4
  404970:	4629      	mov	r1, r5
  404972:	f000 fce7 	bl	405344 <__aeabi_dsub>
  404976:	9c0a      	ldr	r4, [sp, #40]	; 0x28
  404978:	4606      	mov	r6, r0
  40497a:	2c00      	cmp	r4, #0
  40497c:	460f      	mov	r7, r1
  40497e:	f340 80f2 	ble.w	404b66 <__kernel_rem_pio2+0x396>
  404982:	9d03      	ldr	r5, [sp, #12]
  404984:	a810      	add	r0, sp, #64	; 0x40
  404986:	1e69      	subs	r1, r5, #1
  404988:	f850 3021 	ldr.w	r3, [r0, r1, lsl #2]
  40498c:	f1c4 0018 	rsb	r0, r4, #24
  404990:	fa43 f200 	asr.w	r2, r3, r0
  404994:	fa02 f000 	lsl.w	r0, r2, r0
  404998:	f1c4 0517 	rsb	r5, r4, #23
  40499c:	1a1b      	subs	r3, r3, r0
  40499e:	fa43 f505 	asr.w	r5, r3, r5
  4049a2:	ac10      	add	r4, sp, #64	; 0x40
  4049a4:	f844 3021 	str.w	r3, [r4, r1, lsl #2]
  4049a8:	4492      	add	sl, r2
  4049aa:	2d00      	cmp	r5, #0
  4049ac:	dd3e      	ble.n	404a2c <__kernel_rem_pio2+0x25c>
  4049ae:	9c03      	ldr	r4, [sp, #12]
  4049b0:	f10a 0a01 	add.w	sl, sl, #1
  4049b4:	2c00      	cmp	r4, #0
  4049b6:	f340 80f9 	ble.w	404bac <__kernel_rem_pio2+0x3dc>
  4049ba:	ab10      	add	r3, sp, #64	; 0x40
  4049bc:	eb03 0184 	add.w	r1, r3, r4, lsl #2
  4049c0:	2400      	movs	r4, #0
  4049c2:	e011      	b.n	4049e8 <__kernel_rem_pio2+0x218>
  4049c4:	2aaaaaab 	.word	0x2aaaaaab
  4049c8:	0040c6d8 	.word	0x0040c6d8
  4049cc:	3e700000 	.word	0x3e700000
  4049d0:	41700000 	.word	0x41700000
  4049d4:	40200000 	.word	0x40200000
  4049d8:	f1c2 7080 	rsb	r0, r2, #16777216	; 0x1000000
  4049dc:	b112      	cbz	r2, 4049e4 <__kernel_rem_pio2+0x214>
  4049de:	f843 0c04 	str.w	r0, [r3, #-4]
  4049e2:	2401      	movs	r4, #1
  4049e4:	428b      	cmp	r3, r1
  4049e6:	d00d      	beq.n	404a04 <__kernel_rem_pio2+0x234>
  4049e8:	f853 2b04 	ldr.w	r2, [r3], #4
  4049ec:	2c00      	cmp	r4, #0
  4049ee:	d0f3      	beq.n	4049d8 <__kernel_rem_pio2+0x208>
  4049f0:	f1c2 12ff 	rsb	r2, r2, #16711935	; 0xff00ff
  4049f4:	f502 427f 	add.w	r2, r2, #65280	; 0xff00
  4049f8:	428b      	cmp	r3, r1
  4049fa:	f843 2c04 	str.w	r2, [r3, #-4]
  4049fe:	f04f 0401 	mov.w	r4, #1
  404a02:	d1f1      	bne.n	4049e8 <__kernel_rem_pio2+0x218>
  404a04:	980a      	ldr	r0, [sp, #40]	; 0x28
  404a06:	2800      	cmp	r0, #0
  404a08:	dd0d      	ble.n	404a26 <__kernel_rem_pio2+0x256>
  404a0a:	2801      	cmp	r0, #1
  404a0c:	f000 80b3 	beq.w	404b76 <__kernel_rem_pio2+0x3a6>
  404a10:	2802      	cmp	r0, #2
  404a12:	d108      	bne.n	404a26 <__kernel_rem_pio2+0x256>
  404a14:	9903      	ldr	r1, [sp, #12]
  404a16:	a810      	add	r0, sp, #64	; 0x40
  404a18:	1e4b      	subs	r3, r1, #1
  404a1a:	f850 2023 	ldr.w	r2, [r0, r3, lsl #2]
  404a1e:	f3c2 0215 	ubfx	r2, r2, #0, #22
  404a22:	f840 2023 	str.w	r2, [r0, r3, lsl #2]
  404a26:	2d02      	cmp	r5, #2
  404a28:	f000 8084 	beq.w	404b34 <__kernel_rem_pio2+0x364>
  404a2c:	4630      	mov	r0, r6
  404a2e:	4639      	mov	r1, r7
  404a30:	2200      	movs	r2, #0
  404a32:	2300      	movs	r3, #0
  404a34:	f001 f8a2 	bl	405b7c <__aeabi_dcmpeq>
  404a38:	2800      	cmp	r0, #0
  404a3a:	f000 80b9 	beq.w	404bb0 <__kernel_rem_pio2+0x3e0>
  404a3e:	9c03      	ldr	r4, [sp, #12]
  404a40:	9e0c      	ldr	r6, [sp, #48]	; 0x30
  404a42:	f104 38ff 	add.w	r8, r4, #4294967295
  404a46:	4546      	cmp	r6, r8
  404a48:	dc0d      	bgt.n	404a66 <__kernel_rem_pio2+0x296>
  404a4a:	a810      	add	r0, sp, #64	; 0x40
  404a4c:	eb00 0384 	add.w	r3, r0, r4, lsl #2
  404a50:	980f      	ldr	r0, [sp, #60]	; 0x3c
  404a52:	2200      	movs	r2, #0
  404a54:	f853 1d04 	ldr.w	r1, [r3, #-4]!
  404a58:	4283      	cmp	r3, r0
  404a5a:	ea42 0201 	orr.w	r2, r2, r1
  404a5e:	d1f9      	bne.n	404a54 <__kernel_rem_pio2+0x284>
  404a60:	2a00      	cmp	r2, #0
  404a62:	f040 8244 	bne.w	404eee <__kernel_rem_pio2+0x71e>
  404a66:	9c0c      	ldr	r4, [sp, #48]	; 0x30
  404a68:	ad10      	add	r5, sp, #64	; 0x40
  404a6a:	1e62      	subs	r2, r4, #1
  404a6c:	f855 3022 	ldr.w	r3, [r5, r2, lsl #2]
  404a70:	2b00      	cmp	r3, #0
  404a72:	f040 8254 	bne.w	404f1e <__kernel_rem_pio2+0x74e>
  404a76:	eb05 0282 	add.w	r2, r5, r2, lsl #2
  404a7a:	2301      	movs	r3, #1
  404a7c:	f852 1d04 	ldr.w	r1, [r2, #-4]!
  404a80:	3301      	adds	r3, #1
  404a82:	2900      	cmp	r1, #0
  404a84:	d0fa      	beq.n	404a7c <__kernel_rem_pio2+0x2ac>
  404a86:	9e03      	ldr	r6, [sp, #12]
  404a88:	9c03      	ldr	r4, [sp, #12]
  404a8a:	441e      	add	r6, r3
  404a8c:	1c63      	adds	r3, r4, #1
  404a8e:	42b3      	cmp	r3, r6
  404a90:	960d      	str	r6, [sp, #52]	; 0x34
  404a92:	dc49      	bgt.n	404b28 <__kernel_rem_pio2+0x358>
  404a94:	9d04      	ldr	r5, [sp, #16]
  404a96:	9e0e      	ldr	r6, [sp, #56]	; 0x38
  404a98:	442b      	add	r3, r5
  404a9a:	4621      	mov	r1, r4
  404a9c:	4622      	mov	r2, r4
  404a9e:	9d0d      	ldr	r5, [sp, #52]	; 0x34
  404aa0:	4432      	add	r2, r6
  404aa2:	4449      	add	r1, r9
  404aa4:	ae24      	add	r6, sp, #144	; 0x90
  404aa6:	f103 3bff 	add.w	fp, r3, #4294967295
  404aaa:	1b2b      	subs	r3, r5, r4
  404aac:	eb06 04c1 	add.w	r4, r6, r1, lsl #3
  404ab0:	9409      	str	r4, [sp, #36]	; 0x24
  404ab2:	9da7      	ldr	r5, [sp, #668]	; 0x29c
  404ab4:	9c06      	ldr	r4, [sp, #24]
  404ab6:	eb06 0bcb 	add.w	fp, r6, fp, lsl #3
  404aba:	ae74      	add	r6, sp, #464	; 0x1d0
  404abc:	eb05 0282 	add.w	r2, r5, r2, lsl #2
  404ac0:	00db      	lsls	r3, r3, #3
  404ac2:	4426      	add	r6, r4
  404ac4:	9203      	str	r2, [sp, #12]
  404ac6:	9308      	str	r3, [sp, #32]
  404ac8:	9606      	str	r6, [sp, #24]
  404aca:	f04f 0800 	mov.w	r8, #0
  404ace:	9d03      	ldr	r5, [sp, #12]
  404ad0:	f108 0808 	add.w	r8, r8, #8
  404ad4:	f855 0f04 	ldr.w	r0, [r5, #4]!
  404ad8:	9503      	str	r5, [sp, #12]
  404ada:	f000 fd81 	bl	4055e0 <__aeabi_i2d>
  404ade:	9e04      	ldr	r6, [sp, #16]
  404ae0:	e9eb 0102 	strd	r0, r1, [fp, #8]!
  404ae4:	2e00      	cmp	r6, #0
  404ae6:	db22      	blt.n	404b2e <__kernel_rem_pio2+0x35e>
  404ae8:	9c07      	ldr	r4, [sp, #28]
  404aea:	9f09      	ldr	r7, [sp, #36]	; 0x24
  404aec:	f1a4 0a08 	sub.w	sl, r4, #8
  404af0:	4447      	add	r7, r8
  404af2:	2400      	movs	r4, #0
  404af4:	2500      	movs	r5, #0
  404af6:	2600      	movs	r6, #0
  404af8:	e977 2302 	ldrd	r2, r3, [r7, #-8]!
  404afc:	e9fa 0102 	ldrd	r0, r1, [sl, #8]!
  404b00:	f000 fdd4 	bl	4056ac <__aeabi_dmul>
  404b04:	4602      	mov	r2, r0
  404b06:	460b      	mov	r3, r1
  404b08:	4620      	mov	r0, r4
  404b0a:	4629      	mov	r1, r5
  404b0c:	f000 fc1c 	bl	405348 <__adddf3>
  404b10:	3601      	adds	r6, #1
  404b12:	454e      	cmp	r6, r9
  404b14:	4604      	mov	r4, r0
  404b16:	460d      	mov	r5, r1
  404b18:	d1ee      	bne.n	404af8 <__kernel_rem_pio2+0x328>
  404b1a:	9e06      	ldr	r6, [sp, #24]
  404b1c:	e9e6 4502 	strd	r4, r5, [r6, #8]!
  404b20:	9c08      	ldr	r4, [sp, #32]
  404b22:	9606      	str	r6, [sp, #24]
  404b24:	45a0      	cmp	r8, r4
  404b26:	d1d2      	bne.n	404ace <__kernel_rem_pio2+0x2fe>
  404b28:	9d0d      	ldr	r5, [sp, #52]	; 0x34
  404b2a:	9503      	str	r5, [sp, #12]
  404b2c:	e6c5      	b.n	4048ba <__kernel_rem_pio2+0xea>
  404b2e:	2400      	movs	r4, #0
  404b30:	2500      	movs	r5, #0
  404b32:	e7f2      	b.n	404b1a <__kernel_rem_pio2+0x34a>
  404b34:	4632      	mov	r2, r6
  404b36:	463b      	mov	r3, r7
  404b38:	2000      	movs	r0, #0
  404b3a:	4992      	ldr	r1, [pc, #584]	; (404d84 <__kernel_rem_pio2+0x5b4>)
  404b3c:	f000 fc02 	bl	405344 <__aeabi_dsub>
  404b40:	4606      	mov	r6, r0
  404b42:	460f      	mov	r7, r1
  404b44:	2c00      	cmp	r4, #0
  404b46:	f43f af71 	beq.w	404a2c <__kernel_rem_pio2+0x25c>
  404b4a:	9a0a      	ldr	r2, [sp, #40]	; 0x28
  404b4c:	2000      	movs	r0, #0
  404b4e:	498d      	ldr	r1, [pc, #564]	; (404d84 <__kernel_rem_pio2+0x5b4>)
  404b50:	f000 fb6a 	bl	405228 <scalbn>
  404b54:	4602      	mov	r2, r0
  404b56:	460b      	mov	r3, r1
  404b58:	4630      	mov	r0, r6
  404b5a:	4639      	mov	r1, r7
  404b5c:	f000 fbf2 	bl	405344 <__aeabi_dsub>
  404b60:	4606      	mov	r6, r0
  404b62:	460f      	mov	r7, r1
  404b64:	e762      	b.n	404a2c <__kernel_rem_pio2+0x25c>
  404b66:	d110      	bne.n	404b8a <__kernel_rem_pio2+0x3ba>
  404b68:	9d03      	ldr	r5, [sp, #12]
  404b6a:	a810      	add	r0, sp, #64	; 0x40
  404b6c:	1e6b      	subs	r3, r5, #1
  404b6e:	f850 5023 	ldr.w	r5, [r0, r3, lsl #2]
  404b72:	15ed      	asrs	r5, r5, #23
  404b74:	e719      	b.n	4049aa <__kernel_rem_pio2+0x1da>
  404b76:	9903      	ldr	r1, [sp, #12]
  404b78:	a810      	add	r0, sp, #64	; 0x40
  404b7a:	1e4b      	subs	r3, r1, #1
  404b7c:	f850 2023 	ldr.w	r2, [r0, r3, lsl #2]
  404b80:	f3c2 0216 	ubfx	r2, r2, #0, #23
  404b84:	f840 2023 	str.w	r2, [r0, r3, lsl #2]
  404b88:	e74d      	b.n	404a26 <__kernel_rem_pio2+0x256>
  404b8a:	2200      	movs	r2, #0
  404b8c:	4b7e      	ldr	r3, [pc, #504]	; (404d88 <__kernel_rem_pio2+0x5b8>)
  404b8e:	f001 f813 	bl	405bb8 <__aeabi_dcmpge>
  404b92:	b920      	cbnz	r0, 404b9e <__kernel_rem_pio2+0x3ce>
  404b94:	4605      	mov	r5, r0
  404b96:	e749      	b.n	404a2c <__kernel_rem_pio2+0x25c>
  404b98:	2400      	movs	r4, #0
  404b9a:	2500      	movs	r5, #0
  404b9c:	e67f      	b.n	40489e <__kernel_rem_pio2+0xce>
  404b9e:	9c03      	ldr	r4, [sp, #12]
  404ba0:	2502      	movs	r5, #2
  404ba2:	2c00      	cmp	r4, #0
  404ba4:	f10a 0a01 	add.w	sl, sl, #1
  404ba8:	f73f af07 	bgt.w	4049ba <__kernel_rem_pio2+0x1ea>
  404bac:	2400      	movs	r4, #0
  404bae:	e729      	b.n	404a04 <__kernel_rem_pio2+0x234>
  404bb0:	9c0a      	ldr	r4, [sp, #40]	; 0x28
  404bb2:	4630      	mov	r0, r6
  404bb4:	4262      	negs	r2, r4
  404bb6:	4639      	mov	r1, r7
  404bb8:	9506      	str	r5, [sp, #24]
  404bba:	f8cd a01c 	str.w	sl, [sp, #28]
  404bbe:	f000 fb33 	bl	405228 <scalbn>
  404bc2:	2200      	movs	r2, #0
  404bc4:	4b71      	ldr	r3, [pc, #452]	; (404d8c <__kernel_rem_pio2+0x5bc>)
  404bc6:	4604      	mov	r4, r0
  404bc8:	460d      	mov	r5, r1
  404bca:	f000 fff5 	bl	405bb8 <__aeabi_dcmpge>
  404bce:	2800      	cmp	r0, #0
  404bd0:	f000 81bb 	beq.w	404f4a <__kernel_rem_pio2+0x77a>
  404bd4:	2200      	movs	r2, #0
  404bd6:	4b6e      	ldr	r3, [pc, #440]	; (404d90 <__kernel_rem_pio2+0x5c0>)
  404bd8:	4620      	mov	r0, r4
  404bda:	4629      	mov	r1, r5
  404bdc:	f000 fd66 	bl	4056ac <__aeabi_dmul>
  404be0:	f000 fffe 	bl	405be0 <__aeabi_d2iz>
  404be4:	4606      	mov	r6, r0
  404be6:	f000 fcfb 	bl	4055e0 <__aeabi_i2d>
  404bea:	2200      	movs	r2, #0
  404bec:	4b67      	ldr	r3, [pc, #412]	; (404d8c <__kernel_rem_pio2+0x5bc>)
  404bee:	f000 fd5d 	bl	4056ac <__aeabi_dmul>
  404bf2:	4602      	mov	r2, r0
  404bf4:	460b      	mov	r3, r1
  404bf6:	4620      	mov	r0, r4
  404bf8:	4629      	mov	r1, r5
  404bfa:	f000 fba3 	bl	405344 <__aeabi_dsub>
  404bfe:	f000 ffef 	bl	405be0 <__aeabi_d2iz>
  404c02:	9c03      	ldr	r4, [sp, #12]
  404c04:	9d0a      	ldr	r5, [sp, #40]	; 0x28
  404c06:	a910      	add	r1, sp, #64	; 0x40
  404c08:	f104 0801 	add.w	r8, r4, #1
  404c0c:	3518      	adds	r5, #24
  404c0e:	f841 0024 	str.w	r0, [r1, r4, lsl #2]
  404c12:	950a      	str	r5, [sp, #40]	; 0x28
  404c14:	f841 6028 	str.w	r6, [r1, r8, lsl #2]
  404c18:	9a0a      	ldr	r2, [sp, #40]	; 0x28
  404c1a:	2000      	movs	r0, #0
  404c1c:	4959      	ldr	r1, [pc, #356]	; (404d84 <__kernel_rem_pio2+0x5b4>)
  404c1e:	f000 fb03 	bl	405228 <scalbn>
  404c22:	f1b8 0f00 	cmp.w	r8, #0
  404c26:	4604      	mov	r4, r0
  404c28:	460d      	mov	r5, r1
  404c2a:	db5a      	blt.n	404ce2 <__kernel_rem_pio2+0x512>
  404c2c:	f108 0601 	add.w	r6, r8, #1
  404c30:	a810      	add	r0, sp, #64	; 0x40
  404c32:	a974      	add	r1, sp, #464	; 0x1d0
  404c34:	9603      	str	r6, [sp, #12]
  404c36:	eb00 0786 	add.w	r7, r0, r6, lsl #2
  404c3a:	eb01 06c6 	add.w	r6, r1, r6, lsl #3
  404c3e:	f857 0d04 	ldr.w	r0, [r7, #-4]!
  404c42:	f000 fccd 	bl	4055e0 <__aeabi_i2d>
  404c46:	4622      	mov	r2, r4
  404c48:	462b      	mov	r3, r5
  404c4a:	f000 fd2f 	bl	4056ac <__aeabi_dmul>
  404c4e:	2200      	movs	r2, #0
  404c50:	e966 0102 	strd	r0, r1, [r6, #-8]!
  404c54:	4b4e      	ldr	r3, [pc, #312]	; (404d90 <__kernel_rem_pio2+0x5c0>)
  404c56:	4620      	mov	r0, r4
  404c58:	4629      	mov	r1, r5
  404c5a:	f000 fd27 	bl	4056ac <__aeabi_dmul>
  404c5e:	9a02      	ldr	r2, [sp, #8]
  404c60:	4604      	mov	r4, r0
  404c62:	4297      	cmp	r7, r2
  404c64:	460d      	mov	r5, r1
  404c66:	d1ea      	bne.n	404c3e <__kernel_rem_pio2+0x46e>
  404c68:	f108 5b00 	add.w	fp, r8, #536870912	; 0x20000000
  404c6c:	f10b 3bff 	add.w	fp, fp, #4294967295
  404c70:	ab74      	add	r3, sp, #464	; 0x1d0
  404c72:	f50d 7a98 	add.w	sl, sp, #304	; 0x130
  404c76:	f8cd 8020 	str.w	r8, [sp, #32]
  404c7a:	f8dd 8030 	ldr.w	r8, [sp, #48]	; 0x30
  404c7e:	eb03 0bcb 	add.w	fp, r3, fp, lsl #3
  404c82:	f04f 0900 	mov.w	r9, #0
  404c86:	f8cd a010 	str.w	sl, [sp, #16]
  404c8a:	f1b8 0f00 	cmp.w	r8, #0
  404c8e:	f2c0 8128 	blt.w	404ee2 <__kernel_rem_pio2+0x712>
  404c92:	f8df a100 	ldr.w	sl, [pc, #256]	; 404d94 <__kernel_rem_pio2+0x5c4>
  404c96:	465f      	mov	r7, fp
  404c98:	2400      	movs	r4, #0
  404c9a:	2500      	movs	r5, #0
  404c9c:	2600      	movs	r6, #0
  404c9e:	e001      	b.n	404ca4 <__kernel_rem_pio2+0x4d4>
  404ca0:	454e      	cmp	r6, r9
  404ca2:	dc10      	bgt.n	404cc6 <__kernel_rem_pio2+0x4f6>
  404ca4:	e9f7 2302 	ldrd	r2, r3, [r7, #8]!
  404ca8:	e9fa 0102 	ldrd	r0, r1, [sl, #8]!
  404cac:	f000 fcfe 	bl	4056ac <__aeabi_dmul>
  404cb0:	4602      	mov	r2, r0
  404cb2:	460b      	mov	r3, r1
  404cb4:	4620      	mov	r0, r4
  404cb6:	4629      	mov	r1, r5
  404cb8:	f000 fb46 	bl	405348 <__adddf3>
  404cbc:	3601      	adds	r6, #1
  404cbe:	45b0      	cmp	r8, r6
  404cc0:	4604      	mov	r4, r0
  404cc2:	460d      	mov	r5, r1
  404cc4:	daec      	bge.n	404ca0 <__kernel_rem_pio2+0x4d0>
  404cc6:	9e04      	ldr	r6, [sp, #16]
  404cc8:	f1ab 0b08 	sub.w	fp, fp, #8
  404ccc:	eb06 03c9 	add.w	r3, r6, r9, lsl #3
  404cd0:	e9c3 4500 	strd	r4, r5, [r3]
  404cd4:	9c03      	ldr	r4, [sp, #12]
  404cd6:	f109 0901 	add.w	r9, r9, #1
  404cda:	45a1      	cmp	r9, r4
  404cdc:	d1d5      	bne.n	404c8a <__kernel_rem_pio2+0x4ba>
  404cde:	f8dd 8020 	ldr.w	r8, [sp, #32]
  404ce2:	9da6      	ldr	r5, [sp, #664]	; 0x298
  404ce4:	2d03      	cmp	r5, #3
  404ce6:	f200 8097 	bhi.w	404e18 <__kernel_rem_pio2+0x648>
  404cea:	e8df f015 	tbh	[pc, r5, lsl #1]
  404cee:	00da      	.short	0x00da
  404cf0:	009c009c 	.word	0x009c009c
  404cf4:	0004      	.short	0x0004
  404cf6:	f1b8 0f00 	cmp.w	r8, #0
  404cfa:	f340 8112 	ble.w	404f22 <__kernel_rem_pio2+0x752>
  404cfe:	f50d 7a98 	add.w	sl, sp, #304	; 0x130
  404d02:	f108 0301 	add.w	r3, r8, #1
  404d06:	eb0a 03c3 	add.w	r3, sl, r3, lsl #3
  404d0a:	ea4f 0bc8 	mov.w	fp, r8, lsl #3
  404d0e:	9303      	str	r3, [sp, #12]
  404d10:	4699      	mov	r9, r3
  404d12:	eb0a 030b 	add.w	r3, sl, fp
  404d16:	f50d 7c9c 	add.w	ip, sp, #312	; 0x138
  404d1a:	e9d3 6700 	ldrd	r6, r7, [r3]
  404d1e:	e001      	b.n	404d24 <__kernel_rem_pio2+0x554>
  404d20:	4626      	mov	r6, r4
  404d22:	462f      	mov	r7, r5
  404d24:	e959 4504 	ldrd	r4, r5, [r9, #-16]
  404d28:	4632      	mov	r2, r6
  404d2a:	463b      	mov	r3, r7
  404d2c:	4620      	mov	r0, r4
  404d2e:	4629      	mov	r1, r5
  404d30:	f8cd c004 	str.w	ip, [sp, #4]
  404d34:	e9cd 4504 	strd	r4, r5, [sp, #16]
  404d38:	f000 fb06 	bl	405348 <__adddf3>
  404d3c:	4604      	mov	r4, r0
  404d3e:	460d      	mov	r5, r1
  404d40:	4622      	mov	r2, r4
  404d42:	462b      	mov	r3, r5
  404d44:	e9dd 0104 	ldrd	r0, r1, [sp, #16]
  404d48:	f000 fafc 	bl	405344 <__aeabi_dsub>
  404d4c:	4632      	mov	r2, r6
  404d4e:	463b      	mov	r3, r7
  404d50:	f000 fafa 	bl	405348 <__adddf3>
  404d54:	e969 0102 	strd	r0, r1, [r9, #-8]!
  404d58:	f8dd c004 	ldr.w	ip, [sp, #4]
  404d5c:	e949 4502 	strd	r4, r5, [r9, #-8]
  404d60:	45e1      	cmp	r9, ip
  404d62:	d1dd      	bne.n	404d20 <__kernel_rem_pio2+0x550>
  404d64:	f1b8 0f01 	cmp.w	r8, #1
  404d68:	f340 810d 	ble.w	404f86 <__kernel_rem_pio2+0x7b6>
  404d6c:	f8dd c00c 	ldr.w	ip, [sp, #12]
  404d70:	eb0a 030b 	add.w	r3, sl, fp
  404d74:	f8cd a010 	str.w	sl, [sp, #16]
  404d78:	f10a 0b10 	add.w	fp, sl, #16
  404d7c:	e9d3 4500 	ldrd	r4, r5, [r3]
  404d80:	46e2      	mov	sl, ip
  404d82:	e00b      	b.n	404d9c <__kernel_rem_pio2+0x5cc>
  404d84:	3ff00000 	.word	0x3ff00000
  404d88:	3fe00000 	.word	0x3fe00000
  404d8c:	41700000 	.word	0x41700000
  404d90:	3e700000 	.word	0x3e700000
  404d94:	0040c6e0 	.word	0x0040c6e0
  404d98:	4634      	mov	r4, r6
  404d9a:	463d      	mov	r5, r7
  404d9c:	e95a 8904 	ldrd	r8, r9, [sl, #-16]
  404da0:	4622      	mov	r2, r4
  404da2:	462b      	mov	r3, r5
  404da4:	4640      	mov	r0, r8
  404da6:	4649      	mov	r1, r9
  404da8:	f000 face 	bl	405348 <__adddf3>
  404dac:	4606      	mov	r6, r0
  404dae:	460f      	mov	r7, r1
  404db0:	4632      	mov	r2, r6
  404db2:	463b      	mov	r3, r7
  404db4:	4640      	mov	r0, r8
  404db6:	4649      	mov	r1, r9
  404db8:	f000 fac4 	bl	405344 <__aeabi_dsub>
  404dbc:	4622      	mov	r2, r4
  404dbe:	462b      	mov	r3, r5
  404dc0:	f000 fac2 	bl	405348 <__adddf3>
  404dc4:	e96a 0102 	strd	r0, r1, [sl, #-8]!
  404dc8:	45da      	cmp	sl, fp
  404dca:	e94a 6702 	strd	r6, r7, [sl, #-8]
  404dce:	d1e3      	bne.n	404d98 <__kernel_rem_pio2+0x5c8>
  404dd0:	f8dd a010 	ldr.w	sl, [sp, #16]
  404dd4:	9c03      	ldr	r4, [sp, #12]
  404dd6:	2000      	movs	r0, #0
  404dd8:	2100      	movs	r1, #0
  404dda:	e974 2302 	ldrd	r2, r3, [r4, #-8]!
  404dde:	f000 fab3 	bl	405348 <__adddf3>
  404de2:	45a3      	cmp	fp, r4
  404de4:	d1f9      	bne.n	404dda <__kernel_rem_pio2+0x60a>
  404de6:	9d06      	ldr	r5, [sp, #24]
  404de8:	2d00      	cmp	r5, #0
  404dea:	f000 80a2 	beq.w	404f32 <__kernel_rem_pio2+0x762>
  404dee:	f8da 5004 	ldr.w	r5, [sl, #4]
  404df2:	f8da 400c 	ldr.w	r4, [sl, #12]
  404df6:	9e0b      	ldr	r6, [sp, #44]	; 0x2c
  404df8:	f8da 2000 	ldr.w	r2, [sl]
  404dfc:	f8da 3008 	ldr.w	r3, [sl, #8]
  404e00:	f105 4500 	add.w	r5, r5, #2147483648	; 0x80000000
  404e04:	f104 4400 	add.w	r4, r4, #2147483648	; 0x80000000
  404e08:	f101 4100 	add.w	r1, r1, #2147483648	; 0x80000000
  404e0c:	6075      	str	r5, [r6, #4]
  404e0e:	60f4      	str	r4, [r6, #12]
  404e10:	6032      	str	r2, [r6, #0]
  404e12:	60b3      	str	r3, [r6, #8]
  404e14:	6130      	str	r0, [r6, #16]
  404e16:	6171      	str	r1, [r6, #20]
  404e18:	9c07      	ldr	r4, [sp, #28]
  404e1a:	f004 0007 	and.w	r0, r4, #7
  404e1e:	f50d 7d1d 	add.w	sp, sp, #628	; 0x274
  404e22:	e8bd 8ff0 	ldmia.w	sp!, {r4, r5, r6, r7, r8, r9, sl, fp, pc}
  404e26:	f1b8 0f00 	cmp.w	r8, #0
  404e2a:	f2c0 80a7 	blt.w	404f7c <__kernel_rem_pio2+0x7ac>
  404e2e:	f50d 7a98 	add.w	sl, sp, #304	; 0x130
  404e32:	f108 0401 	add.w	r4, r8, #1
  404e36:	2200      	movs	r2, #0
  404e38:	2300      	movs	r3, #0
  404e3a:	eb0a 04c4 	add.w	r4, sl, r4, lsl #3
  404e3e:	4610      	mov	r0, r2
  404e40:	4619      	mov	r1, r3
  404e42:	e974 2302 	ldrd	r2, r3, [r4, #-8]!
  404e46:	f000 fa7f 	bl	405348 <__adddf3>
  404e4a:	4554      	cmp	r4, sl
  404e4c:	d1f9      	bne.n	404e42 <__kernel_rem_pio2+0x672>
  404e4e:	4602      	mov	r2, r0
  404e50:	460b      	mov	r3, r1
  404e52:	9e06      	ldr	r6, [sp, #24]
  404e54:	2e00      	cmp	r6, #0
  404e56:	d047      	beq.n	404ee8 <__kernel_rem_pio2+0x718>
  404e58:	4610      	mov	r0, r2
  404e5a:	f103 4100 	add.w	r1, r3, #2147483648	; 0x80000000
  404e5e:	9c0b      	ldr	r4, [sp, #44]	; 0x2c
  404e60:	e9c4 0100 	strd	r0, r1, [r4]
  404e64:	e9da 0100 	ldrd	r0, r1, [sl]
  404e68:	f000 fa6c 	bl	405344 <__aeabi_dsub>
  404e6c:	f1b8 0f00 	cmp.w	r8, #0
  404e70:	dd07      	ble.n	404e82 <__kernel_rem_pio2+0x6b2>
  404e72:	eb0a 08c8 	add.w	r8, sl, r8, lsl #3
  404e76:	e9fa 2302 	ldrd	r2, r3, [sl, #8]!
  404e7a:	f000 fa65 	bl	405348 <__adddf3>
  404e7e:	45c2      	cmp	sl, r8
  404e80:	d1f9      	bne.n	404e76 <__kernel_rem_pio2+0x6a6>
  404e82:	9d06      	ldr	r5, [sp, #24]
  404e84:	2d00      	cmp	r5, #0
  404e86:	d06a      	beq.n	404f5e <__kernel_rem_pio2+0x78e>
  404e88:	9e0b      	ldr	r6, [sp, #44]	; 0x2c
  404e8a:	4602      	mov	r2, r0
  404e8c:	f101 4300 	add.w	r3, r1, #2147483648	; 0x80000000
  404e90:	e9c6 2302 	strd	r2, r3, [r6, #8]
  404e94:	9c07      	ldr	r4, [sp, #28]
  404e96:	f004 0007 	and.w	r0, r4, #7
  404e9a:	f50d 7d1d 	add.w	sp, sp, #628	; 0x274
  404e9e:	e8bd 8ff0 	ldmia.w	sp!, {r4, r5, r6, r7, r8, r9, sl, fp, pc}
  404ea2:	f1b8 0f00 	cmp.w	r8, #0
  404ea6:	db66      	blt.n	404f76 <__kernel_rem_pio2+0x7a6>
  404ea8:	f108 0401 	add.w	r4, r8, #1
  404eac:	ad4c      	add	r5, sp, #304	; 0x130
  404eae:	eb05 04c4 	add.w	r4, r5, r4, lsl #3
  404eb2:	2000      	movs	r0, #0
  404eb4:	2100      	movs	r1, #0
  404eb6:	e974 2302 	ldrd	r2, r3, [r4, #-8]!
  404eba:	f000 fa45 	bl	405348 <__adddf3>
  404ebe:	42ac      	cmp	r4, r5
  404ec0:	d1f9      	bne.n	404eb6 <__kernel_rem_pio2+0x6e6>
  404ec2:	9c06      	ldr	r4, [sp, #24]
  404ec4:	2c00      	cmp	r4, #0
  404ec6:	d050      	beq.n	404f6a <__kernel_rem_pio2+0x79a>
  404ec8:	9d0b      	ldr	r5, [sp, #44]	; 0x2c
  404eca:	4602      	mov	r2, r0
  404ecc:	f101 4300 	add.w	r3, r1, #2147483648	; 0x80000000
  404ed0:	e9c5 2300 	strd	r2, r3, [r5]
  404ed4:	9c07      	ldr	r4, [sp, #28]
  404ed6:	f004 0007 	and.w	r0, r4, #7
  404eda:	f50d 7d1d 	add.w	sp, sp, #628	; 0x274
  404ede:	e8bd 8ff0 	ldmia.w	sp!, {r4, r5, r6, r7, r8, r9, sl, fp, pc}
  404ee2:	2400      	movs	r4, #0
  404ee4:	2500      	movs	r5, #0
  404ee6:	e6ee      	b.n	404cc6 <__kernel_rem_pio2+0x4f6>
  404ee8:	4610      	mov	r0, r2
  404eea:	4619      	mov	r1, r3
  404eec:	e7b7      	b.n	404e5e <__kernel_rem_pio2+0x68e>
  404eee:	9e0a      	ldr	r6, [sp, #40]	; 0x28
  404ef0:	9506      	str	r5, [sp, #24]
  404ef2:	ad10      	add	r5, sp, #64	; 0x40
  404ef4:	f855 3028 	ldr.w	r3, [r5, r8, lsl #2]
  404ef8:	3e18      	subs	r6, #24
  404efa:	f8cd a01c 	str.w	sl, [sp, #28]
  404efe:	960a      	str	r6, [sp, #40]	; 0x28
  404f00:	2b00      	cmp	r3, #0
  404f02:	f47f ae89 	bne.w	404c18 <__kernel_rem_pio2+0x448>
  404f06:	eb05 0388 	add.w	r3, r5, r8, lsl #2
  404f0a:	4632      	mov	r2, r6
  404f0c:	f853 1d04 	ldr.w	r1, [r3, #-4]!
  404f10:	f108 38ff 	add.w	r8, r8, #4294967295
  404f14:	3a18      	subs	r2, #24
  404f16:	2900      	cmp	r1, #0
  404f18:	d0f8      	beq.n	404f0c <__kernel_rem_pio2+0x73c>
  404f1a:	920a      	str	r2, [sp, #40]	; 0x28
  404f1c:	e67c      	b.n	404c18 <__kernel_rem_pio2+0x448>
  404f1e:	2301      	movs	r3, #1
  404f20:	e5b1      	b.n	404a86 <__kernel_rem_pio2+0x2b6>
  404f22:	9d06      	ldr	r5, [sp, #24]
  404f24:	2000      	movs	r0, #0
  404f26:	2100      	movs	r1, #0
  404f28:	f50d 7a98 	add.w	sl, sp, #304	; 0x130
  404f2c:	2d00      	cmp	r5, #0
  404f2e:	f47f af5e 	bne.w	404dee <__kernel_rem_pio2+0x61e>
  404f32:	9e0b      	ldr	r6, [sp, #44]	; 0x2c
  404f34:	e9da 2300 	ldrd	r2, r3, [sl]
  404f38:	e9c6 0104 	strd	r0, r1, [r6, #16]
  404f3c:	e9da 0102 	ldrd	r0, r1, [sl, #8]
  404f40:	e9c6 2300 	strd	r2, r3, [r6]
  404f44:	e9c6 0102 	strd	r0, r1, [r6, #8]
  404f48:	e766      	b.n	404e18 <__kernel_rem_pio2+0x648>
  404f4a:	4620      	mov	r0, r4
  404f4c:	4629      	mov	r1, r5
  404f4e:	f000 fe47 	bl	405be0 <__aeabi_d2iz>
  404f52:	f8dd 800c 	ldr.w	r8, [sp, #12]
  404f56:	aa10      	add	r2, sp, #64	; 0x40
  404f58:	f842 0028 	str.w	r0, [r2, r8, lsl #2]
  404f5c:	e65c      	b.n	404c18 <__kernel_rem_pio2+0x448>
  404f5e:	9e0b      	ldr	r6, [sp, #44]	; 0x2c
  404f60:	4602      	mov	r2, r0
  404f62:	460b      	mov	r3, r1
  404f64:	e9c6 2302 	strd	r2, r3, [r6, #8]
  404f68:	e794      	b.n	404e94 <__kernel_rem_pio2+0x6c4>
  404f6a:	9d0b      	ldr	r5, [sp, #44]	; 0x2c
  404f6c:	4602      	mov	r2, r0
  404f6e:	460b      	mov	r3, r1
  404f70:	e9c5 2300 	strd	r2, r3, [r5]
  404f74:	e7ae      	b.n	404ed4 <__kernel_rem_pio2+0x704>
  404f76:	2000      	movs	r0, #0
  404f78:	2100      	movs	r1, #0
  404f7a:	e7a2      	b.n	404ec2 <__kernel_rem_pio2+0x6f2>
  404f7c:	2200      	movs	r2, #0
  404f7e:	2300      	movs	r3, #0
  404f80:	f50d 7a98 	add.w	sl, sp, #304	; 0x130
  404f84:	e765      	b.n	404e52 <__kernel_rem_pio2+0x682>
  404f86:	2000      	movs	r0, #0
  404f88:	2100      	movs	r1, #0
  404f8a:	e72c      	b.n	404de6 <__kernel_rem_pio2+0x616>
  404f8c:	0000      	movs	r0, r0
	...

00404f90 <__kernel_sin>:
  404f90:	e92d 4ff0 	stmdb	sp!, {r4, r5, r6, r7, r8, r9, sl, fp, lr}
  404f94:	f021 4600 	bic.w	r6, r1, #2147483648	; 0x80000000
  404f98:	f1b6 5f79 	cmp.w	r6, #1044381696	; 0x3e400000
  404f9c:	b085      	sub	sp, #20
  404f9e:	4604      	mov	r4, r0
  404fa0:	460d      	mov	r5, r1
  404fa2:	4690      	mov	r8, r2
  404fa4:	4699      	mov	r9, r3
  404fa6:	da04      	bge.n	404fb2 <__kernel_sin+0x22>
  404fa8:	f000 fe1a 	bl	405be0 <__aeabi_d2iz>
  404fac:	2800      	cmp	r0, #0
  404fae:	f000 8084 	beq.w	4050ba <__kernel_sin+0x12a>
  404fb2:	4622      	mov	r2, r4
  404fb4:	462b      	mov	r3, r5
  404fb6:	4620      	mov	r0, r4
  404fb8:	4629      	mov	r1, r5
  404fba:	f000 fb77 	bl	4056ac <__aeabi_dmul>
  404fbe:	4622      	mov	r2, r4
  404fc0:	462b      	mov	r3, r5
  404fc2:	4606      	mov	r6, r0
  404fc4:	460f      	mov	r7, r1
  404fc6:	f000 fb71 	bl	4056ac <__aeabi_dmul>
  404fca:	a33f      	add	r3, pc, #252	; (adr r3, 4050c8 <__kernel_sin+0x138>)
  404fcc:	e9d3 2300 	ldrd	r2, r3, [r3]
  404fd0:	4682      	mov	sl, r0
  404fd2:	468b      	mov	fp, r1
  404fd4:	4630      	mov	r0, r6
  404fd6:	4639      	mov	r1, r7
  404fd8:	f000 fb68 	bl	4056ac <__aeabi_dmul>
  404fdc:	a33c      	add	r3, pc, #240	; (adr r3, 4050d0 <__kernel_sin+0x140>)
  404fde:	e9d3 2300 	ldrd	r2, r3, [r3]
  404fe2:	f000 f9af 	bl	405344 <__aeabi_dsub>
  404fe6:	4632      	mov	r2, r6
  404fe8:	463b      	mov	r3, r7
  404fea:	f000 fb5f 	bl	4056ac <__aeabi_dmul>
  404fee:	a33a      	add	r3, pc, #232	; (adr r3, 4050d8 <__kernel_sin+0x148>)
  404ff0:	e9d3 2300 	ldrd	r2, r3, [r3]
  404ff4:	f000 f9a8 	bl	405348 <__adddf3>
  404ff8:	4632      	mov	r2, r6
  404ffa:	463b      	mov	r3, r7
  404ffc:	f000 fb56 	bl	4056ac <__aeabi_dmul>
  405000:	a337      	add	r3, pc, #220	; (adr r3, 4050e0 <__kernel_sin+0x150>)
  405002:	e9d3 2300 	ldrd	r2, r3, [r3]
  405006:	f000 f99d 	bl	405344 <__aeabi_dsub>
  40500a:	4632      	mov	r2, r6
  40500c:	463b      	mov	r3, r7
  40500e:	f000 fb4d 	bl	4056ac <__aeabi_dmul>
  405012:	a335      	add	r3, pc, #212	; (adr r3, 4050e8 <__kernel_sin+0x158>)
  405014:	e9d3 2300 	ldrd	r2, r3, [r3]
  405018:	f000 f996 	bl	405348 <__adddf3>
  40501c:	9b0e      	ldr	r3, [sp, #56]	; 0x38
  40501e:	e9cd 0102 	strd	r0, r1, [sp, #8]
  405022:	2b00      	cmp	r3, #0
  405024:	d033      	beq.n	40508e <__kernel_sin+0xfe>
  405026:	4640      	mov	r0, r8
  405028:	4649      	mov	r1, r9
  40502a:	2200      	movs	r2, #0
  40502c:	4b32      	ldr	r3, [pc, #200]	; (4050f8 <__kernel_sin+0x168>)
  40502e:	f000 fb3d 	bl	4056ac <__aeabi_dmul>
  405032:	e9dd 2302 	ldrd	r2, r3, [sp, #8]
  405036:	e9cd 0100 	strd	r0, r1, [sp]
  40503a:	4650      	mov	r0, sl
  40503c:	4659      	mov	r1, fp
  40503e:	f000 fb35 	bl	4056ac <__aeabi_dmul>
  405042:	4602      	mov	r2, r0
  405044:	460b      	mov	r3, r1
  405046:	e9dd 0100 	ldrd	r0, r1, [sp]
  40504a:	f000 f97b 	bl	405344 <__aeabi_dsub>
  40504e:	4632      	mov	r2, r6
  405050:	463b      	mov	r3, r7
  405052:	f000 fb2b 	bl	4056ac <__aeabi_dmul>
  405056:	4642      	mov	r2, r8
  405058:	464b      	mov	r3, r9
  40505a:	f000 f973 	bl	405344 <__aeabi_dsub>
  40505e:	a324      	add	r3, pc, #144	; (adr r3, 4050f0 <__kernel_sin+0x160>)
  405060:	e9d3 2300 	ldrd	r2, r3, [r3]
  405064:	4606      	mov	r6, r0
  405066:	460f      	mov	r7, r1
  405068:	4650      	mov	r0, sl
  40506a:	4659      	mov	r1, fp
  40506c:	f000 fb1e 	bl	4056ac <__aeabi_dmul>
  405070:	4602      	mov	r2, r0
  405072:	460b      	mov	r3, r1
  405074:	4630      	mov	r0, r6
  405076:	4639      	mov	r1, r7
  405078:	f000 f966 	bl	405348 <__adddf3>
  40507c:	4602      	mov	r2, r0
  40507e:	460b      	mov	r3, r1
  405080:	4620      	mov	r0, r4
  405082:	4629      	mov	r1, r5
  405084:	f000 f95e 	bl	405344 <__aeabi_dsub>
  405088:	b005      	add	sp, #20
  40508a:	e8bd 8ff0 	ldmia.w	sp!, {r4, r5, r6, r7, r8, r9, sl, fp, pc}
  40508e:	e9dd 2302 	ldrd	r2, r3, [sp, #8]
  405092:	4630      	mov	r0, r6
  405094:	4639      	mov	r1, r7
  405096:	f000 fb09 	bl	4056ac <__aeabi_dmul>
  40509a:	a315      	add	r3, pc, #84	; (adr r3, 4050f0 <__kernel_sin+0x160>)
  40509c:	e9d3 2300 	ldrd	r2, r3, [r3]
  4050a0:	f000 f950 	bl	405344 <__aeabi_dsub>
  4050a4:	4652      	mov	r2, sl
  4050a6:	465b      	mov	r3, fp
  4050a8:	f000 fb00 	bl	4056ac <__aeabi_dmul>
  4050ac:	4622      	mov	r2, r4
  4050ae:	462b      	mov	r3, r5
  4050b0:	f000 f94a 	bl	405348 <__adddf3>
  4050b4:	b005      	add	sp, #20
  4050b6:	e8bd 8ff0 	ldmia.w	sp!, {r4, r5, r6, r7, r8, r9, sl, fp, pc}
  4050ba:	4620      	mov	r0, r4
  4050bc:	4629      	mov	r1, r5
  4050be:	b005      	add	sp, #20
  4050c0:	e8bd 8ff0 	ldmia.w	sp!, {r4, r5, r6, r7, r8, r9, sl, fp, pc}
  4050c4:	f3af 8000 	nop.w
  4050c8:	5acfd57c 	.word	0x5acfd57c
  4050cc:	3de5d93a 	.word	0x3de5d93a
  4050d0:	8a2b9ceb 	.word	0x8a2b9ceb
  4050d4:	3e5ae5e6 	.word	0x3e5ae5e6
  4050d8:	57b1fe7d 	.word	0x57b1fe7d
  4050dc:	3ec71de3 	.word	0x3ec71de3
  4050e0:	19c161d5 	.word	0x19c161d5
  4050e4:	3f2a01a0 	.word	0x3f2a01a0
  4050e8:	1110f8a6 	.word	0x1110f8a6
  4050ec:	3f811111 	.word	0x3f811111
  4050f0:	55555549 	.word	0x55555549
  4050f4:	3fc55555 	.word	0x3fc55555
  4050f8:	3fe00000 	.word	0x3fe00000
  4050fc:	f3af 8000 	nop.w

00405100 <fabs>:
  405100:	f021 4100 	bic.w	r1, r1, #2147483648	; 0x80000000
  405104:	4770      	bx	lr
  405106:	bf00      	nop

00405108 <floor>:
  405108:	e92d 4ff8 	stmdb	sp!, {r3, r4, r5, r6, r7, r8, r9, sl, fp, lr}
  40510c:	f3c1 570a 	ubfx	r7, r1, #20, #11
  405110:	f2a7 36ff 	subw	r6, r7, #1023	; 0x3ff
  405114:	2e13      	cmp	r6, #19
  405116:	4602      	mov	r2, r0
  405118:	460b      	mov	r3, r1
  40511a:	4604      	mov	r4, r0
  40511c:	460d      	mov	r5, r1
  40511e:	4689      	mov	r9, r1
  405120:	468a      	mov	sl, r1
  405122:	4680      	mov	r8, r0
  405124:	dc1c      	bgt.n	405160 <floor+0x58>
  405126:	2e00      	cmp	r6, #0
  405128:	db40      	blt.n	4051ac <floor+0xa4>
  40512a:	4f3d      	ldr	r7, [pc, #244]	; (405220 <floor+0x118>)
  40512c:	4137      	asrs	r7, r6
  40512e:	ea07 0c01 	and.w	ip, r7, r1
  405132:	ea5c 0c00 	orrs.w	ip, ip, r0
  405136:	d018      	beq.n	40516a <floor+0x62>
  405138:	a337      	add	r3, pc, #220	; (adr r3, 405218 <floor+0x110>)
  40513a:	e9d3 2300 	ldrd	r2, r3, [r3]
  40513e:	f000 f903 	bl	405348 <__adddf3>
  405142:	2200      	movs	r2, #0
  405144:	2300      	movs	r3, #0
  405146:	f000 fd41 	bl	405bcc <__aeabi_dcmpgt>
  40514a:	b128      	cbz	r0, 405158 <floor+0x50>
  40514c:	2d00      	cmp	r5, #0
  40514e:	db42      	blt.n	4051d6 <floor+0xce>
  405150:	ea2a 0907 	bic.w	r9, sl, r7
  405154:	f04f 0800 	mov.w	r8, #0
  405158:	4640      	mov	r0, r8
  40515a:	4649      	mov	r1, r9
  40515c:	e8bd 8ff8 	ldmia.w	sp!, {r3, r4, r5, r6, r7, r8, r9, sl, fp, pc}
  405160:	2e33      	cmp	r6, #51	; 0x33
  405162:	dd06      	ble.n	405172 <floor+0x6a>
  405164:	f5b6 6f80 	cmp.w	r6, #1024	; 0x400
  405168:	d031      	beq.n	4051ce <floor+0xc6>
  40516a:	4610      	mov	r0, r2
  40516c:	4619      	mov	r1, r3
  40516e:	e8bd 8ff8 	ldmia.w	sp!, {r3, r4, r5, r6, r7, r8, r9, sl, fp, pc}
  405172:	f2a7 4c13 	subw	ip, r7, #1043	; 0x413
  405176:	f04f 3bff 	mov.w	fp, #4294967295
  40517a:	fa2b fb0c 	lsr.w	fp, fp, ip
  40517e:	ea1b 0f00 	tst.w	fp, r0
  405182:	d0f2      	beq.n	40516a <floor+0x62>
  405184:	a324      	add	r3, pc, #144	; (adr r3, 405218 <floor+0x110>)
  405186:	e9d3 2300 	ldrd	r2, r3, [r3]
  40518a:	f000 f8dd 	bl	405348 <__adddf3>
  40518e:	2200      	movs	r2, #0
  405190:	2300      	movs	r3, #0
  405192:	f000 fd1b 	bl	405bcc <__aeabi_dcmpgt>
  405196:	2800      	cmp	r0, #0
  405198:	d0de      	beq.n	405158 <floor+0x50>
  40519a:	2d00      	cmp	r5, #0
  40519c:	db22      	blt.n	4051e4 <floor+0xdc>
  40519e:	ea28 080b 	bic.w	r8, r8, fp
  4051a2:	46d1      	mov	r9, sl
  4051a4:	4640      	mov	r0, r8
  4051a6:	4649      	mov	r1, r9
  4051a8:	e8bd 8ff8 	ldmia.w	sp!, {r3, r4, r5, r6, r7, r8, r9, sl, fp, pc}
  4051ac:	a31a      	add	r3, pc, #104	; (adr r3, 405218 <floor+0x110>)
  4051ae:	e9d3 2300 	ldrd	r2, r3, [r3]
  4051b2:	f000 f8c9 	bl	405348 <__adddf3>
  4051b6:	2200      	movs	r2, #0
  4051b8:	2300      	movs	r3, #0
  4051ba:	f000 fd07 	bl	405bcc <__aeabi_dcmpgt>
  4051be:	2800      	cmp	r0, #0
  4051c0:	d0ca      	beq.n	405158 <floor+0x50>
  4051c2:	2d00      	cmp	r5, #0
  4051c4:	db1c      	blt.n	405200 <floor+0xf8>
  4051c6:	f04f 0800 	mov.w	r8, #0
  4051ca:	46c1      	mov	r9, r8
  4051cc:	e7c4      	b.n	405158 <floor+0x50>
  4051ce:	f000 f8bb 	bl	405348 <__adddf3>
  4051d2:	e8bd 8ff8 	ldmia.w	sp!, {r3, r4, r5, r6, r7, r8, r9, sl, fp, pc}
  4051d6:	f44f 1a80 	mov.w	sl, #1048576	; 0x100000
  4051da:	fa4a f606 	asr.w	r6, sl, r6
  4051de:	eb06 0a05 	add.w	sl, r6, r5
  4051e2:	e7b5      	b.n	405150 <floor+0x48>
  4051e4:	2e14      	cmp	r6, #20
  4051e6:	d014      	beq.n	405212 <floor+0x10a>
  4051e8:	f5c7 6786 	rsb	r7, r7, #1072	; 0x430
  4051ec:	2301      	movs	r3, #1
  4051ee:	3703      	adds	r7, #3
  4051f0:	fa03 f707 	lsl.w	r7, r3, r7
  4051f4:	eb17 0804 	adds.w	r8, r7, r4
  4051f8:	bf28      	it	cs
  4051fa:	eb05 0a03 	addcs.w	sl, r5, r3
  4051fe:	e7ce      	b.n	40519e <floor+0x96>
  405200:	f025 4200 	bic.w	r2, r5, #2147483648	; 0x80000000
  405204:	4b07      	ldr	r3, [pc, #28]	; (405224 <floor+0x11c>)
  405206:	4322      	orrs	r2, r4
  405208:	bf18      	it	ne
  40520a:	4699      	movne	r9, r3
  40520c:	f04f 0800 	mov.w	r8, #0
  405210:	e7a2      	b.n	405158 <floor+0x50>
  405212:	f105 0a01 	add.w	sl, r5, #1
  405216:	e7c2      	b.n	40519e <floor+0x96>
  405218:	8800759c 	.word	0x8800759c
  40521c:	7e37e43c 	.word	0x7e37e43c
  405220:	000fffff 	.word	0x000fffff
  405224:	bff00000 	.word	0xbff00000

00405228 <scalbn>:
  405228:	f3c1 530a 	ubfx	r3, r1, #20, #11
  40522c:	e92d 41f0 	stmdb	sp!, {r4, r5, r6, r7, r8, lr}
  405230:	4690      	mov	r8, r2
  405232:	4606      	mov	r6, r0
  405234:	460f      	mov	r7, r1
  405236:	460a      	mov	r2, r1
  405238:	bb1b      	cbnz	r3, 405282 <scalbn+0x5a>
  40523a:	f021 4300 	bic.w	r3, r1, #2147483648	; 0x80000000
  40523e:	4303      	orrs	r3, r0
  405240:	d034      	beq.n	4052ac <scalbn+0x84>
  405242:	4b35      	ldr	r3, [pc, #212]	; (405318 <scalbn+0xf0>)
  405244:	2200      	movs	r2, #0
  405246:	f000 fa31 	bl	4056ac <__aeabi_dmul>
  40524a:	4b34      	ldr	r3, [pc, #208]	; (40531c <scalbn+0xf4>)
  40524c:	4606      	mov	r6, r0
  40524e:	4598      	cmp	r8, r3
  405250:	460f      	mov	r7, r1
  405252:	db3b      	blt.n	4052cc <scalbn+0xa4>
  405254:	f3c1 530a 	ubfx	r3, r1, #20, #11
  405258:	3b36      	subs	r3, #54	; 0x36
  40525a:	460a      	mov	r2, r1
  40525c:	4443      	add	r3, r8
  40525e:	f240 71fe 	movw	r1, #2046	; 0x7fe
  405262:	428b      	cmp	r3, r1
  405264:	dd16      	ble.n	405294 <scalbn+0x6c>
  405266:	a128      	add	r1, pc, #160	; (adr r1, 405308 <scalbn+0xe0>)
  405268:	e9d1 0100 	ldrd	r0, r1, [r1]
  40526c:	4632      	mov	r2, r6
  40526e:	463b      	mov	r3, r7
  405270:	f000 f85a 	bl	405328 <copysign>
  405274:	a324      	add	r3, pc, #144	; (adr r3, 405308 <scalbn+0xe0>)
  405276:	e9d3 2300 	ldrd	r2, r3, [r3]
  40527a:	f000 fa17 	bl	4056ac <__aeabi_dmul>
  40527e:	e8bd 81f0 	ldmia.w	sp!, {r4, r5, r6, r7, r8, pc}
  405282:	f240 74ff 	movw	r4, #2047	; 0x7ff
  405286:	42a3      	cmp	r3, r4
  405288:	d027      	beq.n	4052da <scalbn+0xb2>
  40528a:	4443      	add	r3, r8
  40528c:	f240 71fe 	movw	r1, #2046	; 0x7fe
  405290:	428b      	cmp	r3, r1
  405292:	dce8      	bgt.n	405266 <scalbn+0x3e>
  405294:	2b00      	cmp	r3, #0
  405296:	dd0b      	ble.n	4052b0 <scalbn+0x88>
  405298:	f022 42ff 	bic.w	r2, r2, #2139095040	; 0x7f800000
  40529c:	f422 02e0 	bic.w	r2, r2, #7340032	; 0x700000
  4052a0:	ea42 5703 	orr.w	r7, r2, r3, lsl #20
  4052a4:	4630      	mov	r0, r6
  4052a6:	4639      	mov	r1, r7
  4052a8:	e8bd 81f0 	ldmia.w	sp!, {r4, r5, r6, r7, r8, pc}
  4052ac:	e8bd 81f0 	ldmia.w	sp!, {r4, r5, r6, r7, r8, pc}
  4052b0:	f113 0f35 	cmn.w	r3, #53	; 0x35
  4052b4:	da17      	bge.n	4052e6 <scalbn+0xbe>
  4052b6:	f24c 3350 	movw	r3, #50000	; 0xc350
  4052ba:	4598      	cmp	r8, r3
  4052bc:	dcd3      	bgt.n	405266 <scalbn+0x3e>
  4052be:	a114      	add	r1, pc, #80	; (adr r1, 405310 <scalbn+0xe8>)
  4052c0:	e9d1 0100 	ldrd	r0, r1, [r1]
  4052c4:	4632      	mov	r2, r6
  4052c6:	463b      	mov	r3, r7
  4052c8:	f000 f82e 	bl	405328 <copysign>
  4052cc:	a310      	add	r3, pc, #64	; (adr r3, 405310 <scalbn+0xe8>)
  4052ce:	e9d3 2300 	ldrd	r2, r3, [r3]
  4052d2:	f000 f9eb 	bl	4056ac <__aeabi_dmul>
  4052d6:	e8bd 81f0 	ldmia.w	sp!, {r4, r5, r6, r7, r8, pc}
  4052da:	4602      	mov	r2, r0
  4052dc:	460b      	mov	r3, r1
  4052de:	f000 f833 	bl	405348 <__adddf3>
  4052e2:	e8bd 81f0 	ldmia.w	sp!, {r4, r5, r6, r7, r8, pc}
  4052e6:	f022 42ff 	bic.w	r2, r2, #2139095040	; 0x7f800000
  4052ea:	f422 02e0 	bic.w	r2, r2, #7340032	; 0x700000
  4052ee:	3336      	adds	r3, #54	; 0x36
  4052f0:	ea42 5703 	orr.w	r7, r2, r3, lsl #20
  4052f4:	4630      	mov	r0, r6
  4052f6:	4639      	mov	r1, r7
  4052f8:	2200      	movs	r2, #0
  4052fa:	4b09      	ldr	r3, [pc, #36]	; (405320 <scalbn+0xf8>)
  4052fc:	f000 f9d6 	bl	4056ac <__aeabi_dmul>
  405300:	e8bd 81f0 	ldmia.w	sp!, {r4, r5, r6, r7, r8, pc}
  405304:	f3af 8000 	nop.w
  405308:	8800759c 	.word	0x8800759c
  40530c:	7e37e43c 	.word	0x7e37e43c
  405310:	c2f8f359 	.word	0xc2f8f359
  405314:	01a56e1f 	.word	0x01a56e1f
  405318:	43500000 	.word	0x43500000
  40531c:	ffff3cb0 	.word	0xffff3cb0
  405320:	3c900000 	.word	0x3c900000
  405324:	f3af 8000 	nop.w

00405328 <copysign>:
  405328:	b430      	push	{r4, r5}
  40532a:	f003 4300 	and.w	r3, r3, #2147483648	; 0x80000000
  40532e:	f021 4200 	bic.w	r2, r1, #2147483648	; 0x80000000
  405332:	ea43 0102 	orr.w	r1, r3, r2
  405336:	bc30      	pop	{r4, r5}
  405338:	4770      	bx	lr
  40533a:	bf00      	nop

0040533c <__aeabi_drsub>:
  40533c:	f081 4100 	eor.w	r1, r1, #2147483648	; 0x80000000
  405340:	e002      	b.n	405348 <__adddf3>
  405342:	bf00      	nop

00405344 <__aeabi_dsub>:
  405344:	f083 4300 	eor.w	r3, r3, #2147483648	; 0x80000000

00405348 <__adddf3>:
  405348:	b530      	push	{r4, r5, lr}
  40534a:	ea4f 0441 	mov.w	r4, r1, lsl #1
  40534e:	ea4f 0543 	mov.w	r5, r3, lsl #1
  405352:	ea94 0f05 	teq	r4, r5
  405356:	bf08      	it	eq
  405358:	ea90 0f02 	teqeq	r0, r2
  40535c:	bf1f      	itttt	ne
  40535e:	ea54 0c00 	orrsne.w	ip, r4, r0
  405362:	ea55 0c02 	orrsne.w	ip, r5, r2
  405366:	ea7f 5c64 	mvnsne.w	ip, r4, asr #21
  40536a:	ea7f 5c65 	mvnsne.w	ip, r5, asr #21
  40536e:	f000 80e2 	beq.w	405536 <__adddf3+0x1ee>
  405372:	ea4f 5454 	mov.w	r4, r4, lsr #21
  405376:	ebd4 5555 	rsbs	r5, r4, r5, lsr #21
  40537a:	bfb8      	it	lt
  40537c:	426d      	neglt	r5, r5
  40537e:	dd0c      	ble.n	40539a <__adddf3+0x52>
  405380:	442c      	add	r4, r5
  405382:	ea80 0202 	eor.w	r2, r0, r2
  405386:	ea81 0303 	eor.w	r3, r1, r3
  40538a:	ea82 0000 	eor.w	r0, r2, r0
  40538e:	ea83 0101 	eor.w	r1, r3, r1
  405392:	ea80 0202 	eor.w	r2, r0, r2
  405396:	ea81 0303 	eor.w	r3, r1, r3
  40539a:	2d36      	cmp	r5, #54	; 0x36
  40539c:	bf88      	it	hi
  40539e:	bd30      	pophi	{r4, r5, pc}
  4053a0:	f011 4f00 	tst.w	r1, #2147483648	; 0x80000000
  4053a4:	ea4f 3101 	mov.w	r1, r1, lsl #12
  4053a8:	f44f 1c80 	mov.w	ip, #1048576	; 0x100000
  4053ac:	ea4c 3111 	orr.w	r1, ip, r1, lsr #12
  4053b0:	d002      	beq.n	4053b8 <__adddf3+0x70>
  4053b2:	4240      	negs	r0, r0
  4053b4:	eb61 0141 	sbc.w	r1, r1, r1, lsl #1
  4053b8:	f013 4f00 	tst.w	r3, #2147483648	; 0x80000000
  4053bc:	ea4f 3303 	mov.w	r3, r3, lsl #12
  4053c0:	ea4c 3313 	orr.w	r3, ip, r3, lsr #12
  4053c4:	d002      	beq.n	4053cc <__adddf3+0x84>
  4053c6:	4252      	negs	r2, r2
  4053c8:	eb63 0343 	sbc.w	r3, r3, r3, lsl #1
  4053cc:	ea94 0f05 	teq	r4, r5
  4053d0:	f000 80a7 	beq.w	405522 <__adddf3+0x1da>
  4053d4:	f1a4 0401 	sub.w	r4, r4, #1
  4053d8:	f1d5 0e20 	rsbs	lr, r5, #32
  4053dc:	db0d      	blt.n	4053fa <__adddf3+0xb2>
  4053de:	fa02 fc0e 	lsl.w	ip, r2, lr
  4053e2:	fa22 f205 	lsr.w	r2, r2, r5
  4053e6:	1880      	adds	r0, r0, r2
  4053e8:	f141 0100 	adc.w	r1, r1, #0
  4053ec:	fa03 f20e 	lsl.w	r2, r3, lr
  4053f0:	1880      	adds	r0, r0, r2
  4053f2:	fa43 f305 	asr.w	r3, r3, r5
  4053f6:	4159      	adcs	r1, r3
  4053f8:	e00e      	b.n	405418 <__adddf3+0xd0>
  4053fa:	f1a5 0520 	sub.w	r5, r5, #32
  4053fe:	f10e 0e20 	add.w	lr, lr, #32
  405402:	2a01      	cmp	r2, #1
  405404:	fa03 fc0e 	lsl.w	ip, r3, lr
  405408:	bf28      	it	cs
  40540a:	f04c 0c02 	orrcs.w	ip, ip, #2
  40540e:	fa43 f305 	asr.w	r3, r3, r5
  405412:	18c0      	adds	r0, r0, r3
  405414:	eb51 71e3 	adcs.w	r1, r1, r3, asr #31
  405418:	f001 4500 	and.w	r5, r1, #2147483648	; 0x80000000
  40541c:	d507      	bpl.n	40542e <__adddf3+0xe6>
  40541e:	f04f 0e00 	mov.w	lr, #0
  405422:	f1dc 0c00 	rsbs	ip, ip, #0
  405426:	eb7e 0000 	sbcs.w	r0, lr, r0
  40542a:	eb6e 0101 	sbc.w	r1, lr, r1
  40542e:	f5b1 1f80 	cmp.w	r1, #1048576	; 0x100000
  405432:	d31b      	bcc.n	40546c <__adddf3+0x124>
  405434:	f5b1 1f00 	cmp.w	r1, #2097152	; 0x200000
  405438:	d30c      	bcc.n	405454 <__adddf3+0x10c>
  40543a:	0849      	lsrs	r1, r1, #1
  40543c:	ea5f 0030 	movs.w	r0, r0, rrx
  405440:	ea4f 0c3c 	mov.w	ip, ip, rrx
  405444:	f104 0401 	add.w	r4, r4, #1
  405448:	ea4f 5244 	mov.w	r2, r4, lsl #21
  40544c:	f512 0f80 	cmn.w	r2, #4194304	; 0x400000
  405450:	f080 809a 	bcs.w	405588 <__adddf3+0x240>
  405454:	f1bc 4f00 	cmp.w	ip, #2147483648	; 0x80000000
  405458:	bf08      	it	eq
  40545a:	ea5f 0c50 	movseq.w	ip, r0, lsr #1
  40545e:	f150 0000 	adcs.w	r0, r0, #0
  405462:	eb41 5104 	adc.w	r1, r1, r4, lsl #20
  405466:	ea41 0105 	orr.w	r1, r1, r5
  40546a:	bd30      	pop	{r4, r5, pc}
  40546c:	ea5f 0c4c 	movs.w	ip, ip, lsl #1
  405470:	4140      	adcs	r0, r0
  405472:	eb41 0101 	adc.w	r1, r1, r1
  405476:	f411 1f80 	tst.w	r1, #1048576	; 0x100000
  40547a:	f1a4 0401 	sub.w	r4, r4, #1
  40547e:	d1e9      	bne.n	405454 <__adddf3+0x10c>
  405480:	f091 0f00 	teq	r1, #0
  405484:	bf04      	itt	eq
  405486:	4601      	moveq	r1, r0
  405488:	2000      	moveq	r0, #0
  40548a:	fab1 f381 	clz	r3, r1
  40548e:	bf08      	it	eq
  405490:	3320      	addeq	r3, #32
  405492:	f1a3 030b 	sub.w	r3, r3, #11
  405496:	f1b3 0220 	subs.w	r2, r3, #32
  40549a:	da0c      	bge.n	4054b6 <__adddf3+0x16e>
  40549c:	320c      	adds	r2, #12
  40549e:	dd08      	ble.n	4054b2 <__adddf3+0x16a>
  4054a0:	f102 0c14 	add.w	ip, r2, #20
  4054a4:	f1c2 020c 	rsb	r2, r2, #12
  4054a8:	fa01 f00c 	lsl.w	r0, r1, ip
  4054ac:	fa21 f102 	lsr.w	r1, r1, r2
  4054b0:	e00c      	b.n	4054cc <__adddf3+0x184>
  4054b2:	f102 0214 	add.w	r2, r2, #20
  4054b6:	bfd8      	it	le
  4054b8:	f1c2 0c20 	rsble	ip, r2, #32
  4054bc:	fa01 f102 	lsl.w	r1, r1, r2
  4054c0:	fa20 fc0c 	lsr.w	ip, r0, ip
  4054c4:	bfdc      	itt	le
  4054c6:	ea41 010c 	orrle.w	r1, r1, ip
  4054ca:	4090      	lslle	r0, r2
  4054cc:	1ae4      	subs	r4, r4, r3
  4054ce:	bfa2      	ittt	ge
  4054d0:	eb01 5104 	addge.w	r1, r1, r4, lsl #20
  4054d4:	4329      	orrge	r1, r5
  4054d6:	bd30      	popge	{r4, r5, pc}
  4054d8:	ea6f 0404 	mvn.w	r4, r4
  4054dc:	3c1f      	subs	r4, #31
  4054de:	da1c      	bge.n	40551a <__adddf3+0x1d2>
  4054e0:	340c      	adds	r4, #12
  4054e2:	dc0e      	bgt.n	405502 <__adddf3+0x1ba>
  4054e4:	f104 0414 	add.w	r4, r4, #20
  4054e8:	f1c4 0220 	rsb	r2, r4, #32
  4054ec:	fa20 f004 	lsr.w	r0, r0, r4
  4054f0:	fa01 f302 	lsl.w	r3, r1, r2
  4054f4:	ea40 0003 	orr.w	r0, r0, r3
  4054f8:	fa21 f304 	lsr.w	r3, r1, r4
  4054fc:	ea45 0103 	orr.w	r1, r5, r3
  405500:	bd30      	pop	{r4, r5, pc}
  405502:	f1c4 040c 	rsb	r4, r4, #12
  405506:	f1c4 0220 	rsb	r2, r4, #32
  40550a:	fa20 f002 	lsr.w	r0, r0, r2
  40550e:	fa01 f304 	lsl.w	r3, r1, r4
  405512:	ea40 0003 	orr.w	r0, r0, r3
  405516:	4629      	mov	r1, r5
  405518:	bd30      	pop	{r4, r5, pc}
  40551a:	fa21 f004 	lsr.w	r0, r1, r4
  40551e:	4629      	mov	r1, r5
  405520:	bd30      	pop	{r4, r5, pc}
  405522:	f094 0f00 	teq	r4, #0
  405526:	f483 1380 	eor.w	r3, r3, #1048576	; 0x100000
  40552a:	bf06      	itte	eq
  40552c:	f481 1180 	eoreq.w	r1, r1, #1048576	; 0x100000
  405530:	3401      	addeq	r4, #1
  405532:	3d01      	subne	r5, #1
  405534:	e74e      	b.n	4053d4 <__adddf3+0x8c>
  405536:	ea7f 5c64 	mvns.w	ip, r4, asr #21
  40553a:	bf18      	it	ne
  40553c:	ea7f 5c65 	mvnsne.w	ip, r5, asr #21
  405540:	d029      	beq.n	405596 <__adddf3+0x24e>
  405542:	ea94 0f05 	teq	r4, r5
  405546:	bf08      	it	eq
  405548:	ea90 0f02 	teqeq	r0, r2
  40554c:	d005      	beq.n	40555a <__adddf3+0x212>
  40554e:	ea54 0c00 	orrs.w	ip, r4, r0
  405552:	bf04      	itt	eq
  405554:	4619      	moveq	r1, r3
  405556:	4610      	moveq	r0, r2
  405558:	bd30      	pop	{r4, r5, pc}
  40555a:	ea91 0f03 	teq	r1, r3
  40555e:	bf1e      	ittt	ne
  405560:	2100      	movne	r1, #0
  405562:	2000      	movne	r0, #0
  405564:	bd30      	popne	{r4, r5, pc}
  405566:	ea5f 5c54 	movs.w	ip, r4, lsr #21
  40556a:	d105      	bne.n	405578 <__adddf3+0x230>
  40556c:	0040      	lsls	r0, r0, #1
  40556e:	4149      	adcs	r1, r1
  405570:	bf28      	it	cs
  405572:	f041 4100 	orrcs.w	r1, r1, #2147483648	; 0x80000000
  405576:	bd30      	pop	{r4, r5, pc}
  405578:	f514 0480 	adds.w	r4, r4, #4194304	; 0x400000
  40557c:	bf3c      	itt	cc
  40557e:	f501 1180 	addcc.w	r1, r1, #1048576	; 0x100000
  405582:	bd30      	popcc	{r4, r5, pc}
  405584:	f001 4500 	and.w	r5, r1, #2147483648	; 0x80000000
  405588:	f045 41fe 	orr.w	r1, r5, #2130706432	; 0x7f000000
  40558c:	f441 0170 	orr.w	r1, r1, #15728640	; 0xf00000
  405590:	f04f 0000 	mov.w	r0, #0
  405594:	bd30      	pop	{r4, r5, pc}
  405596:	ea7f 5c64 	mvns.w	ip, r4, asr #21
  40559a:	bf1a      	itte	ne
  40559c:	4619      	movne	r1, r3
  40559e:	4610      	movne	r0, r2
  4055a0:	ea7f 5c65 	mvnseq.w	ip, r5, asr #21
  4055a4:	bf1c      	itt	ne
  4055a6:	460b      	movne	r3, r1
  4055a8:	4602      	movne	r2, r0
  4055aa:	ea50 3401 	orrs.w	r4, r0, r1, lsl #12
  4055ae:	bf06      	itte	eq
  4055b0:	ea52 3503 	orrseq.w	r5, r2, r3, lsl #12
  4055b4:	ea91 0f03 	teqeq	r1, r3
  4055b8:	f441 2100 	orrne.w	r1, r1, #524288	; 0x80000
  4055bc:	bd30      	pop	{r4, r5, pc}
  4055be:	bf00      	nop

004055c0 <__aeabi_ui2d>:
  4055c0:	f090 0f00 	teq	r0, #0
  4055c4:	bf04      	itt	eq
  4055c6:	2100      	moveq	r1, #0
  4055c8:	4770      	bxeq	lr
  4055ca:	b530      	push	{r4, r5, lr}
  4055cc:	f44f 6480 	mov.w	r4, #1024	; 0x400
  4055d0:	f104 0432 	add.w	r4, r4, #50	; 0x32
  4055d4:	f04f 0500 	mov.w	r5, #0
  4055d8:	f04f 0100 	mov.w	r1, #0
  4055dc:	e750      	b.n	405480 <__adddf3+0x138>
  4055de:	bf00      	nop

004055e0 <__aeabi_i2d>:
  4055e0:	f090 0f00 	teq	r0, #0
  4055e4:	bf04      	itt	eq
  4055e6:	2100      	moveq	r1, #0
  4055e8:	4770      	bxeq	lr
  4055ea:	b530      	push	{r4, r5, lr}
  4055ec:	f44f 6480 	mov.w	r4, #1024	; 0x400
  4055f0:	f104 0432 	add.w	r4, r4, #50	; 0x32
  4055f4:	f010 4500 	ands.w	r5, r0, #2147483648	; 0x80000000
  4055f8:	bf48      	it	mi
  4055fa:	4240      	negmi	r0, r0
  4055fc:	f04f 0100 	mov.w	r1, #0
  405600:	e73e      	b.n	405480 <__adddf3+0x138>
  405602:	bf00      	nop

00405604 <__aeabi_f2d>:
  405604:	0042      	lsls	r2, r0, #1
  405606:	ea4f 01e2 	mov.w	r1, r2, asr #3
  40560a:	ea4f 0131 	mov.w	r1, r1, rrx
  40560e:	ea4f 7002 	mov.w	r0, r2, lsl #28
  405612:	bf1f      	itttt	ne
  405614:	f012 437f 	andsne.w	r3, r2, #4278190080	; 0xff000000
  405618:	f093 4f7f 	teqne	r3, #4278190080	; 0xff000000
  40561c:	f081 5160 	eorne.w	r1, r1, #939524096	; 0x38000000
  405620:	4770      	bxne	lr
  405622:	f092 0f00 	teq	r2, #0
  405626:	bf14      	ite	ne
  405628:	f093 4f7f 	teqne	r3, #4278190080	; 0xff000000
  40562c:	4770      	bxeq	lr
  40562e:	b530      	push	{r4, r5, lr}
  405630:	f44f 7460 	mov.w	r4, #896	; 0x380
  405634:	f001 4500 	and.w	r5, r1, #2147483648	; 0x80000000
  405638:	f021 4100 	bic.w	r1, r1, #2147483648	; 0x80000000
  40563c:	e720      	b.n	405480 <__adddf3+0x138>
  40563e:	bf00      	nop

00405640 <__aeabi_ul2d>:
  405640:	ea50 0201 	orrs.w	r2, r0, r1
  405644:	bf08      	it	eq
  405646:	4770      	bxeq	lr
  405648:	b530      	push	{r4, r5, lr}
  40564a:	f04f 0500 	mov.w	r5, #0
  40564e:	e00a      	b.n	405666 <__aeabi_l2d+0x16>

00405650 <__aeabi_l2d>:
  405650:	ea50 0201 	orrs.w	r2, r0, r1
  405654:	bf08      	it	eq
  405656:	4770      	bxeq	lr
  405658:	b530      	push	{r4, r5, lr}
  40565a:	f011 4500 	ands.w	r5, r1, #2147483648	; 0x80000000
  40565e:	d502      	bpl.n	405666 <__aeabi_l2d+0x16>
  405660:	4240      	negs	r0, r0
  405662:	eb61 0141 	sbc.w	r1, r1, r1, lsl #1
  405666:	f44f 6480 	mov.w	r4, #1024	; 0x400
  40566a:	f104 0432 	add.w	r4, r4, #50	; 0x32
  40566e:	ea5f 5c91 	movs.w	ip, r1, lsr #22
  405672:	f43f aedc 	beq.w	40542e <__adddf3+0xe6>
  405676:	f04f 0203 	mov.w	r2, #3
  40567a:	ea5f 0cdc 	movs.w	ip, ip, lsr #3
  40567e:	bf18      	it	ne
  405680:	3203      	addne	r2, #3
  405682:	ea5f 0cdc 	movs.w	ip, ip, lsr #3
  405686:	bf18      	it	ne
  405688:	3203      	addne	r2, #3
  40568a:	eb02 02dc 	add.w	r2, r2, ip, lsr #3
  40568e:	f1c2 0320 	rsb	r3, r2, #32
  405692:	fa00 fc03 	lsl.w	ip, r0, r3
  405696:	fa20 f002 	lsr.w	r0, r0, r2
  40569a:	fa01 fe03 	lsl.w	lr, r1, r3
  40569e:	ea40 000e 	orr.w	r0, r0, lr
  4056a2:	fa21 f102 	lsr.w	r1, r1, r2
  4056a6:	4414      	add	r4, r2
  4056a8:	e6c1      	b.n	40542e <__adddf3+0xe6>
  4056aa:	bf00      	nop

004056ac <__aeabi_dmul>:
  4056ac:	b570      	push	{r4, r5, r6, lr}
  4056ae:	f04f 0cff 	mov.w	ip, #255	; 0xff
  4056b2:	f44c 6ce0 	orr.w	ip, ip, #1792	; 0x700
  4056b6:	ea1c 5411 	ands.w	r4, ip, r1, lsr #20
  4056ba:	bf1d      	ittte	ne
  4056bc:	ea1c 5513 	andsne.w	r5, ip, r3, lsr #20
  4056c0:	ea94 0f0c 	teqne	r4, ip
  4056c4:	ea95 0f0c 	teqne	r5, ip
  4056c8:	f000 f8de 	bleq	405888 <__aeabi_dmul+0x1dc>
  4056cc:	442c      	add	r4, r5
  4056ce:	ea81 0603 	eor.w	r6, r1, r3
  4056d2:	ea21 514c 	bic.w	r1, r1, ip, lsl #21
  4056d6:	ea23 534c 	bic.w	r3, r3, ip, lsl #21
  4056da:	ea50 3501 	orrs.w	r5, r0, r1, lsl #12
  4056de:	bf18      	it	ne
  4056e0:	ea52 3503 	orrsne.w	r5, r2, r3, lsl #12
  4056e4:	f441 1180 	orr.w	r1, r1, #1048576	; 0x100000
  4056e8:	f443 1380 	orr.w	r3, r3, #1048576	; 0x100000
  4056ec:	d038      	beq.n	405760 <__aeabi_dmul+0xb4>
  4056ee:	fba0 ce02 	umull	ip, lr, r0, r2
  4056f2:	f04f 0500 	mov.w	r5, #0
  4056f6:	fbe1 e502 	umlal	lr, r5, r1, r2
  4056fa:	f006 4200 	and.w	r2, r6, #2147483648	; 0x80000000
  4056fe:	fbe0 e503 	umlal	lr, r5, r0, r3
  405702:	f04f 0600 	mov.w	r6, #0
  405706:	fbe1 5603 	umlal	r5, r6, r1, r3
  40570a:	f09c 0f00 	teq	ip, #0
  40570e:	bf18      	it	ne
  405710:	f04e 0e01 	orrne.w	lr, lr, #1
  405714:	f1a4 04ff 	sub.w	r4, r4, #255	; 0xff
  405718:	f5b6 7f00 	cmp.w	r6, #512	; 0x200
  40571c:	f564 7440 	sbc.w	r4, r4, #768	; 0x300
  405720:	d204      	bcs.n	40572c <__aeabi_dmul+0x80>
  405722:	ea5f 0e4e 	movs.w	lr, lr, lsl #1
  405726:	416d      	adcs	r5, r5
  405728:	eb46 0606 	adc.w	r6, r6, r6
  40572c:	ea42 21c6 	orr.w	r1, r2, r6, lsl #11
  405730:	ea41 5155 	orr.w	r1, r1, r5, lsr #21
  405734:	ea4f 20c5 	mov.w	r0, r5, lsl #11
  405738:	ea40 505e 	orr.w	r0, r0, lr, lsr #21
  40573c:	ea4f 2ece 	mov.w	lr, lr, lsl #11
  405740:	f1b4 0cfd 	subs.w	ip, r4, #253	; 0xfd
  405744:	bf88      	it	hi
  405746:	f5bc 6fe0 	cmphi.w	ip, #1792	; 0x700
  40574a:	d81e      	bhi.n	40578a <__aeabi_dmul+0xde>
  40574c:	f1be 4f00 	cmp.w	lr, #2147483648	; 0x80000000
  405750:	bf08      	it	eq
  405752:	ea5f 0e50 	movseq.w	lr, r0, lsr #1
  405756:	f150 0000 	adcs.w	r0, r0, #0
  40575a:	eb41 5104 	adc.w	r1, r1, r4, lsl #20
  40575e:	bd70      	pop	{r4, r5, r6, pc}
  405760:	f006 4600 	and.w	r6, r6, #2147483648	; 0x80000000
  405764:	ea46 0101 	orr.w	r1, r6, r1
  405768:	ea40 0002 	orr.w	r0, r0, r2
  40576c:	ea81 0103 	eor.w	r1, r1, r3
  405770:	ebb4 045c 	subs.w	r4, r4, ip, lsr #1
  405774:	bfc2      	ittt	gt
  405776:	ebd4 050c 	rsbsgt	r5, r4, ip
  40577a:	ea41 5104 	orrgt.w	r1, r1, r4, lsl #20
  40577e:	bd70      	popgt	{r4, r5, r6, pc}
  405780:	f441 1180 	orr.w	r1, r1, #1048576	; 0x100000
  405784:	f04f 0e00 	mov.w	lr, #0
  405788:	3c01      	subs	r4, #1
  40578a:	f300 80ab 	bgt.w	4058e4 <__aeabi_dmul+0x238>
  40578e:	f114 0f36 	cmn.w	r4, #54	; 0x36
  405792:	bfde      	ittt	le
  405794:	2000      	movle	r0, #0
  405796:	f001 4100 	andle.w	r1, r1, #2147483648	; 0x80000000
  40579a:	bd70      	pople	{r4, r5, r6, pc}
  40579c:	f1c4 0400 	rsb	r4, r4, #0
  4057a0:	3c20      	subs	r4, #32
  4057a2:	da35      	bge.n	405810 <__aeabi_dmul+0x164>
  4057a4:	340c      	adds	r4, #12
  4057a6:	dc1b      	bgt.n	4057e0 <__aeabi_dmul+0x134>
  4057a8:	f104 0414 	add.w	r4, r4, #20
  4057ac:	f1c4 0520 	rsb	r5, r4, #32
  4057b0:	fa00 f305 	lsl.w	r3, r0, r5
  4057b4:	fa20 f004 	lsr.w	r0, r0, r4
  4057b8:	fa01 f205 	lsl.w	r2, r1, r5
  4057bc:	ea40 0002 	orr.w	r0, r0, r2
  4057c0:	f001 4200 	and.w	r2, r1, #2147483648	; 0x80000000
  4057c4:	f021 4100 	bic.w	r1, r1, #2147483648	; 0x80000000
  4057c8:	eb10 70d3 	adds.w	r0, r0, r3, lsr #31
  4057cc:	fa21 f604 	lsr.w	r6, r1, r4
  4057d0:	eb42 0106 	adc.w	r1, r2, r6
  4057d4:	ea5e 0e43 	orrs.w	lr, lr, r3, lsl #1
  4057d8:	bf08      	it	eq
  4057da:	ea20 70d3 	biceq.w	r0, r0, r3, lsr #31
  4057de:	bd70      	pop	{r4, r5, r6, pc}
  4057e0:	f1c4 040c 	rsb	r4, r4, #12
  4057e4:	f1c4 0520 	rsb	r5, r4, #32
  4057e8:	fa00 f304 	lsl.w	r3, r0, r4
  4057ec:	fa20 f005 	lsr.w	r0, r0, r5
  4057f0:	fa01 f204 	lsl.w	r2, r1, r4
  4057f4:	ea40 0002 	orr.w	r0, r0, r2
  4057f8:	f001 4100 	and.w	r1, r1, #2147483648	; 0x80000000
  4057fc:	eb10 70d3 	adds.w	r0, r0, r3, lsr #31
  405800:	f141 0100 	adc.w	r1, r1, #0
  405804:	ea5e 0e43 	orrs.w	lr, lr, r3, lsl #1
  405808:	bf08      	it	eq
  40580a:	ea20 70d3 	biceq.w	r0, r0, r3, lsr #31
  40580e:	bd70      	pop	{r4, r5, r6, pc}
  405810:	f1c4 0520 	rsb	r5, r4, #32
  405814:	fa00 f205 	lsl.w	r2, r0, r5
  405818:	ea4e 0e02 	orr.w	lr, lr, r2
  40581c:	fa20 f304 	lsr.w	r3, r0, r4
  405820:	fa01 f205 	lsl.w	r2, r1, r5
  405824:	ea43 0302 	orr.w	r3, r3, r2
  405828:	fa21 f004 	lsr.w	r0, r1, r4
  40582c:	f001 4100 	and.w	r1, r1, #2147483648	; 0x80000000
  405830:	fa21 f204 	lsr.w	r2, r1, r4
  405834:	ea20 0002 	bic.w	r0, r0, r2
  405838:	eb00 70d3 	add.w	r0, r0, r3, lsr #31
  40583c:	ea5e 0e43 	orrs.w	lr, lr, r3, lsl #1
  405840:	bf08      	it	eq
  405842:	ea20 70d3 	biceq.w	r0, r0, r3, lsr #31
  405846:	bd70      	pop	{r4, r5, r6, pc}
  405848:	f094 0f00 	teq	r4, #0
  40584c:	d10f      	bne.n	40586e <__aeabi_dmul+0x1c2>
  40584e:	f001 4600 	and.w	r6, r1, #2147483648	; 0x80000000
  405852:	0040      	lsls	r0, r0, #1
  405854:	eb41 0101 	adc.w	r1, r1, r1
  405858:	f411 1f80 	tst.w	r1, #1048576	; 0x100000
  40585c:	bf08      	it	eq
  40585e:	3c01      	subeq	r4, #1
  405860:	d0f7      	beq.n	405852 <__aeabi_dmul+0x1a6>
  405862:	ea41 0106 	orr.w	r1, r1, r6
  405866:	f095 0f00 	teq	r5, #0
  40586a:	bf18      	it	ne
  40586c:	4770      	bxne	lr
  40586e:	f003 4600 	and.w	r6, r3, #2147483648	; 0x80000000
  405872:	0052      	lsls	r2, r2, #1
  405874:	eb43 0303 	adc.w	r3, r3, r3
  405878:	f413 1f80 	tst.w	r3, #1048576	; 0x100000
  40587c:	bf08      	it	eq
  40587e:	3d01      	subeq	r5, #1
  405880:	d0f7      	beq.n	405872 <__aeabi_dmul+0x1c6>
  405882:	ea43 0306 	orr.w	r3, r3, r6
  405886:	4770      	bx	lr
  405888:	ea94 0f0c 	teq	r4, ip
  40588c:	ea0c 5513 	and.w	r5, ip, r3, lsr #20
  405890:	bf18      	it	ne
  405892:	ea95 0f0c 	teqne	r5, ip
  405896:	d00c      	beq.n	4058b2 <__aeabi_dmul+0x206>
  405898:	ea50 0641 	orrs.w	r6, r0, r1, lsl #1
  40589c:	bf18      	it	ne
  40589e:	ea52 0643 	orrsne.w	r6, r2, r3, lsl #1
  4058a2:	d1d1      	bne.n	405848 <__aeabi_dmul+0x19c>
  4058a4:	ea81 0103 	eor.w	r1, r1, r3
  4058a8:	f001 4100 	and.w	r1, r1, #2147483648	; 0x80000000
  4058ac:	f04f 0000 	mov.w	r0, #0
  4058b0:	bd70      	pop	{r4, r5, r6, pc}
  4058b2:	ea50 0641 	orrs.w	r6, r0, r1, lsl #1
  4058b6:	bf06      	itte	eq
  4058b8:	4610      	moveq	r0, r2
  4058ba:	4619      	moveq	r1, r3
  4058bc:	ea52 0643 	orrsne.w	r6, r2, r3, lsl #1
  4058c0:	d019      	beq.n	4058f6 <__aeabi_dmul+0x24a>
  4058c2:	ea94 0f0c 	teq	r4, ip
  4058c6:	d102      	bne.n	4058ce <__aeabi_dmul+0x222>
  4058c8:	ea50 3601 	orrs.w	r6, r0, r1, lsl #12
  4058cc:	d113      	bne.n	4058f6 <__aeabi_dmul+0x24a>
  4058ce:	ea95 0f0c 	teq	r5, ip
  4058d2:	d105      	bne.n	4058e0 <__aeabi_dmul+0x234>
  4058d4:	ea52 3603 	orrs.w	r6, r2, r3, lsl #12
  4058d8:	bf1c      	itt	ne
  4058da:	4610      	movne	r0, r2
  4058dc:	4619      	movne	r1, r3
  4058de:	d10a      	bne.n	4058f6 <__aeabi_dmul+0x24a>
  4058e0:	ea81 0103 	eor.w	r1, r1, r3
  4058e4:	f001 4100 	and.w	r1, r1, #2147483648	; 0x80000000
  4058e8:	f041 41fe 	orr.w	r1, r1, #2130706432	; 0x7f000000
  4058ec:	f441 0170 	orr.w	r1, r1, #15728640	; 0xf00000
  4058f0:	f04f 0000 	mov.w	r0, #0
  4058f4:	bd70      	pop	{r4, r5, r6, pc}
  4058f6:	f041 41fe 	orr.w	r1, r1, #2130706432	; 0x7f000000
  4058fa:	f441 0178 	orr.w	r1, r1, #16252928	; 0xf80000
  4058fe:	bd70      	pop	{r4, r5, r6, pc}

00405900 <__aeabi_ddiv>:
  405900:	b570      	push	{r4, r5, r6, lr}
  405902:	f04f 0cff 	mov.w	ip, #255	; 0xff
  405906:	f44c 6ce0 	orr.w	ip, ip, #1792	; 0x700
  40590a:	ea1c 5411 	ands.w	r4, ip, r1, lsr #20
  40590e:	bf1d      	ittte	ne
  405910:	ea1c 5513 	andsne.w	r5, ip, r3, lsr #20
  405914:	ea94 0f0c 	teqne	r4, ip
  405918:	ea95 0f0c 	teqne	r5, ip
  40591c:	f000 f8a7 	bleq	405a6e <__aeabi_ddiv+0x16e>
  405920:	eba4 0405 	sub.w	r4, r4, r5
  405924:	ea81 0e03 	eor.w	lr, r1, r3
  405928:	ea52 3503 	orrs.w	r5, r2, r3, lsl #12
  40592c:	ea4f 3101 	mov.w	r1, r1, lsl #12
  405930:	f000 8088 	beq.w	405a44 <__aeabi_ddiv+0x144>
  405934:	ea4f 3303 	mov.w	r3, r3, lsl #12
  405938:	f04f 5580 	mov.w	r5, #268435456	; 0x10000000
  40593c:	ea45 1313 	orr.w	r3, r5, r3, lsr #4
  405940:	ea43 6312 	orr.w	r3, r3, r2, lsr #24
  405944:	ea4f 2202 	mov.w	r2, r2, lsl #8
  405948:	ea45 1511 	orr.w	r5, r5, r1, lsr #4
  40594c:	ea45 6510 	orr.w	r5, r5, r0, lsr #24
  405950:	ea4f 2600 	mov.w	r6, r0, lsl #8
  405954:	f00e 4100 	and.w	r1, lr, #2147483648	; 0x80000000
  405958:	429d      	cmp	r5, r3
  40595a:	bf08      	it	eq
  40595c:	4296      	cmpeq	r6, r2
  40595e:	f144 04fd 	adc.w	r4, r4, #253	; 0xfd
  405962:	f504 7440 	add.w	r4, r4, #768	; 0x300
  405966:	d202      	bcs.n	40596e <__aeabi_ddiv+0x6e>
  405968:	085b      	lsrs	r3, r3, #1
  40596a:	ea4f 0232 	mov.w	r2, r2, rrx
  40596e:	1ab6      	subs	r6, r6, r2
  405970:	eb65 0503 	sbc.w	r5, r5, r3
  405974:	085b      	lsrs	r3, r3, #1
  405976:	ea4f 0232 	mov.w	r2, r2, rrx
  40597a:	f44f 1080 	mov.w	r0, #1048576	; 0x100000
  40597e:	f44f 2c00 	mov.w	ip, #524288	; 0x80000
  405982:	ebb6 0e02 	subs.w	lr, r6, r2
  405986:	eb75 0e03 	sbcs.w	lr, r5, r3
  40598a:	bf22      	ittt	cs
  40598c:	1ab6      	subcs	r6, r6, r2
  40598e:	4675      	movcs	r5, lr
  405990:	ea40 000c 	orrcs.w	r0, r0, ip
  405994:	085b      	lsrs	r3, r3, #1
  405996:	ea4f 0232 	mov.w	r2, r2, rrx
  40599a:	ebb6 0e02 	subs.w	lr, r6, r2
  40599e:	eb75 0e03 	sbcs.w	lr, r5, r3
  4059a2:	bf22      	ittt	cs
  4059a4:	1ab6      	subcs	r6, r6, r2
  4059a6:	4675      	movcs	r5, lr
  4059a8:	ea40 005c 	orrcs.w	r0, r0, ip, lsr #1
  4059ac:	085b      	lsrs	r3, r3, #1
  4059ae:	ea4f 0232 	mov.w	r2, r2, rrx
  4059b2:	ebb6 0e02 	subs.w	lr, r6, r2
  4059b6:	eb75 0e03 	sbcs.w	lr, r5, r3
  4059ba:	bf22      	ittt	cs
  4059bc:	1ab6      	subcs	r6, r6, r2
  4059be:	4675      	movcs	r5, lr
  4059c0:	ea40 009c 	orrcs.w	r0, r0, ip, lsr #2
  4059c4:	085b      	lsrs	r3, r3, #1
  4059c6:	ea4f 0232 	mov.w	r2, r2, rrx
  4059ca:	ebb6 0e02 	subs.w	lr, r6, r2
  4059ce:	eb75 0e03 	sbcs.w	lr, r5, r3
  4059d2:	bf22      	ittt	cs
  4059d4:	1ab6      	subcs	r6, r6, r2
  4059d6:	4675      	movcs	r5, lr
  4059d8:	ea40 00dc 	orrcs.w	r0, r0, ip, lsr #3
  4059dc:	ea55 0e06 	orrs.w	lr, r5, r6
  4059e0:	d018      	beq.n	405a14 <__aeabi_ddiv+0x114>
  4059e2:	ea4f 1505 	mov.w	r5, r5, lsl #4
  4059e6:	ea45 7516 	orr.w	r5, r5, r6, lsr #28
  4059ea:	ea4f 1606 	mov.w	r6, r6, lsl #4
  4059ee:	ea4f 03c3 	mov.w	r3, r3, lsl #3
  4059f2:	ea43 7352 	orr.w	r3, r3, r2, lsr #29
  4059f6:	ea4f 02c2 	mov.w	r2, r2, lsl #3
  4059fa:	ea5f 1c1c 	movs.w	ip, ip, lsr #4
  4059fe:	d1c0      	bne.n	405982 <__aeabi_ddiv+0x82>
  405a00:	f411 1f80 	tst.w	r1, #1048576	; 0x100000
  405a04:	d10b      	bne.n	405a1e <__aeabi_ddiv+0x11e>
  405a06:	ea41 0100 	orr.w	r1, r1, r0
  405a0a:	f04f 0000 	mov.w	r0, #0
  405a0e:	f04f 4c00 	mov.w	ip, #2147483648	; 0x80000000
  405a12:	e7b6      	b.n	405982 <__aeabi_ddiv+0x82>
  405a14:	f411 1f80 	tst.w	r1, #1048576	; 0x100000
  405a18:	bf04      	itt	eq
  405a1a:	4301      	orreq	r1, r0
  405a1c:	2000      	moveq	r0, #0
  405a1e:	f1b4 0cfd 	subs.w	ip, r4, #253	; 0xfd
  405a22:	bf88      	it	hi
  405a24:	f5bc 6fe0 	cmphi.w	ip, #1792	; 0x700
  405a28:	f63f aeaf 	bhi.w	40578a <__aeabi_dmul+0xde>
  405a2c:	ebb5 0c03 	subs.w	ip, r5, r3
  405a30:	bf04      	itt	eq
  405a32:	ebb6 0c02 	subseq.w	ip, r6, r2
  405a36:	ea5f 0c50 	movseq.w	ip, r0, lsr #1
  405a3a:	f150 0000 	adcs.w	r0, r0, #0
  405a3e:	eb41 5104 	adc.w	r1, r1, r4, lsl #20
  405a42:	bd70      	pop	{r4, r5, r6, pc}
  405a44:	f00e 4e00 	and.w	lr, lr, #2147483648	; 0x80000000
  405a48:	ea4e 3111 	orr.w	r1, lr, r1, lsr #12
  405a4c:	eb14 045c 	adds.w	r4, r4, ip, lsr #1
  405a50:	bfc2      	ittt	gt
  405a52:	ebd4 050c 	rsbsgt	r5, r4, ip
  405a56:	ea41 5104 	orrgt.w	r1, r1, r4, lsl #20
  405a5a:	bd70      	popgt	{r4, r5, r6, pc}
  405a5c:	f441 1180 	orr.w	r1, r1, #1048576	; 0x100000
  405a60:	f04f 0e00 	mov.w	lr, #0
  405a64:	3c01      	subs	r4, #1
  405a66:	e690      	b.n	40578a <__aeabi_dmul+0xde>
  405a68:	ea45 0e06 	orr.w	lr, r5, r6
  405a6c:	e68d      	b.n	40578a <__aeabi_dmul+0xde>
  405a6e:	ea0c 5513 	and.w	r5, ip, r3, lsr #20
  405a72:	ea94 0f0c 	teq	r4, ip
  405a76:	bf08      	it	eq
  405a78:	ea95 0f0c 	teqeq	r5, ip
  405a7c:	f43f af3b 	beq.w	4058f6 <__aeabi_dmul+0x24a>
  405a80:	ea94 0f0c 	teq	r4, ip
  405a84:	d10a      	bne.n	405a9c <__aeabi_ddiv+0x19c>
  405a86:	ea50 3401 	orrs.w	r4, r0, r1, lsl #12
  405a8a:	f47f af34 	bne.w	4058f6 <__aeabi_dmul+0x24a>
  405a8e:	ea95 0f0c 	teq	r5, ip
  405a92:	f47f af25 	bne.w	4058e0 <__aeabi_dmul+0x234>
  405a96:	4610      	mov	r0, r2
  405a98:	4619      	mov	r1, r3
  405a9a:	e72c      	b.n	4058f6 <__aeabi_dmul+0x24a>
  405a9c:	ea95 0f0c 	teq	r5, ip
  405aa0:	d106      	bne.n	405ab0 <__aeabi_ddiv+0x1b0>
  405aa2:	ea52 3503 	orrs.w	r5, r2, r3, lsl #12
  405aa6:	f43f aefd 	beq.w	4058a4 <__aeabi_dmul+0x1f8>
  405aaa:	4610      	mov	r0, r2
  405aac:	4619      	mov	r1, r3
  405aae:	e722      	b.n	4058f6 <__aeabi_dmul+0x24a>
  405ab0:	ea50 0641 	orrs.w	r6, r0, r1, lsl #1
  405ab4:	bf18      	it	ne
  405ab6:	ea52 0643 	orrsne.w	r6, r2, r3, lsl #1
  405aba:	f47f aec5 	bne.w	405848 <__aeabi_dmul+0x19c>
  405abe:	ea50 0441 	orrs.w	r4, r0, r1, lsl #1
  405ac2:	f47f af0d 	bne.w	4058e0 <__aeabi_dmul+0x234>
  405ac6:	ea52 0543 	orrs.w	r5, r2, r3, lsl #1
  405aca:	f47f aeeb 	bne.w	4058a4 <__aeabi_dmul+0x1f8>
  405ace:	e712      	b.n	4058f6 <__aeabi_dmul+0x24a>

00405ad0 <__gedf2>:
  405ad0:	f04f 3cff 	mov.w	ip, #4294967295
  405ad4:	e006      	b.n	405ae4 <__cmpdf2+0x4>
  405ad6:	bf00      	nop

00405ad8 <__ledf2>:
  405ad8:	f04f 0c01 	mov.w	ip, #1
  405adc:	e002      	b.n	405ae4 <__cmpdf2+0x4>
  405ade:	bf00      	nop

00405ae0 <__cmpdf2>:
  405ae0:	f04f 0c01 	mov.w	ip, #1
  405ae4:	f84d cd04 	str.w	ip, [sp, #-4]!
  405ae8:	ea4f 0c41 	mov.w	ip, r1, lsl #1
  405aec:	ea7f 5c6c 	mvns.w	ip, ip, asr #21
  405af0:	ea4f 0c43 	mov.w	ip, r3, lsl #1
  405af4:	bf18      	it	ne
  405af6:	ea7f 5c6c 	mvnsne.w	ip, ip, asr #21
  405afa:	d01b      	beq.n	405b34 <__cmpdf2+0x54>
  405afc:	b001      	add	sp, #4
  405afe:	ea50 0c41 	orrs.w	ip, r0, r1, lsl #1
  405b02:	bf0c      	ite	eq
  405b04:	ea52 0c43 	orrseq.w	ip, r2, r3, lsl #1
  405b08:	ea91 0f03 	teqne	r1, r3
  405b0c:	bf02      	ittt	eq
  405b0e:	ea90 0f02 	teqeq	r0, r2
  405b12:	2000      	moveq	r0, #0
  405b14:	4770      	bxeq	lr
  405b16:	f110 0f00 	cmn.w	r0, #0
  405b1a:	ea91 0f03 	teq	r1, r3
  405b1e:	bf58      	it	pl
  405b20:	4299      	cmppl	r1, r3
  405b22:	bf08      	it	eq
  405b24:	4290      	cmpeq	r0, r2
  405b26:	bf2c      	ite	cs
  405b28:	17d8      	asrcs	r0, r3, #31
  405b2a:	ea6f 70e3 	mvncc.w	r0, r3, asr #31
  405b2e:	f040 0001 	orr.w	r0, r0, #1
  405b32:	4770      	bx	lr
  405b34:	ea4f 0c41 	mov.w	ip, r1, lsl #1
  405b38:	ea7f 5c6c 	mvns.w	ip, ip, asr #21
  405b3c:	d102      	bne.n	405b44 <__cmpdf2+0x64>
  405b3e:	ea50 3c01 	orrs.w	ip, r0, r1, lsl #12
  405b42:	d107      	bne.n	405b54 <__cmpdf2+0x74>
  405b44:	ea4f 0c43 	mov.w	ip, r3, lsl #1
  405b48:	ea7f 5c6c 	mvns.w	ip, ip, asr #21
  405b4c:	d1d6      	bne.n	405afc <__cmpdf2+0x1c>
  405b4e:	ea52 3c03 	orrs.w	ip, r2, r3, lsl #12
  405b52:	d0d3      	beq.n	405afc <__cmpdf2+0x1c>
  405b54:	f85d 0b04 	ldr.w	r0, [sp], #4
  405b58:	4770      	bx	lr
  405b5a:	bf00      	nop

00405b5c <__aeabi_cdrcmple>:
  405b5c:	4684      	mov	ip, r0
  405b5e:	4610      	mov	r0, r2
  405b60:	4662      	mov	r2, ip
  405b62:	468c      	mov	ip, r1
  405b64:	4619      	mov	r1, r3
  405b66:	4663      	mov	r3, ip
  405b68:	e000      	b.n	405b6c <__aeabi_cdcmpeq>
  405b6a:	bf00      	nop

00405b6c <__aeabi_cdcmpeq>:
  405b6c:	b501      	push	{r0, lr}
  405b6e:	f7ff ffb7 	bl	405ae0 <__cmpdf2>
  405b72:	2800      	cmp	r0, #0
  405b74:	bf48      	it	mi
  405b76:	f110 0f00 	cmnmi.w	r0, #0
  405b7a:	bd01      	pop	{r0, pc}

00405b7c <__aeabi_dcmpeq>:
  405b7c:	f84d ed08 	str.w	lr, [sp, #-8]!
  405b80:	f7ff fff4 	bl	405b6c <__aeabi_cdcmpeq>
  405b84:	bf0c      	ite	eq
  405b86:	2001      	moveq	r0, #1
  405b88:	2000      	movne	r0, #0
  405b8a:	f85d fb08 	ldr.w	pc, [sp], #8
  405b8e:	bf00      	nop

00405b90 <__aeabi_dcmplt>:
  405b90:	f84d ed08 	str.w	lr, [sp, #-8]!
  405b94:	f7ff ffea 	bl	405b6c <__aeabi_cdcmpeq>
  405b98:	bf34      	ite	cc
  405b9a:	2001      	movcc	r0, #1
  405b9c:	2000      	movcs	r0, #0
  405b9e:	f85d fb08 	ldr.w	pc, [sp], #8
  405ba2:	bf00      	nop

00405ba4 <__aeabi_dcmple>:
  405ba4:	f84d ed08 	str.w	lr, [sp, #-8]!
  405ba8:	f7ff ffe0 	bl	405b6c <__aeabi_cdcmpeq>
  405bac:	bf94      	ite	ls
  405bae:	2001      	movls	r0, #1
  405bb0:	2000      	movhi	r0, #0
  405bb2:	f85d fb08 	ldr.w	pc, [sp], #8
  405bb6:	bf00      	nop

00405bb8 <__aeabi_dcmpge>:
  405bb8:	f84d ed08 	str.w	lr, [sp, #-8]!
  405bbc:	f7ff ffce 	bl	405b5c <__aeabi_cdrcmple>
  405bc0:	bf94      	ite	ls
  405bc2:	2001      	movls	r0, #1
  405bc4:	2000      	movhi	r0, #0
  405bc6:	f85d fb08 	ldr.w	pc, [sp], #8
  405bca:	bf00      	nop

00405bcc <__aeabi_dcmpgt>:
  405bcc:	f84d ed08 	str.w	lr, [sp, #-8]!
  405bd0:	f7ff ffc4 	bl	405b5c <__aeabi_cdrcmple>
  405bd4:	bf34      	ite	cc
  405bd6:	2001      	movcc	r0, #1
  405bd8:	2000      	movcs	r0, #0
  405bda:	f85d fb08 	ldr.w	pc, [sp], #8
  405bde:	bf00      	nop

00405be0 <__aeabi_d2iz>:
  405be0:	ea4f 0241 	mov.w	r2, r1, lsl #1
  405be4:	f512 1200 	adds.w	r2, r2, #2097152	; 0x200000
  405be8:	d215      	bcs.n	405c16 <__aeabi_d2iz+0x36>
  405bea:	d511      	bpl.n	405c10 <__aeabi_d2iz+0x30>
  405bec:	f46f 7378 	mvn.w	r3, #992	; 0x3e0
  405bf0:	ebb3 5262 	subs.w	r2, r3, r2, asr #21
  405bf4:	d912      	bls.n	405c1c <__aeabi_d2iz+0x3c>
  405bf6:	ea4f 23c1 	mov.w	r3, r1, lsl #11
  405bfa:	f043 4300 	orr.w	r3, r3, #2147483648	; 0x80000000
  405bfe:	ea43 5350 	orr.w	r3, r3, r0, lsr #21
  405c02:	f011 4f00 	tst.w	r1, #2147483648	; 0x80000000
  405c06:	fa23 f002 	lsr.w	r0, r3, r2
  405c0a:	bf18      	it	ne
  405c0c:	4240      	negne	r0, r0
  405c0e:	4770      	bx	lr
  405c10:	f04f 0000 	mov.w	r0, #0
  405c14:	4770      	bx	lr
  405c16:	ea50 3001 	orrs.w	r0, r0, r1, lsl #12
  405c1a:	d105      	bne.n	405c28 <__aeabi_d2iz+0x48>
  405c1c:	f011 4000 	ands.w	r0, r1, #2147483648	; 0x80000000
  405c20:	bf08      	it	eq
  405c22:	f06f 4000 	mvneq.w	r0, #2147483648	; 0x80000000
  405c26:	4770      	bx	lr
  405c28:	f04f 0000 	mov.w	r0, #0
  405c2c:	4770      	bx	lr
  405c2e:	bf00      	nop

00405c30 <__aeabi_frsub>:
  405c30:	f080 4000 	eor.w	r0, r0, #2147483648	; 0x80000000
  405c34:	e002      	b.n	405c3c <__addsf3>
  405c36:	bf00      	nop

00405c38 <__aeabi_fsub>:
  405c38:	f081 4100 	eor.w	r1, r1, #2147483648	; 0x80000000

00405c3c <__addsf3>:
  405c3c:	0042      	lsls	r2, r0, #1
  405c3e:	bf1f      	itttt	ne
  405c40:	ea5f 0341 	movsne.w	r3, r1, lsl #1
  405c44:	ea92 0f03 	teqne	r2, r3
  405c48:	ea7f 6c22 	mvnsne.w	ip, r2, asr #24
  405c4c:	ea7f 6c23 	mvnsne.w	ip, r3, asr #24
  405c50:	d06a      	beq.n	405d28 <__addsf3+0xec>
  405c52:	ea4f 6212 	mov.w	r2, r2, lsr #24
  405c56:	ebd2 6313 	rsbs	r3, r2, r3, lsr #24
  405c5a:	bfc1      	itttt	gt
  405c5c:	18d2      	addgt	r2, r2, r3
  405c5e:	4041      	eorgt	r1, r0
  405c60:	4048      	eorgt	r0, r1
  405c62:	4041      	eorgt	r1, r0
  405c64:	bfb8      	it	lt
  405c66:	425b      	neglt	r3, r3
  405c68:	2b19      	cmp	r3, #25
  405c6a:	bf88      	it	hi
  405c6c:	4770      	bxhi	lr
  405c6e:	f010 4f00 	tst.w	r0, #2147483648	; 0x80000000
  405c72:	f440 0000 	orr.w	r0, r0, #8388608	; 0x800000
  405c76:	f020 407f 	bic.w	r0, r0, #4278190080	; 0xff000000
  405c7a:	bf18      	it	ne
  405c7c:	4240      	negne	r0, r0
  405c7e:	f011 4f00 	tst.w	r1, #2147483648	; 0x80000000
  405c82:	f441 0100 	orr.w	r1, r1, #8388608	; 0x800000
  405c86:	f021 417f 	bic.w	r1, r1, #4278190080	; 0xff000000
  405c8a:	bf18      	it	ne
  405c8c:	4249      	negne	r1, r1
  405c8e:	ea92 0f03 	teq	r2, r3
  405c92:	d03f      	beq.n	405d14 <__addsf3+0xd8>
  405c94:	f1a2 0201 	sub.w	r2, r2, #1
  405c98:	fa41 fc03 	asr.w	ip, r1, r3
  405c9c:	eb10 000c 	adds.w	r0, r0, ip
  405ca0:	f1c3 0320 	rsb	r3, r3, #32
  405ca4:	fa01 f103 	lsl.w	r1, r1, r3
  405ca8:	f000 4300 	and.w	r3, r0, #2147483648	; 0x80000000
  405cac:	d502      	bpl.n	405cb4 <__addsf3+0x78>
  405cae:	4249      	negs	r1, r1
  405cb0:	eb60 0040 	sbc.w	r0, r0, r0, lsl #1
  405cb4:	f5b0 0f00 	cmp.w	r0, #8388608	; 0x800000
  405cb8:	d313      	bcc.n	405ce2 <__addsf3+0xa6>
  405cba:	f1b0 7f80 	cmp.w	r0, #16777216	; 0x1000000
  405cbe:	d306      	bcc.n	405cce <__addsf3+0x92>
  405cc0:	0840      	lsrs	r0, r0, #1
  405cc2:	ea4f 0131 	mov.w	r1, r1, rrx
  405cc6:	f102 0201 	add.w	r2, r2, #1
  405cca:	2afe      	cmp	r2, #254	; 0xfe
  405ccc:	d251      	bcs.n	405d72 <__addsf3+0x136>
  405cce:	f1b1 4f00 	cmp.w	r1, #2147483648	; 0x80000000
  405cd2:	eb40 50c2 	adc.w	r0, r0, r2, lsl #23
  405cd6:	bf08      	it	eq
  405cd8:	f020 0001 	biceq.w	r0, r0, #1
  405cdc:	ea40 0003 	orr.w	r0, r0, r3
  405ce0:	4770      	bx	lr
  405ce2:	0049      	lsls	r1, r1, #1
  405ce4:	eb40 0000 	adc.w	r0, r0, r0
  405ce8:	f410 0f00 	tst.w	r0, #8388608	; 0x800000
  405cec:	f1a2 0201 	sub.w	r2, r2, #1
  405cf0:	d1ed      	bne.n	405cce <__addsf3+0x92>
  405cf2:	fab0 fc80 	clz	ip, r0
  405cf6:	f1ac 0c08 	sub.w	ip, ip, #8
  405cfa:	ebb2 020c 	subs.w	r2, r2, ip
  405cfe:	fa00 f00c 	lsl.w	r0, r0, ip
  405d02:	bfaa      	itet	ge
  405d04:	eb00 50c2 	addge.w	r0, r0, r2, lsl #23
  405d08:	4252      	neglt	r2, r2
  405d0a:	4318      	orrge	r0, r3
  405d0c:	bfbc      	itt	lt
  405d0e:	40d0      	lsrlt	r0, r2
  405d10:	4318      	orrlt	r0, r3
  405d12:	4770      	bx	lr
  405d14:	f092 0f00 	teq	r2, #0
  405d18:	f481 0100 	eor.w	r1, r1, #8388608	; 0x800000
  405d1c:	bf06      	itte	eq
  405d1e:	f480 0000 	eoreq.w	r0, r0, #8388608	; 0x800000
  405d22:	3201      	addeq	r2, #1
  405d24:	3b01      	subne	r3, #1
  405d26:	e7b5      	b.n	405c94 <__addsf3+0x58>
  405d28:	ea4f 0341 	mov.w	r3, r1, lsl #1
  405d2c:	ea7f 6c22 	mvns.w	ip, r2, asr #24
  405d30:	bf18      	it	ne
  405d32:	ea7f 6c23 	mvnsne.w	ip, r3, asr #24
  405d36:	d021      	beq.n	405d7c <__addsf3+0x140>
  405d38:	ea92 0f03 	teq	r2, r3
  405d3c:	d004      	beq.n	405d48 <__addsf3+0x10c>
  405d3e:	f092 0f00 	teq	r2, #0
  405d42:	bf08      	it	eq
  405d44:	4608      	moveq	r0, r1
  405d46:	4770      	bx	lr
  405d48:	ea90 0f01 	teq	r0, r1
  405d4c:	bf1c      	itt	ne
  405d4e:	2000      	movne	r0, #0
  405d50:	4770      	bxne	lr
  405d52:	f012 4f7f 	tst.w	r2, #4278190080	; 0xff000000
  405d56:	d104      	bne.n	405d62 <__addsf3+0x126>
  405d58:	0040      	lsls	r0, r0, #1
  405d5a:	bf28      	it	cs
  405d5c:	f040 4000 	orrcs.w	r0, r0, #2147483648	; 0x80000000
  405d60:	4770      	bx	lr
  405d62:	f112 7200 	adds.w	r2, r2, #33554432	; 0x2000000
  405d66:	bf3c      	itt	cc
  405d68:	f500 0000 	addcc.w	r0, r0, #8388608	; 0x800000
  405d6c:	4770      	bxcc	lr
  405d6e:	f000 4300 	and.w	r3, r0, #2147483648	; 0x80000000
  405d72:	f043 40fe 	orr.w	r0, r3, #2130706432	; 0x7f000000
  405d76:	f440 0000 	orr.w	r0, r0, #8388608	; 0x800000
  405d7a:	4770      	bx	lr
  405d7c:	ea7f 6222 	mvns.w	r2, r2, asr #24
  405d80:	bf16      	itet	ne
  405d82:	4608      	movne	r0, r1
  405d84:	ea7f 6323 	mvnseq.w	r3, r3, asr #24
  405d88:	4601      	movne	r1, r0
  405d8a:	0242      	lsls	r2, r0, #9
  405d8c:	bf06      	itte	eq
  405d8e:	ea5f 2341 	movseq.w	r3, r1, lsl #9
  405d92:	ea90 0f01 	teqeq	r0, r1
  405d96:	f440 0080 	orrne.w	r0, r0, #4194304	; 0x400000
  405d9a:	4770      	bx	lr

00405d9c <__aeabi_ui2f>:
  405d9c:	f04f 0300 	mov.w	r3, #0
  405da0:	e004      	b.n	405dac <__aeabi_i2f+0x8>
  405da2:	bf00      	nop

00405da4 <__aeabi_i2f>:
  405da4:	f010 4300 	ands.w	r3, r0, #2147483648	; 0x80000000
  405da8:	bf48      	it	mi
  405daa:	4240      	negmi	r0, r0
  405dac:	ea5f 0c00 	movs.w	ip, r0
  405db0:	bf08      	it	eq
  405db2:	4770      	bxeq	lr
  405db4:	f043 4396 	orr.w	r3, r3, #1258291200	; 0x4b000000
  405db8:	4601      	mov	r1, r0
  405dba:	f04f 0000 	mov.w	r0, #0
  405dbe:	e01c      	b.n	405dfa <__aeabi_l2f+0x2a>

00405dc0 <__aeabi_ul2f>:
  405dc0:	ea50 0201 	orrs.w	r2, r0, r1
  405dc4:	bf08      	it	eq
  405dc6:	4770      	bxeq	lr
  405dc8:	f04f 0300 	mov.w	r3, #0
  405dcc:	e00a      	b.n	405de4 <__aeabi_l2f+0x14>
  405dce:	bf00      	nop

00405dd0 <__aeabi_l2f>:
  405dd0:	ea50 0201 	orrs.w	r2, r0, r1
  405dd4:	bf08      	it	eq
  405dd6:	4770      	bxeq	lr
  405dd8:	f011 4300 	ands.w	r3, r1, #2147483648	; 0x80000000
  405ddc:	d502      	bpl.n	405de4 <__aeabi_l2f+0x14>
  405dde:	4240      	negs	r0, r0
  405de0:	eb61 0141 	sbc.w	r1, r1, r1, lsl #1
  405de4:	ea5f 0c01 	movs.w	ip, r1
  405de8:	bf02      	ittt	eq
  405dea:	4684      	moveq	ip, r0
  405dec:	4601      	moveq	r1, r0
  405dee:	2000      	moveq	r0, #0
  405df0:	f043 43b6 	orr.w	r3, r3, #1526726656	; 0x5b000000
  405df4:	bf08      	it	eq
  405df6:	f1a3 5380 	subeq.w	r3, r3, #268435456	; 0x10000000
  405dfa:	f5a3 0300 	sub.w	r3, r3, #8388608	; 0x800000
  405dfe:	fabc f28c 	clz	r2, ip
  405e02:	3a08      	subs	r2, #8
  405e04:	eba3 53c2 	sub.w	r3, r3, r2, lsl #23
  405e08:	db10      	blt.n	405e2c <__aeabi_l2f+0x5c>
  405e0a:	fa01 fc02 	lsl.w	ip, r1, r2
  405e0e:	4463      	add	r3, ip
  405e10:	fa00 fc02 	lsl.w	ip, r0, r2
  405e14:	f1c2 0220 	rsb	r2, r2, #32
  405e18:	f1bc 4f00 	cmp.w	ip, #2147483648	; 0x80000000
  405e1c:	fa20 f202 	lsr.w	r2, r0, r2
  405e20:	eb43 0002 	adc.w	r0, r3, r2
  405e24:	bf08      	it	eq
  405e26:	f020 0001 	biceq.w	r0, r0, #1
  405e2a:	4770      	bx	lr
  405e2c:	f102 0220 	add.w	r2, r2, #32
  405e30:	fa01 fc02 	lsl.w	ip, r1, r2
  405e34:	f1c2 0220 	rsb	r2, r2, #32
  405e38:	ea50 004c 	orrs.w	r0, r0, ip, lsl #1
  405e3c:	fa21 f202 	lsr.w	r2, r1, r2
  405e40:	eb43 0002 	adc.w	r0, r3, r2
  405e44:	bf08      	it	eq
  405e46:	ea20 70dc 	biceq.w	r0, r0, ip, lsr #31
  405e4a:	4770      	bx	lr

00405e4c <__libc_init_array>:
  405e4c:	b570      	push	{r4, r5, r6, lr}
  405e4e:	4e0f      	ldr	r6, [pc, #60]	; (405e8c <__libc_init_array+0x40>)
  405e50:	4d0f      	ldr	r5, [pc, #60]	; (405e90 <__libc_init_array+0x44>)
  405e52:	1b76      	subs	r6, r6, r5
  405e54:	10b6      	asrs	r6, r6, #2
  405e56:	d007      	beq.n	405e68 <__libc_init_array+0x1c>
  405e58:	3d04      	subs	r5, #4
  405e5a:	2400      	movs	r4, #0
  405e5c:	3401      	adds	r4, #1
  405e5e:	f855 3f04 	ldr.w	r3, [r5, #4]!
  405e62:	4798      	blx	r3
  405e64:	42a6      	cmp	r6, r4
  405e66:	d1f9      	bne.n	405e5c <__libc_init_array+0x10>
  405e68:	4e0a      	ldr	r6, [pc, #40]	; (405e94 <__libc_init_array+0x48>)
  405e6a:	4d0b      	ldr	r5, [pc, #44]	; (405e98 <__libc_init_array+0x4c>)
  405e6c:	f006 fd2e 	bl	40c8cc <_init>
  405e70:	1b76      	subs	r6, r6, r5
  405e72:	10b6      	asrs	r6, r6, #2
  405e74:	d008      	beq.n	405e88 <__libc_init_array+0x3c>
  405e76:	3d04      	subs	r5, #4
  405e78:	2400      	movs	r4, #0
  405e7a:	3401      	adds	r4, #1
  405e7c:	f855 3f04 	ldr.w	r3, [r5, #4]!
  405e80:	4798      	blx	r3
  405e82:	42a6      	cmp	r6, r4
  405e84:	d1f9      	bne.n	405e7a <__libc_init_array+0x2e>
  405e86:	bd70      	pop	{r4, r5, r6, pc}
  405e88:	bd70      	pop	{r4, r5, r6, pc}
  405e8a:	bf00      	nop
  405e8c:	0040c8d8 	.word	0x0040c8d8
  405e90:	0040c8d8 	.word	0x0040c8d8
  405e94:	0040c8e0 	.word	0x0040c8e0
  405e98:	0040c8d8 	.word	0x0040c8d8

00405e9c <iprintf>:
  405e9c:	b40f      	push	{r0, r1, r2, r3}
  405e9e:	b510      	push	{r4, lr}
  405ea0:	4b07      	ldr	r3, [pc, #28]	; (405ec0 <iprintf+0x24>)
  405ea2:	b082      	sub	sp, #8
  405ea4:	ac04      	add	r4, sp, #16
  405ea6:	f854 2b04 	ldr.w	r2, [r4], #4
  405eaa:	6818      	ldr	r0, [r3, #0]
  405eac:	4623      	mov	r3, r4
  405eae:	6881      	ldr	r1, [r0, #8]
  405eb0:	9401      	str	r4, [sp, #4]
  405eb2:	f002 f951 	bl	408158 <_vfiprintf_r>
  405eb6:	b002      	add	sp, #8
  405eb8:	e8bd 4010 	ldmia.w	sp!, {r4, lr}
  405ebc:	b004      	add	sp, #16
  405ebe:	4770      	bx	lr
  405ec0:	20000508 	.word	0x20000508

00405ec4 <malloc>:
  405ec4:	4b02      	ldr	r3, [pc, #8]	; (405ed0 <malloc+0xc>)
  405ec6:	4601      	mov	r1, r0
  405ec8:	6818      	ldr	r0, [r3, #0]
  405eca:	f000 b803 	b.w	405ed4 <_malloc_r>
  405ece:	bf00      	nop
  405ed0:	20000508 	.word	0x20000508

00405ed4 <_malloc_r>:
  405ed4:	e92d 4ff0 	stmdb	sp!, {r4, r5, r6, r7, r8, r9, sl, fp, lr}
  405ed8:	f101 050b 	add.w	r5, r1, #11
  405edc:	2d16      	cmp	r5, #22
  405ede:	b083      	sub	sp, #12
  405ee0:	4606      	mov	r6, r0
  405ee2:	d927      	bls.n	405f34 <_malloc_r+0x60>
  405ee4:	f035 0507 	bics.w	r5, r5, #7
  405ee8:	d427      	bmi.n	405f3a <_malloc_r+0x66>
  405eea:	42a9      	cmp	r1, r5
  405eec:	d825      	bhi.n	405f3a <_malloc_r+0x66>
  405eee:	4630      	mov	r0, r6
  405ef0:	f000 fb80 	bl	4065f4 <__malloc_lock>
  405ef4:	f5b5 7ffc 	cmp.w	r5, #504	; 0x1f8
  405ef8:	d226      	bcs.n	405f48 <_malloc_r+0x74>
  405efa:	4fc1      	ldr	r7, [pc, #772]	; (406200 <_malloc_r+0x32c>)
  405efc:	ea4f 0cd5 	mov.w	ip, r5, lsr #3
  405f00:	eb07 03cc 	add.w	r3, r7, ip, lsl #3
  405f04:	68dc      	ldr	r4, [r3, #12]
  405f06:	429c      	cmp	r4, r3
  405f08:	f000 81d2 	beq.w	4062b0 <_malloc_r+0x3dc>
  405f0c:	6863      	ldr	r3, [r4, #4]
  405f0e:	68e2      	ldr	r2, [r4, #12]
  405f10:	f023 0303 	bic.w	r3, r3, #3
  405f14:	4423      	add	r3, r4
  405f16:	6858      	ldr	r0, [r3, #4]
  405f18:	68a1      	ldr	r1, [r4, #8]
  405f1a:	f040 0501 	orr.w	r5, r0, #1
  405f1e:	60ca      	str	r2, [r1, #12]
  405f20:	4630      	mov	r0, r6
  405f22:	6091      	str	r1, [r2, #8]
  405f24:	605d      	str	r5, [r3, #4]
  405f26:	f000 fb67 	bl	4065f8 <__malloc_unlock>
  405f2a:	3408      	adds	r4, #8
  405f2c:	4620      	mov	r0, r4
  405f2e:	b003      	add	sp, #12
  405f30:	e8bd 8ff0 	ldmia.w	sp!, {r4, r5, r6, r7, r8, r9, sl, fp, pc}
  405f34:	2510      	movs	r5, #16
  405f36:	42a9      	cmp	r1, r5
  405f38:	d9d9      	bls.n	405eee <_malloc_r+0x1a>
  405f3a:	2400      	movs	r4, #0
  405f3c:	230c      	movs	r3, #12
  405f3e:	4620      	mov	r0, r4
  405f40:	6033      	str	r3, [r6, #0]
  405f42:	b003      	add	sp, #12
  405f44:	e8bd 8ff0 	ldmia.w	sp!, {r4, r5, r6, r7, r8, r9, sl, fp, pc}
  405f48:	ea5f 2c55 	movs.w	ip, r5, lsr #9
  405f4c:	f000 8089 	beq.w	406062 <_malloc_r+0x18e>
  405f50:	f1bc 0f04 	cmp.w	ip, #4
  405f54:	f200 8160 	bhi.w	406218 <_malloc_r+0x344>
  405f58:	ea4f 1c95 	mov.w	ip, r5, lsr #6
  405f5c:	f10c 0c38 	add.w	ip, ip, #56	; 0x38
  405f60:	ea4f 014c 	mov.w	r1, ip, lsl #1
  405f64:	4fa6      	ldr	r7, [pc, #664]	; (406200 <_malloc_r+0x32c>)
  405f66:	eb07 0181 	add.w	r1, r7, r1, lsl #2
  405f6a:	68cc      	ldr	r4, [r1, #12]
  405f6c:	42a1      	cmp	r1, r4
  405f6e:	d105      	bne.n	405f7c <_malloc_r+0xa8>
  405f70:	e00c      	b.n	405f8c <_malloc_r+0xb8>
  405f72:	2b00      	cmp	r3, #0
  405f74:	da79      	bge.n	40606a <_malloc_r+0x196>
  405f76:	68e4      	ldr	r4, [r4, #12]
  405f78:	42a1      	cmp	r1, r4
  405f7a:	d007      	beq.n	405f8c <_malloc_r+0xb8>
  405f7c:	6862      	ldr	r2, [r4, #4]
  405f7e:	f022 0203 	bic.w	r2, r2, #3
  405f82:	1b53      	subs	r3, r2, r5
  405f84:	2b0f      	cmp	r3, #15
  405f86:	ddf4      	ble.n	405f72 <_malloc_r+0x9e>
  405f88:	f10c 3cff 	add.w	ip, ip, #4294967295
  405f8c:	f10c 0c01 	add.w	ip, ip, #1
  405f90:	4b9b      	ldr	r3, [pc, #620]	; (406200 <_malloc_r+0x32c>)
  405f92:	693c      	ldr	r4, [r7, #16]
  405f94:	f103 0e08 	add.w	lr, r3, #8
  405f98:	4574      	cmp	r4, lr
  405f9a:	f000 817e 	beq.w	40629a <_malloc_r+0x3c6>
  405f9e:	6861      	ldr	r1, [r4, #4]
  405fa0:	f021 0103 	bic.w	r1, r1, #3
  405fa4:	1b4a      	subs	r2, r1, r5
  405fa6:	2a0f      	cmp	r2, #15
  405fa8:	f300 8164 	bgt.w	406274 <_malloc_r+0x3a0>
  405fac:	2a00      	cmp	r2, #0
  405fae:	f8c3 e014 	str.w	lr, [r3, #20]
  405fb2:	f8c3 e010 	str.w	lr, [r3, #16]
  405fb6:	da69      	bge.n	40608c <_malloc_r+0x1b8>
  405fb8:	f5b1 7f00 	cmp.w	r1, #512	; 0x200
  405fbc:	f080 813a 	bcs.w	406234 <_malloc_r+0x360>
  405fc0:	08c9      	lsrs	r1, r1, #3
  405fc2:	108a      	asrs	r2, r1, #2
  405fc4:	f04f 0801 	mov.w	r8, #1
  405fc8:	fa08 f802 	lsl.w	r8, r8, r2
  405fcc:	eb03 01c1 	add.w	r1, r3, r1, lsl #3
  405fd0:	685a      	ldr	r2, [r3, #4]
  405fd2:	6888      	ldr	r0, [r1, #8]
  405fd4:	ea48 0202 	orr.w	r2, r8, r2
  405fd8:	60a0      	str	r0, [r4, #8]
  405fda:	60e1      	str	r1, [r4, #12]
  405fdc:	605a      	str	r2, [r3, #4]
  405fde:	608c      	str	r4, [r1, #8]
  405fe0:	60c4      	str	r4, [r0, #12]
  405fe2:	ea4f 03ac 	mov.w	r3, ip, asr #2
  405fe6:	2001      	movs	r0, #1
  405fe8:	4098      	lsls	r0, r3
  405fea:	4290      	cmp	r0, r2
  405fec:	d85b      	bhi.n	4060a6 <_malloc_r+0x1d2>
  405fee:	4202      	tst	r2, r0
  405ff0:	d106      	bne.n	406000 <_malloc_r+0x12c>
  405ff2:	f02c 0c03 	bic.w	ip, ip, #3
  405ff6:	0040      	lsls	r0, r0, #1
  405ff8:	4202      	tst	r2, r0
  405ffa:	f10c 0c04 	add.w	ip, ip, #4
  405ffe:	d0fa      	beq.n	405ff6 <_malloc_r+0x122>
  406000:	eb07 08cc 	add.w	r8, r7, ip, lsl #3
  406004:	4644      	mov	r4, r8
  406006:	46e1      	mov	r9, ip
  406008:	68e3      	ldr	r3, [r4, #12]
  40600a:	429c      	cmp	r4, r3
  40600c:	d107      	bne.n	40601e <_malloc_r+0x14a>
  40600e:	e146      	b.n	40629e <_malloc_r+0x3ca>
  406010:	2a00      	cmp	r2, #0
  406012:	f280 8157 	bge.w	4062c4 <_malloc_r+0x3f0>
  406016:	68db      	ldr	r3, [r3, #12]
  406018:	429c      	cmp	r4, r3
  40601a:	f000 8140 	beq.w	40629e <_malloc_r+0x3ca>
  40601e:	6859      	ldr	r1, [r3, #4]
  406020:	f021 0103 	bic.w	r1, r1, #3
  406024:	1b4a      	subs	r2, r1, r5
  406026:	2a0f      	cmp	r2, #15
  406028:	ddf2      	ble.n	406010 <_malloc_r+0x13c>
  40602a:	461c      	mov	r4, r3
  40602c:	f854 cf08 	ldr.w	ip, [r4, #8]!
  406030:	68d9      	ldr	r1, [r3, #12]
  406032:	f045 0901 	orr.w	r9, r5, #1
  406036:	f042 0801 	orr.w	r8, r2, #1
  40603a:	441d      	add	r5, r3
  40603c:	f8c3 9004 	str.w	r9, [r3, #4]
  406040:	4630      	mov	r0, r6
  406042:	f8cc 100c 	str.w	r1, [ip, #12]
  406046:	f8c1 c008 	str.w	ip, [r1, #8]
  40604a:	617d      	str	r5, [r7, #20]
  40604c:	613d      	str	r5, [r7, #16]
  40604e:	f8c5 e00c 	str.w	lr, [r5, #12]
  406052:	f8c5 e008 	str.w	lr, [r5, #8]
  406056:	f8c5 8004 	str.w	r8, [r5, #4]
  40605a:	50aa      	str	r2, [r5, r2]
  40605c:	f000 facc 	bl	4065f8 <__malloc_unlock>
  406060:	e764      	b.n	405f2c <_malloc_r+0x58>
  406062:	217e      	movs	r1, #126	; 0x7e
  406064:	f04f 0c3f 	mov.w	ip, #63	; 0x3f
  406068:	e77c      	b.n	405f64 <_malloc_r+0x90>
  40606a:	4422      	add	r2, r4
  40606c:	6850      	ldr	r0, [r2, #4]
  40606e:	68e3      	ldr	r3, [r4, #12]
  406070:	68a1      	ldr	r1, [r4, #8]
  406072:	f040 0501 	orr.w	r5, r0, #1
  406076:	60cb      	str	r3, [r1, #12]
  406078:	4630      	mov	r0, r6
  40607a:	6099      	str	r1, [r3, #8]
  40607c:	6055      	str	r5, [r2, #4]
  40607e:	f000 fabb 	bl	4065f8 <__malloc_unlock>
  406082:	3408      	adds	r4, #8
  406084:	4620      	mov	r0, r4
  406086:	b003      	add	sp, #12
  406088:	e8bd 8ff0 	ldmia.w	sp!, {r4, r5, r6, r7, r8, r9, sl, fp, pc}
  40608c:	4421      	add	r1, r4
  40608e:	684b      	ldr	r3, [r1, #4]
  406090:	4630      	mov	r0, r6
  406092:	f043 0301 	orr.w	r3, r3, #1
  406096:	604b      	str	r3, [r1, #4]
  406098:	f000 faae 	bl	4065f8 <__malloc_unlock>
  40609c:	3408      	adds	r4, #8
  40609e:	4620      	mov	r0, r4
  4060a0:	b003      	add	sp, #12
  4060a2:	e8bd 8ff0 	ldmia.w	sp!, {r4, r5, r6, r7, r8, r9, sl, fp, pc}
  4060a6:	68bc      	ldr	r4, [r7, #8]
  4060a8:	6863      	ldr	r3, [r4, #4]
  4060aa:	f023 0903 	bic.w	r9, r3, #3
  4060ae:	45a9      	cmp	r9, r5
  4060b0:	d304      	bcc.n	4060bc <_malloc_r+0x1e8>
  4060b2:	ebc5 0309 	rsb	r3, r5, r9
  4060b6:	2b0f      	cmp	r3, #15
  4060b8:	f300 8091 	bgt.w	4061de <_malloc_r+0x30a>
  4060bc:	4b51      	ldr	r3, [pc, #324]	; (406204 <_malloc_r+0x330>)
  4060be:	4a52      	ldr	r2, [pc, #328]	; (406208 <_malloc_r+0x334>)
  4060c0:	6819      	ldr	r1, [r3, #0]
  4060c2:	6813      	ldr	r3, [r2, #0]
  4060c4:	eb05 0a01 	add.w	sl, r5, r1
  4060c8:	3301      	adds	r3, #1
  4060ca:	eb04 0b09 	add.w	fp, r4, r9
  4060ce:	f000 8161 	beq.w	406394 <_malloc_r+0x4c0>
  4060d2:	f50a 5a80 	add.w	sl, sl, #4096	; 0x1000
  4060d6:	f10a 0a0f 	add.w	sl, sl, #15
  4060da:	f42a 6a7f 	bic.w	sl, sl, #4080	; 0xff0
  4060de:	f02a 0a0f 	bic.w	sl, sl, #15
  4060e2:	4630      	mov	r0, r6
  4060e4:	4651      	mov	r1, sl
  4060e6:	9201      	str	r2, [sp, #4]
  4060e8:	f000 fc68 	bl	4069bc <_sbrk_r>
  4060ec:	f1b0 3fff 	cmp.w	r0, #4294967295
  4060f0:	4680      	mov	r8, r0
  4060f2:	9a01      	ldr	r2, [sp, #4]
  4060f4:	f000 8101 	beq.w	4062fa <_malloc_r+0x426>
  4060f8:	4583      	cmp	fp, r0
  4060fa:	f200 80fb 	bhi.w	4062f4 <_malloc_r+0x420>
  4060fe:	f8df c114 	ldr.w	ip, [pc, #276]	; 406214 <_malloc_r+0x340>
  406102:	45c3      	cmp	fp, r8
  406104:	f8dc 3000 	ldr.w	r3, [ip]
  406108:	4453      	add	r3, sl
  40610a:	f8cc 3000 	str.w	r3, [ip]
  40610e:	f000 814a 	beq.w	4063a6 <_malloc_r+0x4d2>
  406112:	6812      	ldr	r2, [r2, #0]
  406114:	493c      	ldr	r1, [pc, #240]	; (406208 <_malloc_r+0x334>)
  406116:	3201      	adds	r2, #1
  406118:	bf1b      	ittet	ne
  40611a:	ebcb 0b08 	rsbne	fp, fp, r8
  40611e:	445b      	addne	r3, fp
  406120:	f8c1 8000 	streq.w	r8, [r1]
  406124:	f8cc 3000 	strne.w	r3, [ip]
  406128:	f018 0307 	ands.w	r3, r8, #7
  40612c:	f000 8114 	beq.w	406358 <_malloc_r+0x484>
  406130:	f1c3 0208 	rsb	r2, r3, #8
  406134:	f5c3 5380 	rsb	r3, r3, #4096	; 0x1000
  406138:	4490      	add	r8, r2
  40613a:	3308      	adds	r3, #8
  40613c:	44c2      	add	sl, r8
  40613e:	f3ca 0a0b 	ubfx	sl, sl, #0, #12
  406142:	ebca 0a03 	rsb	sl, sl, r3
  406146:	4651      	mov	r1, sl
  406148:	4630      	mov	r0, r6
  40614a:	f8cd c004 	str.w	ip, [sp, #4]
  40614e:	f000 fc35 	bl	4069bc <_sbrk_r>
  406152:	1c43      	adds	r3, r0, #1
  406154:	f8dd c004 	ldr.w	ip, [sp, #4]
  406158:	f000 8135 	beq.w	4063c6 <_malloc_r+0x4f2>
  40615c:	ebc8 0200 	rsb	r2, r8, r0
  406160:	4452      	add	r2, sl
  406162:	f042 0201 	orr.w	r2, r2, #1
  406166:	f8dc 3000 	ldr.w	r3, [ip]
  40616a:	42bc      	cmp	r4, r7
  40616c:	4453      	add	r3, sl
  40616e:	f8c7 8008 	str.w	r8, [r7, #8]
  406172:	f8cc 3000 	str.w	r3, [ip]
  406176:	f8c8 2004 	str.w	r2, [r8, #4]
  40617a:	f8df a098 	ldr.w	sl, [pc, #152]	; 406214 <_malloc_r+0x340>
  40617e:	d015      	beq.n	4061ac <_malloc_r+0x2d8>
  406180:	f1b9 0f0f 	cmp.w	r9, #15
  406184:	f240 80eb 	bls.w	40635e <_malloc_r+0x48a>
  406188:	6861      	ldr	r1, [r4, #4]
  40618a:	f1a9 020c 	sub.w	r2, r9, #12
  40618e:	f022 0207 	bic.w	r2, r2, #7
  406192:	f001 0101 	and.w	r1, r1, #1
  406196:	ea42 0e01 	orr.w	lr, r2, r1
  40619a:	2005      	movs	r0, #5
  40619c:	18a1      	adds	r1, r4, r2
  40619e:	2a0f      	cmp	r2, #15
  4061a0:	f8c4 e004 	str.w	lr, [r4, #4]
  4061a4:	6048      	str	r0, [r1, #4]
  4061a6:	6088      	str	r0, [r1, #8]
  4061a8:	f200 8111 	bhi.w	4063ce <_malloc_r+0x4fa>
  4061ac:	4a17      	ldr	r2, [pc, #92]	; (40620c <_malloc_r+0x338>)
  4061ae:	68bc      	ldr	r4, [r7, #8]
  4061b0:	6811      	ldr	r1, [r2, #0]
  4061b2:	428b      	cmp	r3, r1
  4061b4:	bf88      	it	hi
  4061b6:	6013      	strhi	r3, [r2, #0]
  4061b8:	4a15      	ldr	r2, [pc, #84]	; (406210 <_malloc_r+0x33c>)
  4061ba:	6811      	ldr	r1, [r2, #0]
  4061bc:	428b      	cmp	r3, r1
  4061be:	bf88      	it	hi
  4061c0:	6013      	strhi	r3, [r2, #0]
  4061c2:	6862      	ldr	r2, [r4, #4]
  4061c4:	f022 0203 	bic.w	r2, r2, #3
  4061c8:	4295      	cmp	r5, r2
  4061ca:	ebc5 0302 	rsb	r3, r5, r2
  4061ce:	d801      	bhi.n	4061d4 <_malloc_r+0x300>
  4061d0:	2b0f      	cmp	r3, #15
  4061d2:	dc04      	bgt.n	4061de <_malloc_r+0x30a>
  4061d4:	4630      	mov	r0, r6
  4061d6:	f000 fa0f 	bl	4065f8 <__malloc_unlock>
  4061da:	2400      	movs	r4, #0
  4061dc:	e6a6      	b.n	405f2c <_malloc_r+0x58>
  4061de:	f045 0201 	orr.w	r2, r5, #1
  4061e2:	f043 0301 	orr.w	r3, r3, #1
  4061e6:	4425      	add	r5, r4
  4061e8:	6062      	str	r2, [r4, #4]
  4061ea:	4630      	mov	r0, r6
  4061ec:	60bd      	str	r5, [r7, #8]
  4061ee:	606b      	str	r3, [r5, #4]
  4061f0:	f000 fa02 	bl	4065f8 <__malloc_unlock>
  4061f4:	3408      	adds	r4, #8
  4061f6:	4620      	mov	r0, r4
  4061f8:	b003      	add	sp, #12
  4061fa:	e8bd 8ff0 	ldmia.w	sp!, {r4, r5, r6, r7, r8, r9, sl, fp, pc}
  4061fe:	bf00      	nop
  406200:	2000050c 	.word	0x2000050c
  406204:	20003e08 	.word	0x20003e08
  406208:	20000918 	.word	0x20000918
  40620c:	20003e04 	.word	0x20003e04
  406210:	20003e00 	.word	0x20003e00
  406214:	20003e0c 	.word	0x20003e0c
  406218:	f1bc 0f14 	cmp.w	ip, #20
  40621c:	d961      	bls.n	4062e2 <_malloc_r+0x40e>
  40621e:	f1bc 0f54 	cmp.w	ip, #84	; 0x54
  406222:	f200 808f 	bhi.w	406344 <_malloc_r+0x470>
  406226:	ea4f 3c15 	mov.w	ip, r5, lsr #12
  40622a:	f10c 0c6e 	add.w	ip, ip, #110	; 0x6e
  40622e:	ea4f 014c 	mov.w	r1, ip, lsl #1
  406232:	e697      	b.n	405f64 <_malloc_r+0x90>
  406234:	0a4b      	lsrs	r3, r1, #9
  406236:	2b04      	cmp	r3, #4
  406238:	d958      	bls.n	4062ec <_malloc_r+0x418>
  40623a:	2b14      	cmp	r3, #20
  40623c:	f200 80ad 	bhi.w	40639a <_malloc_r+0x4c6>
  406240:	f103 025b 	add.w	r2, r3, #91	; 0x5b
  406244:	0050      	lsls	r0, r2, #1
  406246:	eb07 0080 	add.w	r0, r7, r0, lsl #2
  40624a:	6883      	ldr	r3, [r0, #8]
  40624c:	f8df 81b8 	ldr.w	r8, [pc, #440]	; 406408 <_malloc_r+0x534>
  406250:	4283      	cmp	r3, r0
  406252:	f000 808a 	beq.w	40636a <_malloc_r+0x496>
  406256:	685a      	ldr	r2, [r3, #4]
  406258:	f022 0203 	bic.w	r2, r2, #3
  40625c:	4291      	cmp	r1, r2
  40625e:	d202      	bcs.n	406266 <_malloc_r+0x392>
  406260:	689b      	ldr	r3, [r3, #8]
  406262:	4298      	cmp	r0, r3
  406264:	d1f7      	bne.n	406256 <_malloc_r+0x382>
  406266:	68d9      	ldr	r1, [r3, #12]
  406268:	687a      	ldr	r2, [r7, #4]
  40626a:	60e1      	str	r1, [r4, #12]
  40626c:	60a3      	str	r3, [r4, #8]
  40626e:	608c      	str	r4, [r1, #8]
  406270:	60dc      	str	r4, [r3, #12]
  406272:	e6b6      	b.n	405fe2 <_malloc_r+0x10e>
  406274:	f045 0701 	orr.w	r7, r5, #1
  406278:	f042 0101 	orr.w	r1, r2, #1
  40627c:	4425      	add	r5, r4
  40627e:	6067      	str	r7, [r4, #4]
  406280:	4630      	mov	r0, r6
  406282:	615d      	str	r5, [r3, #20]
  406284:	611d      	str	r5, [r3, #16]
  406286:	f8c5 e00c 	str.w	lr, [r5, #12]
  40628a:	f8c5 e008 	str.w	lr, [r5, #8]
  40628e:	6069      	str	r1, [r5, #4]
  406290:	50aa      	str	r2, [r5, r2]
  406292:	3408      	adds	r4, #8
  406294:	f000 f9b0 	bl	4065f8 <__malloc_unlock>
  406298:	e648      	b.n	405f2c <_malloc_r+0x58>
  40629a:	685a      	ldr	r2, [r3, #4]
  40629c:	e6a1      	b.n	405fe2 <_malloc_r+0x10e>
  40629e:	f109 0901 	add.w	r9, r9, #1
  4062a2:	f019 0f03 	tst.w	r9, #3
  4062a6:	f104 0408 	add.w	r4, r4, #8
  4062aa:	f47f aead 	bne.w	406008 <_malloc_r+0x134>
  4062ae:	e02d      	b.n	40630c <_malloc_r+0x438>
  4062b0:	f104 0308 	add.w	r3, r4, #8
  4062b4:	6964      	ldr	r4, [r4, #20]
  4062b6:	42a3      	cmp	r3, r4
  4062b8:	bf08      	it	eq
  4062ba:	f10c 0c02 	addeq.w	ip, ip, #2
  4062be:	f43f ae67 	beq.w	405f90 <_malloc_r+0xbc>
  4062c2:	e623      	b.n	405f0c <_malloc_r+0x38>
  4062c4:	4419      	add	r1, r3
  4062c6:	6848      	ldr	r0, [r1, #4]
  4062c8:	461c      	mov	r4, r3
  4062ca:	f854 2f08 	ldr.w	r2, [r4, #8]!
  4062ce:	68db      	ldr	r3, [r3, #12]
  4062d0:	f040 0501 	orr.w	r5, r0, #1
  4062d4:	604d      	str	r5, [r1, #4]
  4062d6:	4630      	mov	r0, r6
  4062d8:	60d3      	str	r3, [r2, #12]
  4062da:	609a      	str	r2, [r3, #8]
  4062dc:	f000 f98c 	bl	4065f8 <__malloc_unlock>
  4062e0:	e624      	b.n	405f2c <_malloc_r+0x58>
  4062e2:	f10c 0c5b 	add.w	ip, ip, #91	; 0x5b
  4062e6:	ea4f 014c 	mov.w	r1, ip, lsl #1
  4062ea:	e63b      	b.n	405f64 <_malloc_r+0x90>
  4062ec:	098a      	lsrs	r2, r1, #6
  4062ee:	3238      	adds	r2, #56	; 0x38
  4062f0:	0050      	lsls	r0, r2, #1
  4062f2:	e7a8      	b.n	406246 <_malloc_r+0x372>
  4062f4:	42bc      	cmp	r4, r7
  4062f6:	f43f af02 	beq.w	4060fe <_malloc_r+0x22a>
  4062fa:	68bc      	ldr	r4, [r7, #8]
  4062fc:	6862      	ldr	r2, [r4, #4]
  4062fe:	f022 0203 	bic.w	r2, r2, #3
  406302:	e761      	b.n	4061c8 <_malloc_r+0x2f4>
  406304:	f8d8 8000 	ldr.w	r8, [r8]
  406308:	4598      	cmp	r8, r3
  40630a:	d17a      	bne.n	406402 <_malloc_r+0x52e>
  40630c:	f01c 0f03 	tst.w	ip, #3
  406310:	f1a8 0308 	sub.w	r3, r8, #8
  406314:	f10c 3cff 	add.w	ip, ip, #4294967295
  406318:	d1f4      	bne.n	406304 <_malloc_r+0x430>
  40631a:	687b      	ldr	r3, [r7, #4]
  40631c:	ea23 0300 	bic.w	r3, r3, r0
  406320:	607b      	str	r3, [r7, #4]
  406322:	0040      	lsls	r0, r0, #1
  406324:	4298      	cmp	r0, r3
  406326:	f63f aebe 	bhi.w	4060a6 <_malloc_r+0x1d2>
  40632a:	2800      	cmp	r0, #0
  40632c:	f43f aebb 	beq.w	4060a6 <_malloc_r+0x1d2>
  406330:	4203      	tst	r3, r0
  406332:	46cc      	mov	ip, r9
  406334:	f47f ae64 	bne.w	406000 <_malloc_r+0x12c>
  406338:	0040      	lsls	r0, r0, #1
  40633a:	4203      	tst	r3, r0
  40633c:	f10c 0c04 	add.w	ip, ip, #4
  406340:	d0fa      	beq.n	406338 <_malloc_r+0x464>
  406342:	e65d      	b.n	406000 <_malloc_r+0x12c>
  406344:	f5bc 7faa 	cmp.w	ip, #340	; 0x154
  406348:	d819      	bhi.n	40637e <_malloc_r+0x4aa>
  40634a:	ea4f 3cd5 	mov.w	ip, r5, lsr #15
  40634e:	f10c 0c77 	add.w	ip, ip, #119	; 0x77
  406352:	ea4f 014c 	mov.w	r1, ip, lsl #1
  406356:	e605      	b.n	405f64 <_malloc_r+0x90>
  406358:	f44f 5380 	mov.w	r3, #4096	; 0x1000
  40635c:	e6ee      	b.n	40613c <_malloc_r+0x268>
  40635e:	2301      	movs	r3, #1
  406360:	f8c8 3004 	str.w	r3, [r8, #4]
  406364:	4644      	mov	r4, r8
  406366:	2200      	movs	r2, #0
  406368:	e72e      	b.n	4061c8 <_malloc_r+0x2f4>
  40636a:	1092      	asrs	r2, r2, #2
  40636c:	2001      	movs	r0, #1
  40636e:	4090      	lsls	r0, r2
  406370:	f8d8 2004 	ldr.w	r2, [r8, #4]
  406374:	4619      	mov	r1, r3
  406376:	4302      	orrs	r2, r0
  406378:	f8c8 2004 	str.w	r2, [r8, #4]
  40637c:	e775      	b.n	40626a <_malloc_r+0x396>
  40637e:	f240 5354 	movw	r3, #1364	; 0x554
  406382:	459c      	cmp	ip, r3
  406384:	d81b      	bhi.n	4063be <_malloc_r+0x4ea>
  406386:	ea4f 4c95 	mov.w	ip, r5, lsr #18
  40638a:	f10c 0c7c 	add.w	ip, ip, #124	; 0x7c
  40638e:	ea4f 014c 	mov.w	r1, ip, lsl #1
  406392:	e5e7      	b.n	405f64 <_malloc_r+0x90>
  406394:	f10a 0a10 	add.w	sl, sl, #16
  406398:	e6a3      	b.n	4060e2 <_malloc_r+0x20e>
  40639a:	2b54      	cmp	r3, #84	; 0x54
  40639c:	d81f      	bhi.n	4063de <_malloc_r+0x50a>
  40639e:	0b0a      	lsrs	r2, r1, #12
  4063a0:	326e      	adds	r2, #110	; 0x6e
  4063a2:	0050      	lsls	r0, r2, #1
  4063a4:	e74f      	b.n	406246 <_malloc_r+0x372>
  4063a6:	f3cb 010b 	ubfx	r1, fp, #0, #12
  4063aa:	2900      	cmp	r1, #0
  4063ac:	f47f aeb1 	bne.w	406112 <_malloc_r+0x23e>
  4063b0:	eb0a 0109 	add.w	r1, sl, r9
  4063b4:	68ba      	ldr	r2, [r7, #8]
  4063b6:	f041 0101 	orr.w	r1, r1, #1
  4063ba:	6051      	str	r1, [r2, #4]
  4063bc:	e6f6      	b.n	4061ac <_malloc_r+0x2d8>
  4063be:	21fc      	movs	r1, #252	; 0xfc
  4063c0:	f04f 0c7e 	mov.w	ip, #126	; 0x7e
  4063c4:	e5ce      	b.n	405f64 <_malloc_r+0x90>
  4063c6:	2201      	movs	r2, #1
  4063c8:	f04f 0a00 	mov.w	sl, #0
  4063cc:	e6cb      	b.n	406166 <_malloc_r+0x292>
  4063ce:	f104 0108 	add.w	r1, r4, #8
  4063d2:	4630      	mov	r0, r6
  4063d4:	f003 ff7c 	bl	40a2d0 <_free_r>
  4063d8:	f8da 3000 	ldr.w	r3, [sl]
  4063dc:	e6e6      	b.n	4061ac <_malloc_r+0x2d8>
  4063de:	f5b3 7faa 	cmp.w	r3, #340	; 0x154
  4063e2:	d803      	bhi.n	4063ec <_malloc_r+0x518>
  4063e4:	0bca      	lsrs	r2, r1, #15
  4063e6:	3277      	adds	r2, #119	; 0x77
  4063e8:	0050      	lsls	r0, r2, #1
  4063ea:	e72c      	b.n	406246 <_malloc_r+0x372>
  4063ec:	f240 5254 	movw	r2, #1364	; 0x554
  4063f0:	4293      	cmp	r3, r2
  4063f2:	d803      	bhi.n	4063fc <_malloc_r+0x528>
  4063f4:	0c8a      	lsrs	r2, r1, #18
  4063f6:	327c      	adds	r2, #124	; 0x7c
  4063f8:	0050      	lsls	r0, r2, #1
  4063fa:	e724      	b.n	406246 <_malloc_r+0x372>
  4063fc:	20fc      	movs	r0, #252	; 0xfc
  4063fe:	227e      	movs	r2, #126	; 0x7e
  406400:	e721      	b.n	406246 <_malloc_r+0x372>
  406402:	687b      	ldr	r3, [r7, #4]
  406404:	e78d      	b.n	406322 <_malloc_r+0x44e>
  406406:	bf00      	nop
  406408:	2000050c 	.word	0x2000050c

0040640c <memcmp>:
  40640c:	2a03      	cmp	r2, #3
  40640e:	b470      	push	{r4, r5, r6}
  406410:	d928      	bls.n	406464 <memcmp+0x58>
  406412:	ea40 0301 	orr.w	r3, r0, r1
  406416:	079b      	lsls	r3, r3, #30
  406418:	d013      	beq.n	406442 <memcmp+0x36>
  40641a:	7805      	ldrb	r5, [r0, #0]
  40641c:	780c      	ldrb	r4, [r1, #0]
  40641e:	42a5      	cmp	r5, r4
  406420:	d124      	bne.n	40646c <memcmp+0x60>
  406422:	3a01      	subs	r2, #1
  406424:	2300      	movs	r3, #0
  406426:	e005      	b.n	406434 <memcmp+0x28>
  406428:	f810 5f01 	ldrb.w	r5, [r0, #1]!
  40642c:	f811 4f01 	ldrb.w	r4, [r1, #1]!
  406430:	42a5      	cmp	r5, r4
  406432:	d11b      	bne.n	40646c <memcmp+0x60>
  406434:	4293      	cmp	r3, r2
  406436:	f103 0301 	add.w	r3, r3, #1
  40643a:	d1f5      	bne.n	406428 <memcmp+0x1c>
  40643c:	2000      	movs	r0, #0
  40643e:	bc70      	pop	{r4, r5, r6}
  406440:	4770      	bx	lr
  406442:	460c      	mov	r4, r1
  406444:	4603      	mov	r3, r0
  406446:	6825      	ldr	r5, [r4, #0]
  406448:	681e      	ldr	r6, [r3, #0]
  40644a:	4621      	mov	r1, r4
  40644c:	42ae      	cmp	r6, r5
  40644e:	4618      	mov	r0, r3
  406450:	f104 0404 	add.w	r4, r4, #4
  406454:	f103 0304 	add.w	r3, r3, #4
  406458:	d104      	bne.n	406464 <memcmp+0x58>
  40645a:	3a04      	subs	r2, #4
  40645c:	2a03      	cmp	r2, #3
  40645e:	4618      	mov	r0, r3
  406460:	4621      	mov	r1, r4
  406462:	d8f0      	bhi.n	406446 <memcmp+0x3a>
  406464:	2a00      	cmp	r2, #0
  406466:	d1d8      	bne.n	40641a <memcmp+0xe>
  406468:	4610      	mov	r0, r2
  40646a:	e7e8      	b.n	40643e <memcmp+0x32>
  40646c:	1b28      	subs	r0, r5, r4
  40646e:	bc70      	pop	{r4, r5, r6}
  406470:	4770      	bx	lr
  406472:	bf00      	nop

00406474 <memcpy>:
  406474:	4684      	mov	ip, r0
  406476:	ea41 0300 	orr.w	r3, r1, r0
  40647a:	f013 0303 	ands.w	r3, r3, #3
  40647e:	d149      	bne.n	406514 <memcpy+0xa0>
  406480:	3a40      	subs	r2, #64	; 0x40
  406482:	d323      	bcc.n	4064cc <memcpy+0x58>
  406484:	680b      	ldr	r3, [r1, #0]
  406486:	6003      	str	r3, [r0, #0]
  406488:	684b      	ldr	r3, [r1, #4]
  40648a:	6043      	str	r3, [r0, #4]
  40648c:	688b      	ldr	r3, [r1, #8]
  40648e:	6083      	str	r3, [r0, #8]
  406490:	68cb      	ldr	r3, [r1, #12]
  406492:	60c3      	str	r3, [r0, #12]
  406494:	690b      	ldr	r3, [r1, #16]
  406496:	6103      	str	r3, [r0, #16]
  406498:	694b      	ldr	r3, [r1, #20]
  40649a:	6143      	str	r3, [r0, #20]
  40649c:	698b      	ldr	r3, [r1, #24]
  40649e:	6183      	str	r3, [r0, #24]
  4064a0:	69cb      	ldr	r3, [r1, #28]
  4064a2:	61c3      	str	r3, [r0, #28]
  4064a4:	6a0b      	ldr	r3, [r1, #32]
  4064a6:	6203      	str	r3, [r0, #32]
  4064a8:	6a4b      	ldr	r3, [r1, #36]	; 0x24
  4064aa:	6243      	str	r3, [r0, #36]	; 0x24
  4064ac:	6a8b      	ldr	r3, [r1, #40]	; 0x28
  4064ae:	6283      	str	r3, [r0, #40]	; 0x28
  4064b0:	6acb      	ldr	r3, [r1, #44]	; 0x2c
  4064b2:	62c3      	str	r3, [r0, #44]	; 0x2c
  4064b4:	6b0b      	ldr	r3, [r1, #48]	; 0x30
  4064b6:	6303      	str	r3, [r0, #48]	; 0x30
  4064b8:	6b4b      	ldr	r3, [r1, #52]	; 0x34
  4064ba:	6343      	str	r3, [r0, #52]	; 0x34
  4064bc:	6b8b      	ldr	r3, [r1, #56]	; 0x38
  4064be:	6383      	str	r3, [r0, #56]	; 0x38
  4064c0:	6bcb      	ldr	r3, [r1, #60]	; 0x3c
  4064c2:	63c3      	str	r3, [r0, #60]	; 0x3c
  4064c4:	3040      	adds	r0, #64	; 0x40
  4064c6:	3140      	adds	r1, #64	; 0x40
  4064c8:	3a40      	subs	r2, #64	; 0x40
  4064ca:	d2db      	bcs.n	406484 <memcpy+0x10>
  4064cc:	3230      	adds	r2, #48	; 0x30
  4064ce:	d30b      	bcc.n	4064e8 <memcpy+0x74>
  4064d0:	680b      	ldr	r3, [r1, #0]
  4064d2:	6003      	str	r3, [r0, #0]
  4064d4:	684b      	ldr	r3, [r1, #4]
  4064d6:	6043      	str	r3, [r0, #4]
  4064d8:	688b      	ldr	r3, [r1, #8]
  4064da:	6083      	str	r3, [r0, #8]
  4064dc:	68cb      	ldr	r3, [r1, #12]
  4064de:	60c3      	str	r3, [r0, #12]
  4064e0:	3010      	adds	r0, #16
  4064e2:	3110      	adds	r1, #16
  4064e4:	3a10      	subs	r2, #16
  4064e6:	d2f3      	bcs.n	4064d0 <memcpy+0x5c>
  4064e8:	320c      	adds	r2, #12
  4064ea:	d305      	bcc.n	4064f8 <memcpy+0x84>
  4064ec:	f851 3b04 	ldr.w	r3, [r1], #4
  4064f0:	f840 3b04 	str.w	r3, [r0], #4
  4064f4:	3a04      	subs	r2, #4
  4064f6:	d2f9      	bcs.n	4064ec <memcpy+0x78>
  4064f8:	3204      	adds	r2, #4
  4064fa:	d008      	beq.n	40650e <memcpy+0x9a>
  4064fc:	07d2      	lsls	r2, r2, #31
  4064fe:	bf1c      	itt	ne
  406500:	f811 3b01 	ldrbne.w	r3, [r1], #1
  406504:	f800 3b01 	strbne.w	r3, [r0], #1
  406508:	d301      	bcc.n	40650e <memcpy+0x9a>
  40650a:	880b      	ldrh	r3, [r1, #0]
  40650c:	8003      	strh	r3, [r0, #0]
  40650e:	4660      	mov	r0, ip
  406510:	4770      	bx	lr
  406512:	bf00      	nop
  406514:	2a08      	cmp	r2, #8
  406516:	d313      	bcc.n	406540 <memcpy+0xcc>
  406518:	078b      	lsls	r3, r1, #30
  40651a:	d0b1      	beq.n	406480 <memcpy+0xc>
  40651c:	f010 0303 	ands.w	r3, r0, #3
  406520:	d0ae      	beq.n	406480 <memcpy+0xc>
  406522:	f1c3 0304 	rsb	r3, r3, #4
  406526:	1ad2      	subs	r2, r2, r3
  406528:	07db      	lsls	r3, r3, #31
  40652a:	bf1c      	itt	ne
  40652c:	f811 3b01 	ldrbne.w	r3, [r1], #1
  406530:	f800 3b01 	strbne.w	r3, [r0], #1
  406534:	d3a4      	bcc.n	406480 <memcpy+0xc>
  406536:	f831 3b02 	ldrh.w	r3, [r1], #2
  40653a:	f820 3b02 	strh.w	r3, [r0], #2
  40653e:	e79f      	b.n	406480 <memcpy+0xc>
  406540:	3a04      	subs	r2, #4
  406542:	d3d9      	bcc.n	4064f8 <memcpy+0x84>
  406544:	3a01      	subs	r2, #1
  406546:	f811 3b01 	ldrb.w	r3, [r1], #1
  40654a:	f800 3b01 	strb.w	r3, [r0], #1
  40654e:	d2f9      	bcs.n	406544 <memcpy+0xd0>
  406550:	780b      	ldrb	r3, [r1, #0]
  406552:	7003      	strb	r3, [r0, #0]
  406554:	784b      	ldrb	r3, [r1, #1]
  406556:	7043      	strb	r3, [r0, #1]
  406558:	788b      	ldrb	r3, [r1, #2]
  40655a:	7083      	strb	r3, [r0, #2]
  40655c:	4660      	mov	r0, ip
  40655e:	4770      	bx	lr

00406560 <memset>:
  406560:	b4f0      	push	{r4, r5, r6, r7}
  406562:	0784      	lsls	r4, r0, #30
  406564:	d043      	beq.n	4065ee <memset+0x8e>
  406566:	1e54      	subs	r4, r2, #1
  406568:	2a00      	cmp	r2, #0
  40656a:	d03e      	beq.n	4065ea <memset+0x8a>
  40656c:	b2cd      	uxtb	r5, r1
  40656e:	4603      	mov	r3, r0
  406570:	e003      	b.n	40657a <memset+0x1a>
  406572:	1e62      	subs	r2, r4, #1
  406574:	2c00      	cmp	r4, #0
  406576:	d038      	beq.n	4065ea <memset+0x8a>
  406578:	4614      	mov	r4, r2
  40657a:	f803 5b01 	strb.w	r5, [r3], #1
  40657e:	079a      	lsls	r2, r3, #30
  406580:	d1f7      	bne.n	406572 <memset+0x12>
  406582:	2c03      	cmp	r4, #3
  406584:	d92a      	bls.n	4065dc <memset+0x7c>
  406586:	b2cd      	uxtb	r5, r1
  406588:	ea45 2505 	orr.w	r5, r5, r5, lsl #8
  40658c:	2c0f      	cmp	r4, #15
  40658e:	ea45 4505 	orr.w	r5, r5, r5, lsl #16
  406592:	d915      	bls.n	4065c0 <memset+0x60>
  406594:	f1a4 0710 	sub.w	r7, r4, #16
  406598:	093f      	lsrs	r7, r7, #4
  40659a:	f103 0610 	add.w	r6, r3, #16
  40659e:	eb06 1607 	add.w	r6, r6, r7, lsl #4
  4065a2:	461a      	mov	r2, r3
  4065a4:	6015      	str	r5, [r2, #0]
  4065a6:	6055      	str	r5, [r2, #4]
  4065a8:	6095      	str	r5, [r2, #8]
  4065aa:	60d5      	str	r5, [r2, #12]
  4065ac:	3210      	adds	r2, #16
  4065ae:	42b2      	cmp	r2, r6
  4065b0:	d1f8      	bne.n	4065a4 <memset+0x44>
  4065b2:	f004 040f 	and.w	r4, r4, #15
  4065b6:	3701      	adds	r7, #1
  4065b8:	2c03      	cmp	r4, #3
  4065ba:	eb03 1307 	add.w	r3, r3, r7, lsl #4
  4065be:	d90d      	bls.n	4065dc <memset+0x7c>
  4065c0:	461e      	mov	r6, r3
  4065c2:	4622      	mov	r2, r4
  4065c4:	3a04      	subs	r2, #4
  4065c6:	2a03      	cmp	r2, #3
  4065c8:	f846 5b04 	str.w	r5, [r6], #4
  4065cc:	d8fa      	bhi.n	4065c4 <memset+0x64>
  4065ce:	1f22      	subs	r2, r4, #4
  4065d0:	f022 0203 	bic.w	r2, r2, #3
  4065d4:	3204      	adds	r2, #4
  4065d6:	4413      	add	r3, r2
  4065d8:	f004 0403 	and.w	r4, r4, #3
  4065dc:	b12c      	cbz	r4, 4065ea <memset+0x8a>
  4065de:	b2c9      	uxtb	r1, r1
  4065e0:	441c      	add	r4, r3
  4065e2:	f803 1b01 	strb.w	r1, [r3], #1
  4065e6:	42a3      	cmp	r3, r4
  4065e8:	d1fb      	bne.n	4065e2 <memset+0x82>
  4065ea:	bcf0      	pop	{r4, r5, r6, r7}
  4065ec:	4770      	bx	lr
  4065ee:	4614      	mov	r4, r2
  4065f0:	4603      	mov	r3, r0
  4065f2:	e7c6      	b.n	406582 <memset+0x22>

004065f4 <__malloc_lock>:
  4065f4:	4770      	bx	lr
  4065f6:	bf00      	nop

004065f8 <__malloc_unlock>:
  4065f8:	4770      	bx	lr
  4065fa:	bf00      	nop

004065fc <_realloc_r>:
  4065fc:	e92d 4ff0 	stmdb	sp!, {r4, r5, r6, r7, r8, r9, sl, fp, lr}
  406600:	460c      	mov	r4, r1
  406602:	b083      	sub	sp, #12
  406604:	4690      	mov	r8, r2
  406606:	4681      	mov	r9, r0
  406608:	2900      	cmp	r1, #0
  40660a:	f000 80ba 	beq.w	406782 <_realloc_r+0x186>
  40660e:	f7ff fff1 	bl	4065f4 <__malloc_lock>
  406612:	f108 060b 	add.w	r6, r8, #11
  406616:	f854 3c04 	ldr.w	r3, [r4, #-4]
  40661a:	2e16      	cmp	r6, #22
  40661c:	f023 0503 	bic.w	r5, r3, #3
  406620:	f1a4 0708 	sub.w	r7, r4, #8
  406624:	d84b      	bhi.n	4066be <_realloc_r+0xc2>
  406626:	2110      	movs	r1, #16
  406628:	460e      	mov	r6, r1
  40662a:	45b0      	cmp	r8, r6
  40662c:	d84c      	bhi.n	4066c8 <_realloc_r+0xcc>
  40662e:	428d      	cmp	r5, r1
  406630:	da51      	bge.n	4066d6 <_realloc_r+0xda>
  406632:	f8df b384 	ldr.w	fp, [pc, #900]	; 4069b8 <_realloc_r+0x3bc>
  406636:	1978      	adds	r0, r7, r5
  406638:	f8db e008 	ldr.w	lr, [fp, #8]
  40663c:	4586      	cmp	lr, r0
  40663e:	f000 80a6 	beq.w	40678e <_realloc_r+0x192>
  406642:	6842      	ldr	r2, [r0, #4]
  406644:	f022 0c01 	bic.w	ip, r2, #1
  406648:	4484      	add	ip, r0
  40664a:	f8dc c004 	ldr.w	ip, [ip, #4]
  40664e:	f01c 0f01 	tst.w	ip, #1
  406652:	d054      	beq.n	4066fe <_realloc_r+0x102>
  406654:	2200      	movs	r2, #0
  406656:	4610      	mov	r0, r2
  406658:	07db      	lsls	r3, r3, #31
  40665a:	d46f      	bmi.n	40673c <_realloc_r+0x140>
  40665c:	f854 3c08 	ldr.w	r3, [r4, #-8]
  406660:	ebc3 0a07 	rsb	sl, r3, r7
  406664:	f8da 3004 	ldr.w	r3, [sl, #4]
  406668:	f023 0303 	bic.w	r3, r3, #3
  40666c:	442b      	add	r3, r5
  40666e:	2800      	cmp	r0, #0
  406670:	d062      	beq.n	406738 <_realloc_r+0x13c>
  406672:	4570      	cmp	r0, lr
  406674:	f000 80e9 	beq.w	40684a <_realloc_r+0x24e>
  406678:	eb02 0e03 	add.w	lr, r2, r3
  40667c:	458e      	cmp	lr, r1
  40667e:	db5b      	blt.n	406738 <_realloc_r+0x13c>
  406680:	68c3      	ldr	r3, [r0, #12]
  406682:	6882      	ldr	r2, [r0, #8]
  406684:	46d0      	mov	r8, sl
  406686:	60d3      	str	r3, [r2, #12]
  406688:	609a      	str	r2, [r3, #8]
  40668a:	f858 1f08 	ldr.w	r1, [r8, #8]!
  40668e:	f8da 300c 	ldr.w	r3, [sl, #12]
  406692:	1f2a      	subs	r2, r5, #4
  406694:	2a24      	cmp	r2, #36	; 0x24
  406696:	60cb      	str	r3, [r1, #12]
  406698:	6099      	str	r1, [r3, #8]
  40669a:	f200 8123 	bhi.w	4068e4 <_realloc_r+0x2e8>
  40669e:	2a13      	cmp	r2, #19
  4066a0:	f240 80b0 	bls.w	406804 <_realloc_r+0x208>
  4066a4:	6823      	ldr	r3, [r4, #0]
  4066a6:	2a1b      	cmp	r2, #27
  4066a8:	f8ca 3008 	str.w	r3, [sl, #8]
  4066ac:	6863      	ldr	r3, [r4, #4]
  4066ae:	f8ca 300c 	str.w	r3, [sl, #12]
  4066b2:	f200 812b 	bhi.w	40690c <_realloc_r+0x310>
  4066b6:	3408      	adds	r4, #8
  4066b8:	f10a 0310 	add.w	r3, sl, #16
  4066bc:	e0a3      	b.n	406806 <_realloc_r+0x20a>
  4066be:	f026 0607 	bic.w	r6, r6, #7
  4066c2:	2e00      	cmp	r6, #0
  4066c4:	4631      	mov	r1, r6
  4066c6:	dab0      	bge.n	40662a <_realloc_r+0x2e>
  4066c8:	230c      	movs	r3, #12
  4066ca:	2000      	movs	r0, #0
  4066cc:	f8c9 3000 	str.w	r3, [r9]
  4066d0:	b003      	add	sp, #12
  4066d2:	e8bd 8ff0 	ldmia.w	sp!, {r4, r5, r6, r7, r8, r9, sl, fp, pc}
  4066d6:	46a0      	mov	r8, r4
  4066d8:	1baa      	subs	r2, r5, r6
  4066da:	2a0f      	cmp	r2, #15
  4066dc:	f003 0301 	and.w	r3, r3, #1
  4066e0:	d81a      	bhi.n	406718 <_realloc_r+0x11c>
  4066e2:	432b      	orrs	r3, r5
  4066e4:	607b      	str	r3, [r7, #4]
  4066e6:	443d      	add	r5, r7
  4066e8:	686b      	ldr	r3, [r5, #4]
  4066ea:	f043 0301 	orr.w	r3, r3, #1
  4066ee:	606b      	str	r3, [r5, #4]
  4066f0:	4648      	mov	r0, r9
  4066f2:	f7ff ff81 	bl	4065f8 <__malloc_unlock>
  4066f6:	4640      	mov	r0, r8
  4066f8:	b003      	add	sp, #12
  4066fa:	e8bd 8ff0 	ldmia.w	sp!, {r4, r5, r6, r7, r8, r9, sl, fp, pc}
  4066fe:	f022 0203 	bic.w	r2, r2, #3
  406702:	eb02 0c05 	add.w	ip, r2, r5
  406706:	458c      	cmp	ip, r1
  406708:	dba6      	blt.n	406658 <_realloc_r+0x5c>
  40670a:	68c2      	ldr	r2, [r0, #12]
  40670c:	6881      	ldr	r1, [r0, #8]
  40670e:	46a0      	mov	r8, r4
  406710:	60ca      	str	r2, [r1, #12]
  406712:	4665      	mov	r5, ip
  406714:	6091      	str	r1, [r2, #8]
  406716:	e7df      	b.n	4066d8 <_realloc_r+0xdc>
  406718:	19b9      	adds	r1, r7, r6
  40671a:	4333      	orrs	r3, r6
  40671c:	f042 0001 	orr.w	r0, r2, #1
  406720:	607b      	str	r3, [r7, #4]
  406722:	440a      	add	r2, r1
  406724:	6048      	str	r0, [r1, #4]
  406726:	6853      	ldr	r3, [r2, #4]
  406728:	3108      	adds	r1, #8
  40672a:	f043 0301 	orr.w	r3, r3, #1
  40672e:	6053      	str	r3, [r2, #4]
  406730:	4648      	mov	r0, r9
  406732:	f003 fdcd 	bl	40a2d0 <_free_r>
  406736:	e7db      	b.n	4066f0 <_realloc_r+0xf4>
  406738:	428b      	cmp	r3, r1
  40673a:	da33      	bge.n	4067a4 <_realloc_r+0x1a8>
  40673c:	4641      	mov	r1, r8
  40673e:	4648      	mov	r0, r9
  406740:	f7ff fbc8 	bl	405ed4 <_malloc_r>
  406744:	4680      	mov	r8, r0
  406746:	2800      	cmp	r0, #0
  406748:	d0d2      	beq.n	4066f0 <_realloc_r+0xf4>
  40674a:	f854 3c04 	ldr.w	r3, [r4, #-4]
  40674e:	f1a0 0108 	sub.w	r1, r0, #8
  406752:	f023 0201 	bic.w	r2, r3, #1
  406756:	443a      	add	r2, r7
  406758:	4291      	cmp	r1, r2
  40675a:	f000 80bc 	beq.w	4068d6 <_realloc_r+0x2da>
  40675e:	1f2a      	subs	r2, r5, #4
  406760:	2a24      	cmp	r2, #36	; 0x24
  406762:	d86e      	bhi.n	406842 <_realloc_r+0x246>
  406764:	2a13      	cmp	r2, #19
  406766:	d842      	bhi.n	4067ee <_realloc_r+0x1f2>
  406768:	4603      	mov	r3, r0
  40676a:	4622      	mov	r2, r4
  40676c:	6811      	ldr	r1, [r2, #0]
  40676e:	6019      	str	r1, [r3, #0]
  406770:	6851      	ldr	r1, [r2, #4]
  406772:	6059      	str	r1, [r3, #4]
  406774:	6892      	ldr	r2, [r2, #8]
  406776:	609a      	str	r2, [r3, #8]
  406778:	4621      	mov	r1, r4
  40677a:	4648      	mov	r0, r9
  40677c:	f003 fda8 	bl	40a2d0 <_free_r>
  406780:	e7b6      	b.n	4066f0 <_realloc_r+0xf4>
  406782:	4611      	mov	r1, r2
  406784:	b003      	add	sp, #12
  406786:	e8bd 4ff0 	ldmia.w	sp!, {r4, r5, r6, r7, r8, r9, sl, fp, lr}
  40678a:	f7ff bba3 	b.w	405ed4 <_malloc_r>
  40678e:	f8de 2004 	ldr.w	r2, [lr, #4]
  406792:	f106 0c10 	add.w	ip, r6, #16
  406796:	f022 0203 	bic.w	r2, r2, #3
  40679a:	1950      	adds	r0, r2, r5
  40679c:	4560      	cmp	r0, ip
  40679e:	da3d      	bge.n	40681c <_realloc_r+0x220>
  4067a0:	4670      	mov	r0, lr
  4067a2:	e759      	b.n	406658 <_realloc_r+0x5c>
  4067a4:	46d0      	mov	r8, sl
  4067a6:	f858 0f08 	ldr.w	r0, [r8, #8]!
  4067aa:	f8da 100c 	ldr.w	r1, [sl, #12]
  4067ae:	1f2a      	subs	r2, r5, #4
  4067b0:	2a24      	cmp	r2, #36	; 0x24
  4067b2:	60c1      	str	r1, [r0, #12]
  4067b4:	6088      	str	r0, [r1, #8]
  4067b6:	f200 80a0 	bhi.w	4068fa <_realloc_r+0x2fe>
  4067ba:	2a13      	cmp	r2, #19
  4067bc:	f240 809b 	bls.w	4068f6 <_realloc_r+0x2fa>
  4067c0:	6821      	ldr	r1, [r4, #0]
  4067c2:	2a1b      	cmp	r2, #27
  4067c4:	f8ca 1008 	str.w	r1, [sl, #8]
  4067c8:	6861      	ldr	r1, [r4, #4]
  4067ca:	f8ca 100c 	str.w	r1, [sl, #12]
  4067ce:	f200 80b2 	bhi.w	406936 <_realloc_r+0x33a>
  4067d2:	3408      	adds	r4, #8
  4067d4:	f10a 0210 	add.w	r2, sl, #16
  4067d8:	6821      	ldr	r1, [r4, #0]
  4067da:	461d      	mov	r5, r3
  4067dc:	6011      	str	r1, [r2, #0]
  4067de:	6861      	ldr	r1, [r4, #4]
  4067e0:	4657      	mov	r7, sl
  4067e2:	6051      	str	r1, [r2, #4]
  4067e4:	68a3      	ldr	r3, [r4, #8]
  4067e6:	6093      	str	r3, [r2, #8]
  4067e8:	f8da 3004 	ldr.w	r3, [sl, #4]
  4067ec:	e774      	b.n	4066d8 <_realloc_r+0xdc>
  4067ee:	6823      	ldr	r3, [r4, #0]
  4067f0:	2a1b      	cmp	r2, #27
  4067f2:	6003      	str	r3, [r0, #0]
  4067f4:	6863      	ldr	r3, [r4, #4]
  4067f6:	6043      	str	r3, [r0, #4]
  4067f8:	d862      	bhi.n	4068c0 <_realloc_r+0x2c4>
  4067fa:	f100 0308 	add.w	r3, r0, #8
  4067fe:	f104 0208 	add.w	r2, r4, #8
  406802:	e7b3      	b.n	40676c <_realloc_r+0x170>
  406804:	4643      	mov	r3, r8
  406806:	6822      	ldr	r2, [r4, #0]
  406808:	4675      	mov	r5, lr
  40680a:	601a      	str	r2, [r3, #0]
  40680c:	6862      	ldr	r2, [r4, #4]
  40680e:	4657      	mov	r7, sl
  406810:	605a      	str	r2, [r3, #4]
  406812:	68a2      	ldr	r2, [r4, #8]
  406814:	609a      	str	r2, [r3, #8]
  406816:	f8da 3004 	ldr.w	r3, [sl, #4]
  40681a:	e75d      	b.n	4066d8 <_realloc_r+0xdc>
  40681c:	1b83      	subs	r3, r0, r6
  40681e:	4437      	add	r7, r6
  406820:	f043 0301 	orr.w	r3, r3, #1
  406824:	f8cb 7008 	str.w	r7, [fp, #8]
  406828:	607b      	str	r3, [r7, #4]
  40682a:	f854 3c04 	ldr.w	r3, [r4, #-4]
  40682e:	4648      	mov	r0, r9
  406830:	f003 0301 	and.w	r3, r3, #1
  406834:	431e      	orrs	r6, r3
  406836:	f844 6c04 	str.w	r6, [r4, #-4]
  40683a:	f7ff fedd 	bl	4065f8 <__malloc_unlock>
  40683e:	4620      	mov	r0, r4
  406840:	e75a      	b.n	4066f8 <_realloc_r+0xfc>
  406842:	4621      	mov	r1, r4
  406844:	f004 f888 	bl	40a958 <memmove>
  406848:	e796      	b.n	406778 <_realloc_r+0x17c>
  40684a:	eb02 0c03 	add.w	ip, r2, r3
  40684e:	f106 0210 	add.w	r2, r6, #16
  406852:	4594      	cmp	ip, r2
  406854:	f6ff af70 	blt.w	406738 <_realloc_r+0x13c>
  406858:	4657      	mov	r7, sl
  40685a:	f857 1f08 	ldr.w	r1, [r7, #8]!
  40685e:	f8da 300c 	ldr.w	r3, [sl, #12]
  406862:	1f2a      	subs	r2, r5, #4
  406864:	2a24      	cmp	r2, #36	; 0x24
  406866:	60cb      	str	r3, [r1, #12]
  406868:	6099      	str	r1, [r3, #8]
  40686a:	f200 8086 	bhi.w	40697a <_realloc_r+0x37e>
  40686e:	2a13      	cmp	r2, #19
  406870:	d977      	bls.n	406962 <_realloc_r+0x366>
  406872:	6823      	ldr	r3, [r4, #0]
  406874:	2a1b      	cmp	r2, #27
  406876:	f8ca 3008 	str.w	r3, [sl, #8]
  40687a:	6863      	ldr	r3, [r4, #4]
  40687c:	f8ca 300c 	str.w	r3, [sl, #12]
  406880:	f200 8084 	bhi.w	40698c <_realloc_r+0x390>
  406884:	3408      	adds	r4, #8
  406886:	f10a 0310 	add.w	r3, sl, #16
  40688a:	6822      	ldr	r2, [r4, #0]
  40688c:	601a      	str	r2, [r3, #0]
  40688e:	6862      	ldr	r2, [r4, #4]
  406890:	605a      	str	r2, [r3, #4]
  406892:	68a2      	ldr	r2, [r4, #8]
  406894:	609a      	str	r2, [r3, #8]
  406896:	ebc6 020c 	rsb	r2, r6, ip
  40689a:	eb0a 0306 	add.w	r3, sl, r6
  40689e:	f042 0201 	orr.w	r2, r2, #1
  4068a2:	f8cb 3008 	str.w	r3, [fp, #8]
  4068a6:	605a      	str	r2, [r3, #4]
  4068a8:	f8da 3004 	ldr.w	r3, [sl, #4]
  4068ac:	4648      	mov	r0, r9
  4068ae:	f003 0301 	and.w	r3, r3, #1
  4068b2:	431e      	orrs	r6, r3
  4068b4:	f8ca 6004 	str.w	r6, [sl, #4]
  4068b8:	f7ff fe9e 	bl	4065f8 <__malloc_unlock>
  4068bc:	4638      	mov	r0, r7
  4068be:	e71b      	b.n	4066f8 <_realloc_r+0xfc>
  4068c0:	68a3      	ldr	r3, [r4, #8]
  4068c2:	2a24      	cmp	r2, #36	; 0x24
  4068c4:	6083      	str	r3, [r0, #8]
  4068c6:	68e3      	ldr	r3, [r4, #12]
  4068c8:	60c3      	str	r3, [r0, #12]
  4068ca:	d02b      	beq.n	406924 <_realloc_r+0x328>
  4068cc:	f100 0310 	add.w	r3, r0, #16
  4068d0:	f104 0210 	add.w	r2, r4, #16
  4068d4:	e74a      	b.n	40676c <_realloc_r+0x170>
  4068d6:	f850 2c04 	ldr.w	r2, [r0, #-4]
  4068da:	46a0      	mov	r8, r4
  4068dc:	f022 0203 	bic.w	r2, r2, #3
  4068e0:	4415      	add	r5, r2
  4068e2:	e6f9      	b.n	4066d8 <_realloc_r+0xdc>
  4068e4:	4621      	mov	r1, r4
  4068e6:	4640      	mov	r0, r8
  4068e8:	4675      	mov	r5, lr
  4068ea:	4657      	mov	r7, sl
  4068ec:	f004 f834 	bl	40a958 <memmove>
  4068f0:	f8da 3004 	ldr.w	r3, [sl, #4]
  4068f4:	e6f0      	b.n	4066d8 <_realloc_r+0xdc>
  4068f6:	4642      	mov	r2, r8
  4068f8:	e76e      	b.n	4067d8 <_realloc_r+0x1dc>
  4068fa:	4621      	mov	r1, r4
  4068fc:	4640      	mov	r0, r8
  4068fe:	461d      	mov	r5, r3
  406900:	4657      	mov	r7, sl
  406902:	f004 f829 	bl	40a958 <memmove>
  406906:	f8da 3004 	ldr.w	r3, [sl, #4]
  40690a:	e6e5      	b.n	4066d8 <_realloc_r+0xdc>
  40690c:	68a3      	ldr	r3, [r4, #8]
  40690e:	2a24      	cmp	r2, #36	; 0x24
  406910:	f8ca 3010 	str.w	r3, [sl, #16]
  406914:	68e3      	ldr	r3, [r4, #12]
  406916:	f8ca 3014 	str.w	r3, [sl, #20]
  40691a:	d018      	beq.n	40694e <_realloc_r+0x352>
  40691c:	3410      	adds	r4, #16
  40691e:	f10a 0318 	add.w	r3, sl, #24
  406922:	e770      	b.n	406806 <_realloc_r+0x20a>
  406924:	6922      	ldr	r2, [r4, #16]
  406926:	f100 0318 	add.w	r3, r0, #24
  40692a:	6102      	str	r2, [r0, #16]
  40692c:	6961      	ldr	r1, [r4, #20]
  40692e:	f104 0218 	add.w	r2, r4, #24
  406932:	6141      	str	r1, [r0, #20]
  406934:	e71a      	b.n	40676c <_realloc_r+0x170>
  406936:	68a1      	ldr	r1, [r4, #8]
  406938:	2a24      	cmp	r2, #36	; 0x24
  40693a:	f8ca 1010 	str.w	r1, [sl, #16]
  40693e:	68e1      	ldr	r1, [r4, #12]
  406940:	f8ca 1014 	str.w	r1, [sl, #20]
  406944:	d00f      	beq.n	406966 <_realloc_r+0x36a>
  406946:	3410      	adds	r4, #16
  406948:	f10a 0218 	add.w	r2, sl, #24
  40694c:	e744      	b.n	4067d8 <_realloc_r+0x1dc>
  40694e:	6922      	ldr	r2, [r4, #16]
  406950:	f10a 0320 	add.w	r3, sl, #32
  406954:	f8ca 2018 	str.w	r2, [sl, #24]
  406958:	6962      	ldr	r2, [r4, #20]
  40695a:	3418      	adds	r4, #24
  40695c:	f8ca 201c 	str.w	r2, [sl, #28]
  406960:	e751      	b.n	406806 <_realloc_r+0x20a>
  406962:	463b      	mov	r3, r7
  406964:	e791      	b.n	40688a <_realloc_r+0x28e>
  406966:	6921      	ldr	r1, [r4, #16]
  406968:	f10a 0220 	add.w	r2, sl, #32
  40696c:	f8ca 1018 	str.w	r1, [sl, #24]
  406970:	6961      	ldr	r1, [r4, #20]
  406972:	3418      	adds	r4, #24
  406974:	f8ca 101c 	str.w	r1, [sl, #28]
  406978:	e72e      	b.n	4067d8 <_realloc_r+0x1dc>
  40697a:	4621      	mov	r1, r4
  40697c:	4638      	mov	r0, r7
  40697e:	f8cd c004 	str.w	ip, [sp, #4]
  406982:	f003 ffe9 	bl	40a958 <memmove>
  406986:	f8dd c004 	ldr.w	ip, [sp, #4]
  40698a:	e784      	b.n	406896 <_realloc_r+0x29a>
  40698c:	68a3      	ldr	r3, [r4, #8]
  40698e:	2a24      	cmp	r2, #36	; 0x24
  406990:	f8ca 3010 	str.w	r3, [sl, #16]
  406994:	68e3      	ldr	r3, [r4, #12]
  406996:	f8ca 3014 	str.w	r3, [sl, #20]
  40699a:	d003      	beq.n	4069a4 <_realloc_r+0x3a8>
  40699c:	3410      	adds	r4, #16
  40699e:	f10a 0318 	add.w	r3, sl, #24
  4069a2:	e772      	b.n	40688a <_realloc_r+0x28e>
  4069a4:	6922      	ldr	r2, [r4, #16]
  4069a6:	f10a 0320 	add.w	r3, sl, #32
  4069aa:	f8ca 2018 	str.w	r2, [sl, #24]
  4069ae:	6962      	ldr	r2, [r4, #20]
  4069b0:	3418      	adds	r4, #24
  4069b2:	f8ca 201c 	str.w	r2, [sl, #28]
  4069b6:	e768      	b.n	40688a <_realloc_r+0x28e>
  4069b8:	2000050c 	.word	0x2000050c

004069bc <_sbrk_r>:
  4069bc:	b538      	push	{r3, r4, r5, lr}
  4069be:	4c07      	ldr	r4, [pc, #28]	; (4069dc <_sbrk_r+0x20>)
  4069c0:	2300      	movs	r3, #0
  4069c2:	4605      	mov	r5, r0
  4069c4:	4608      	mov	r0, r1
  4069c6:	6023      	str	r3, [r4, #0]
  4069c8:	f7fb fca2 	bl	402310 <_sbrk>
  4069cc:	1c43      	adds	r3, r0, #1
  4069ce:	d000      	beq.n	4069d2 <_sbrk_r+0x16>
  4069d0:	bd38      	pop	{r3, r4, r5, pc}
  4069d2:	6823      	ldr	r3, [r4, #0]
  4069d4:	2b00      	cmp	r3, #0
  4069d6:	d0fb      	beq.n	4069d0 <_sbrk_r+0x14>
  4069d8:	602b      	str	r3, [r5, #0]
  4069da:	bd38      	pop	{r3, r4, r5, pc}
  4069dc:	20003f20 	.word	0x20003f20

004069e0 <setbuf>:
  4069e0:	2900      	cmp	r1, #0
  4069e2:	bf0c      	ite	eq
  4069e4:	2202      	moveq	r2, #2
  4069e6:	2200      	movne	r2, #0
  4069e8:	f44f 6380 	mov.w	r3, #1024	; 0x400
  4069ec:	f000 b800 	b.w	4069f0 <setvbuf>

004069f0 <setvbuf>:
  4069f0:	e92d 41f0 	stmdb	sp!, {r4, r5, r6, r7, r8, lr}
  4069f4:	4d3c      	ldr	r5, [pc, #240]	; (406ae8 <setvbuf+0xf8>)
  4069f6:	4604      	mov	r4, r0
  4069f8:	682d      	ldr	r5, [r5, #0]
  4069fa:	4688      	mov	r8, r1
  4069fc:	4616      	mov	r6, r2
  4069fe:	461f      	mov	r7, r3
  406a00:	b115      	cbz	r5, 406a08 <setvbuf+0x18>
  406a02:	6bab      	ldr	r3, [r5, #56]	; 0x38
  406a04:	2b00      	cmp	r3, #0
  406a06:	d04f      	beq.n	406aa8 <setvbuf+0xb8>
  406a08:	2e02      	cmp	r6, #2
  406a0a:	d830      	bhi.n	406a6e <setvbuf+0x7e>
  406a0c:	2f00      	cmp	r7, #0
  406a0e:	db2e      	blt.n	406a6e <setvbuf+0x7e>
  406a10:	4628      	mov	r0, r5
  406a12:	4621      	mov	r1, r4
  406a14:	f003 fafc 	bl	40a010 <_fflush_r>
  406a18:	89a3      	ldrh	r3, [r4, #12]
  406a1a:	2200      	movs	r2, #0
  406a1c:	6062      	str	r2, [r4, #4]
  406a1e:	61a2      	str	r2, [r4, #24]
  406a20:	061a      	lsls	r2, r3, #24
  406a22:	d428      	bmi.n	406a76 <setvbuf+0x86>
  406a24:	f023 0383 	bic.w	r3, r3, #131	; 0x83
  406a28:	b29b      	uxth	r3, r3
  406a2a:	2e02      	cmp	r6, #2
  406a2c:	81a3      	strh	r3, [r4, #12]
  406a2e:	d02d      	beq.n	406a8c <setvbuf+0x9c>
  406a30:	f1b8 0f00 	cmp.w	r8, #0
  406a34:	d03c      	beq.n	406ab0 <setvbuf+0xc0>
  406a36:	2e01      	cmp	r6, #1
  406a38:	d013      	beq.n	406a62 <setvbuf+0x72>
  406a3a:	b29b      	uxth	r3, r3
  406a3c:	f003 0008 	and.w	r0, r3, #8
  406a40:	4a2a      	ldr	r2, [pc, #168]	; (406aec <setvbuf+0xfc>)
  406a42:	b280      	uxth	r0, r0
  406a44:	63ea      	str	r2, [r5, #60]	; 0x3c
  406a46:	f8c4 8000 	str.w	r8, [r4]
  406a4a:	f8c4 8010 	str.w	r8, [r4, #16]
  406a4e:	6167      	str	r7, [r4, #20]
  406a50:	b178      	cbz	r0, 406a72 <setvbuf+0x82>
  406a52:	f013 0f03 	tst.w	r3, #3
  406a56:	bf18      	it	ne
  406a58:	2700      	movne	r7, #0
  406a5a:	60a7      	str	r7, [r4, #8]
  406a5c:	2000      	movs	r0, #0
  406a5e:	e8bd 81f0 	ldmia.w	sp!, {r4, r5, r6, r7, r8, pc}
  406a62:	f043 0301 	orr.w	r3, r3, #1
  406a66:	427a      	negs	r2, r7
  406a68:	81a3      	strh	r3, [r4, #12]
  406a6a:	61a2      	str	r2, [r4, #24]
  406a6c:	e7e5      	b.n	406a3a <setvbuf+0x4a>
  406a6e:	f04f 30ff 	mov.w	r0, #4294967295
  406a72:	e8bd 81f0 	ldmia.w	sp!, {r4, r5, r6, r7, r8, pc}
  406a76:	4628      	mov	r0, r5
  406a78:	6921      	ldr	r1, [r4, #16]
  406a7a:	f003 fc29 	bl	40a2d0 <_free_r>
  406a7e:	89a3      	ldrh	r3, [r4, #12]
  406a80:	2e02      	cmp	r6, #2
  406a82:	f023 0383 	bic.w	r3, r3, #131	; 0x83
  406a86:	b29b      	uxth	r3, r3
  406a88:	81a3      	strh	r3, [r4, #12]
  406a8a:	d1d1      	bne.n	406a30 <setvbuf+0x40>
  406a8c:	2000      	movs	r0, #0
  406a8e:	f104 0243 	add.w	r2, r4, #67	; 0x43
  406a92:	f043 0302 	orr.w	r3, r3, #2
  406a96:	2500      	movs	r5, #0
  406a98:	2101      	movs	r1, #1
  406a9a:	81a3      	strh	r3, [r4, #12]
  406a9c:	60a5      	str	r5, [r4, #8]
  406a9e:	6022      	str	r2, [r4, #0]
  406aa0:	6122      	str	r2, [r4, #16]
  406aa2:	6161      	str	r1, [r4, #20]
  406aa4:	e8bd 81f0 	ldmia.w	sp!, {r4, r5, r6, r7, r8, pc}
  406aa8:	4628      	mov	r0, r5
  406aaa:	f003 facd 	bl	40a048 <__sinit>
  406aae:	e7ab      	b.n	406a08 <setvbuf+0x18>
  406ab0:	2f00      	cmp	r7, #0
  406ab2:	bf08      	it	eq
  406ab4:	f44f 6780 	moveq.w	r7, #1024	; 0x400
  406ab8:	4638      	mov	r0, r7
  406aba:	f7ff fa03 	bl	405ec4 <malloc>
  406abe:	4680      	mov	r8, r0
  406ac0:	b128      	cbz	r0, 406ace <setvbuf+0xde>
  406ac2:	89a3      	ldrh	r3, [r4, #12]
  406ac4:	f043 0380 	orr.w	r3, r3, #128	; 0x80
  406ac8:	b29b      	uxth	r3, r3
  406aca:	81a3      	strh	r3, [r4, #12]
  406acc:	e7b3      	b.n	406a36 <setvbuf+0x46>
  406ace:	f44f 6080 	mov.w	r0, #1024	; 0x400
  406ad2:	f7ff f9f7 	bl	405ec4 <malloc>
  406ad6:	4680      	mov	r8, r0
  406ad8:	b918      	cbnz	r0, 406ae2 <setvbuf+0xf2>
  406ada:	89a3      	ldrh	r3, [r4, #12]
  406adc:	f04f 30ff 	mov.w	r0, #4294967295
  406ae0:	e7d5      	b.n	406a8e <setvbuf+0x9e>
  406ae2:	f44f 6780 	mov.w	r7, #1024	; 0x400
  406ae6:	e7ec      	b.n	406ac2 <setvbuf+0xd2>
  406ae8:	20000508 	.word	0x20000508
  406aec:	0040a03d 	.word	0x0040a03d

00406af0 <sprintf>:
  406af0:	b40e      	push	{r1, r2, r3}
  406af2:	b5f0      	push	{r4, r5, r6, r7, lr}
  406af4:	b09c      	sub	sp, #112	; 0x70
  406af6:	ac21      	add	r4, sp, #132	; 0x84
  406af8:	f854 2b04 	ldr.w	r2, [r4], #4
  406afc:	490e      	ldr	r1, [pc, #56]	; (406b38 <sprintf+0x48>)
  406afe:	4606      	mov	r6, r0
  406b00:	4623      	mov	r3, r4
  406b02:	f44f 7e02 	mov.w	lr, #520	; 0x208
  406b06:	f06f 4500 	mvn.w	r5, #2147483648	; 0x80000000
  406b0a:	6808      	ldr	r0, [r1, #0]
  406b0c:	f64f 77ff 	movw	r7, #65535	; 0xffff
  406b10:	a902      	add	r1, sp, #8
  406b12:	9602      	str	r6, [sp, #8]
  406b14:	9606      	str	r6, [sp, #24]
  406b16:	9401      	str	r4, [sp, #4]
  406b18:	f8ad e014 	strh.w	lr, [sp, #20]
  406b1c:	9504      	str	r5, [sp, #16]
  406b1e:	9507      	str	r5, [sp, #28]
  406b20:	f8ad 7016 	strh.w	r7, [sp, #22]
  406b24:	f000 f86c 	bl	406c00 <_svfprintf_r>
  406b28:	9b02      	ldr	r3, [sp, #8]
  406b2a:	2200      	movs	r2, #0
  406b2c:	701a      	strb	r2, [r3, #0]
  406b2e:	b01c      	add	sp, #112	; 0x70
  406b30:	e8bd 40f0 	ldmia.w	sp!, {r4, r5, r6, r7, lr}
  406b34:	b003      	add	sp, #12
  406b36:	4770      	bx	lr
  406b38:	20000508 	.word	0x20000508

00406b3c <strlen>:
  406b3c:	f020 0103 	bic.w	r1, r0, #3
  406b40:	f010 0003 	ands.w	r0, r0, #3
  406b44:	f1c0 0000 	rsb	r0, r0, #0
  406b48:	f851 3b04 	ldr.w	r3, [r1], #4
  406b4c:	f100 0c04 	add.w	ip, r0, #4
  406b50:	ea4f 0ccc 	mov.w	ip, ip, lsl #3
  406b54:	f06f 0200 	mvn.w	r2, #0
  406b58:	bf1c      	itt	ne
  406b5a:	fa22 f20c 	lsrne.w	r2, r2, ip
  406b5e:	4313      	orrne	r3, r2
  406b60:	f04f 0c01 	mov.w	ip, #1
  406b64:	ea4c 2c0c 	orr.w	ip, ip, ip, lsl #8
  406b68:	ea4c 4c0c 	orr.w	ip, ip, ip, lsl #16
  406b6c:	eba3 020c 	sub.w	r2, r3, ip
  406b70:	ea22 0203 	bic.w	r2, r2, r3
  406b74:	ea12 12cc 	ands.w	r2, r2, ip, lsl #7
  406b78:	bf04      	itt	eq
  406b7a:	f851 3b04 	ldreq.w	r3, [r1], #4
  406b7e:	3004      	addeq	r0, #4
  406b80:	d0f4      	beq.n	406b6c <strlen+0x30>
  406b82:	f013 0fff 	tst.w	r3, #255	; 0xff
  406b86:	bf1f      	itttt	ne
  406b88:	3001      	addne	r0, #1
  406b8a:	f413 4f7f 	tstne.w	r3, #65280	; 0xff00
  406b8e:	3001      	addne	r0, #1
  406b90:	f413 0f7f 	tstne.w	r3, #16711680	; 0xff0000
  406b94:	bf18      	it	ne
  406b96:	3001      	addne	r0, #1
  406b98:	4770      	bx	lr
  406b9a:	bf00      	nop

00406b9c <strncpy>:
  406b9c:	ea40 0301 	orr.w	r3, r0, r1
  406ba0:	079b      	lsls	r3, r3, #30
  406ba2:	b470      	push	{r4, r5, r6}
  406ba4:	d12a      	bne.n	406bfc <strncpy+0x60>
  406ba6:	2a03      	cmp	r2, #3
  406ba8:	d928      	bls.n	406bfc <strncpy+0x60>
  406baa:	460c      	mov	r4, r1
  406bac:	4603      	mov	r3, r0
  406bae:	4621      	mov	r1, r4
  406bb0:	f854 5b04 	ldr.w	r5, [r4], #4
  406bb4:	f1a5 3601 	sub.w	r6, r5, #16843009	; 0x1010101
  406bb8:	ea26 0605 	bic.w	r6, r6, r5
  406bbc:	f016 3f80 	tst.w	r6, #2155905152	; 0x80808080
  406bc0:	d105      	bne.n	406bce <strncpy+0x32>
  406bc2:	3a04      	subs	r2, #4
  406bc4:	2a03      	cmp	r2, #3
  406bc6:	f843 5b04 	str.w	r5, [r3], #4
  406bca:	4621      	mov	r1, r4
  406bcc:	d8ef      	bhi.n	406bae <strncpy+0x12>
  406bce:	b19a      	cbz	r2, 406bf8 <strncpy+0x5c>
  406bd0:	780c      	ldrb	r4, [r1, #0]
  406bd2:	3a01      	subs	r2, #1
  406bd4:	701c      	strb	r4, [r3, #0]
  406bd6:	3301      	adds	r3, #1
  406bd8:	b13c      	cbz	r4, 406bea <strncpy+0x4e>
  406bda:	b16a      	cbz	r2, 406bf8 <strncpy+0x5c>
  406bdc:	f811 4f01 	ldrb.w	r4, [r1, #1]!
  406be0:	3a01      	subs	r2, #1
  406be2:	f803 4b01 	strb.w	r4, [r3], #1
  406be6:	2c00      	cmp	r4, #0
  406be8:	d1f7      	bne.n	406bda <strncpy+0x3e>
  406bea:	b12a      	cbz	r2, 406bf8 <strncpy+0x5c>
  406bec:	441a      	add	r2, r3
  406bee:	2100      	movs	r1, #0
  406bf0:	f803 1b01 	strb.w	r1, [r3], #1
  406bf4:	4293      	cmp	r3, r2
  406bf6:	d1fb      	bne.n	406bf0 <strncpy+0x54>
  406bf8:	bc70      	pop	{r4, r5, r6}
  406bfa:	4770      	bx	lr
  406bfc:	4603      	mov	r3, r0
  406bfe:	e7e6      	b.n	406bce <strncpy+0x32>

00406c00 <_svfprintf_r>:
  406c00:	e92d 4ff0 	stmdb	sp!, {r4, r5, r6, r7, r8, r9, sl, fp, lr}
  406c04:	b0c9      	sub	sp, #292	; 0x124
  406c06:	9310      	str	r3, [sp, #64]	; 0x40
  406c08:	910c      	str	r1, [sp, #48]	; 0x30
  406c0a:	4691      	mov	r9, r2
  406c0c:	900d      	str	r0, [sp, #52]	; 0x34
  406c0e:	f003 fde5 	bl	40a7dc <_localeconv_r>
  406c12:	6800      	ldr	r0, [r0, #0]
  406c14:	9015      	str	r0, [sp, #84]	; 0x54
  406c16:	f7ff ff91 	bl	406b3c <strlen>
  406c1a:	9c0c      	ldr	r4, [sp, #48]	; 0x30
  406c1c:	9018      	str	r0, [sp, #96]	; 0x60
  406c1e:	89a3      	ldrh	r3, [r4, #12]
  406c20:	061e      	lsls	r6, r3, #24
  406c22:	d503      	bpl.n	406c2c <_svfprintf_r+0x2c>
  406c24:	6923      	ldr	r3, [r4, #16]
  406c26:	2b00      	cmp	r3, #0
  406c28:	f001 8081 	beq.w	407d2e <_svfprintf_r+0x112e>
  406c2c:	ac38      	add	r4, sp, #224	; 0xe0
  406c2e:	46a4      	mov	ip, r4
  406c30:	9408      	str	r4, [sp, #32]
  406c32:	942b      	str	r4, [sp, #172]	; 0xac
  406c34:	2500      	movs	r5, #0
  406c36:	2400      	movs	r4, #0
  406c38:	e9cd 4516 	strd	r4, r5, [sp, #88]	; 0x58
  406c3c:	2300      	movs	r3, #0
  406c3e:	9311      	str	r3, [sp, #68]	; 0x44
  406c40:	932d      	str	r3, [sp, #180]	; 0xb4
  406c42:	932c      	str	r3, [sp, #176]	; 0xb0
  406c44:	931a      	str	r3, [sp, #104]	; 0x68
  406c46:	9319      	str	r3, [sp, #100]	; 0x64
  406c48:	930e      	str	r3, [sp, #56]	; 0x38
  406c4a:	4666      	mov	r6, ip
  406c4c:	f899 3000 	ldrb.w	r3, [r9]
  406c50:	2b00      	cmp	r3, #0
  406c52:	f000 80f8 	beq.w	406e46 <_svfprintf_r+0x246>
  406c56:	2b25      	cmp	r3, #37	; 0x25
  406c58:	f000 80f5 	beq.w	406e46 <_svfprintf_r+0x246>
  406c5c:	f109 0201 	add.w	r2, r9, #1
  406c60:	e001      	b.n	406c66 <_svfprintf_r+0x66>
  406c62:	2b25      	cmp	r3, #37	; 0x25
  406c64:	d004      	beq.n	406c70 <_svfprintf_r+0x70>
  406c66:	7813      	ldrb	r3, [r2, #0]
  406c68:	4614      	mov	r4, r2
  406c6a:	3201      	adds	r2, #1
  406c6c:	2b00      	cmp	r3, #0
  406c6e:	d1f8      	bne.n	406c62 <_svfprintf_r+0x62>
  406c70:	ebc9 0504 	rsb	r5, r9, r4
  406c74:	b17d      	cbz	r5, 406c96 <_svfprintf_r+0x96>
  406c76:	9b2c      	ldr	r3, [sp, #176]	; 0xb0
  406c78:	9a2d      	ldr	r2, [sp, #180]	; 0xb4
  406c7a:	3301      	adds	r3, #1
  406c7c:	442a      	add	r2, r5
  406c7e:	2b07      	cmp	r3, #7
  406c80:	f8c6 9000 	str.w	r9, [r6]
  406c84:	6075      	str	r5, [r6, #4]
  406c86:	922d      	str	r2, [sp, #180]	; 0xb4
  406c88:	932c      	str	r3, [sp, #176]	; 0xb0
  406c8a:	f300 80c2 	bgt.w	406e12 <_svfprintf_r+0x212>
  406c8e:	3608      	adds	r6, #8
  406c90:	980e      	ldr	r0, [sp, #56]	; 0x38
  406c92:	4428      	add	r0, r5
  406c94:	900e      	str	r0, [sp, #56]	; 0x38
  406c96:	7823      	ldrb	r3, [r4, #0]
  406c98:	2b00      	cmp	r3, #0
  406c9a:	f000 80c2 	beq.w	406e22 <_svfprintf_r+0x222>
  406c9e:	2300      	movs	r3, #0
  406ca0:	f894 8001 	ldrb.w	r8, [r4, #1]
  406ca4:	461a      	mov	r2, r3
  406ca6:	f88d 308f 	strb.w	r3, [sp, #143]	; 0x8f
  406caa:	930f      	str	r3, [sp, #60]	; 0x3c
  406cac:	9309      	str	r3, [sp, #36]	; 0x24
  406cae:	f104 0901 	add.w	r9, r4, #1
  406cb2:	f04f 34ff 	mov.w	r4, #4294967295
  406cb6:	940a      	str	r4, [sp, #40]	; 0x28
  406cb8:	f109 0901 	add.w	r9, r9, #1
  406cbc:	f1a8 0320 	sub.w	r3, r8, #32
  406cc0:	2b58      	cmp	r3, #88	; 0x58
  406cc2:	f200 83c5 	bhi.w	407450 <_svfprintf_r+0x850>
  406cc6:	e8df f013 	tbh	[pc, r3, lsl #1]
  406cca:	026a      	.short	0x026a
  406ccc:	03c303c3 	.word	0x03c303c3
  406cd0:	03c30271 	.word	0x03c30271
  406cd4:	03c303c3 	.word	0x03c303c3
  406cd8:	03c303c3 	.word	0x03c303c3
  406cdc:	031403c3 	.word	0x031403c3
  406ce0:	03c30366 	.word	0x03c30366
  406ce4:	00c0009d 	.word	0x00c0009d
  406ce8:	027803c3 	.word	0x027803c3
  406cec:	027f027f 	.word	0x027f027f
  406cf0:	027f027f 	.word	0x027f027f
  406cf4:	027f027f 	.word	0x027f027f
  406cf8:	027f027f 	.word	0x027f027f
  406cfc:	03c3027f 	.word	0x03c3027f
  406d00:	03c303c3 	.word	0x03c303c3
  406d04:	03c303c3 	.word	0x03c303c3
  406d08:	03c303c3 	.word	0x03c303c3
  406d0c:	03c303c3 	.word	0x03c303c3
  406d10:	029003c3 	.word	0x029003c3
  406d14:	03c30371 	.word	0x03c30371
  406d18:	03c30371 	.word	0x03c30371
  406d1c:	03c303c3 	.word	0x03c303c3
  406d20:	036a03c3 	.word	0x036a03c3
  406d24:	03c303c3 	.word	0x03c303c3
  406d28:	03c30078 	.word	0x03c30078
  406d2c:	03c303c3 	.word	0x03c303c3
  406d30:	03c303c3 	.word	0x03c303c3
  406d34:	03c30059 	.word	0x03c30059
  406d38:	02af03c3 	.word	0x02af03c3
  406d3c:	03c303c3 	.word	0x03c303c3
  406d40:	03c303c3 	.word	0x03c303c3
  406d44:	03c303c3 	.word	0x03c303c3
  406d48:	03c303c3 	.word	0x03c303c3
  406d4c:	03c303c3 	.word	0x03c303c3
  406d50:	03480337 	.word	0x03480337
  406d54:	03710371 	.word	0x03710371
  406d58:	02ff0371 	.word	0x02ff0371
  406d5c:	03c30348 	.word	0x03c30348
  406d60:	030803c3 	.word	0x030803c3
  406d64:	02c503c3 	.word	0x02c503c3
  406d68:	0320007c 	.word	0x0320007c
  406d6c:	03c303a3 	.word	0x03c303a3
  406d70:	03c302d9 	.word	0x03c302d9
  406d74:	03c3005f 	.word	0x03c3005f
  406d78:	00de03c3 	.word	0x00de03c3
  406d7c:	f8dd c024 	ldr.w	ip, [sp, #36]	; 0x24
  406d80:	f04c 0c10 	orr.w	ip, ip, #16
  406d84:	f8cd c024 	str.w	ip, [sp, #36]	; 0x24
  406d88:	9c09      	ldr	r4, [sp, #36]	; 0x24
  406d8a:	06a2      	lsls	r2, r4, #26
  406d8c:	f100 8354 	bmi.w	407438 <_svfprintf_r+0x838>
  406d90:	9c09      	ldr	r4, [sp, #36]	; 0x24
  406d92:	06e3      	lsls	r3, r4, #27
  406d94:	f100 85bd 	bmi.w	407912 <_svfprintf_r+0xd12>
  406d98:	f8dd c024 	ldr.w	ip, [sp, #36]	; 0x24
  406d9c:	f01c 0f40 	tst.w	ip, #64	; 0x40
  406da0:	f000 85b7 	beq.w	407912 <_svfprintf_r+0xd12>
  406da4:	f8dd c040 	ldr.w	ip, [sp, #64]	; 0x40
  406da8:	2500      	movs	r5, #0
  406daa:	f8bc 4000 	ldrh.w	r4, [ip]
  406dae:	f10c 0c04 	add.w	ip, ip, #4
  406db2:	2301      	movs	r3, #1
  406db4:	f8cd c040 	str.w	ip, [sp, #64]	; 0x40
  406db8:	e08c      	b.n	406ed4 <_svfprintf_r+0x2d4>
  406dba:	9d09      	ldr	r5, [sp, #36]	; 0x24
  406dbc:	f045 0510 	orr.w	r5, r5, #16
  406dc0:	9509      	str	r5, [sp, #36]	; 0x24
  406dc2:	f8dd c024 	ldr.w	ip, [sp, #36]	; 0x24
  406dc6:	f01c 0320 	ands.w	r3, ip, #32
  406dca:	f040 832a 	bne.w	407422 <_svfprintf_r+0x822>
  406dce:	f8dd c024 	ldr.w	ip, [sp, #36]	; 0x24
  406dd2:	f01c 0210 	ands.w	r2, ip, #16
  406dd6:	f040 85a4 	bne.w	407922 <_svfprintf_r+0xd22>
  406dda:	f8dd c024 	ldr.w	ip, [sp, #36]	; 0x24
  406dde:	f01c 0340 	ands.w	r3, ip, #64	; 0x40
  406de2:	f000 859e 	beq.w	407922 <_svfprintf_r+0xd22>
  406de6:	f8dd c040 	ldr.w	ip, [sp, #64]	; 0x40
  406dea:	4613      	mov	r3, r2
  406dec:	f8bc 4000 	ldrh.w	r4, [ip]
  406df0:	f10c 0c04 	add.w	ip, ip, #4
  406df4:	2500      	movs	r5, #0
  406df6:	f8cd c040 	str.w	ip, [sp, #64]	; 0x40
  406dfa:	e06b      	b.n	406ed4 <_svfprintf_r+0x2d4>
  406dfc:	9c0f      	ldr	r4, [sp, #60]	; 0x3c
  406dfe:	9310      	str	r3, [sp, #64]	; 0x40
  406e00:	4264      	negs	r4, r4
  406e02:	940f      	str	r4, [sp, #60]	; 0x3c
  406e04:	9d09      	ldr	r5, [sp, #36]	; 0x24
  406e06:	f045 0504 	orr.w	r5, r5, #4
  406e0a:	9509      	str	r5, [sp, #36]	; 0x24
  406e0c:	f899 8000 	ldrb.w	r8, [r9]
  406e10:	e752      	b.n	406cb8 <_svfprintf_r+0xb8>
  406e12:	980d      	ldr	r0, [sp, #52]	; 0x34
  406e14:	990c      	ldr	r1, [sp, #48]	; 0x30
  406e16:	aa2b      	add	r2, sp, #172	; 0xac
  406e18:	f004 f978 	bl	40b10c <__ssprint_r>
  406e1c:	b940      	cbnz	r0, 406e30 <_svfprintf_r+0x230>
  406e1e:	ae38      	add	r6, sp, #224	; 0xe0
  406e20:	e736      	b.n	406c90 <_svfprintf_r+0x90>
  406e22:	9b2d      	ldr	r3, [sp, #180]	; 0xb4
  406e24:	b123      	cbz	r3, 406e30 <_svfprintf_r+0x230>
  406e26:	980d      	ldr	r0, [sp, #52]	; 0x34
  406e28:	990c      	ldr	r1, [sp, #48]	; 0x30
  406e2a:	aa2b      	add	r2, sp, #172	; 0xac
  406e2c:	f004 f96e 	bl	40b10c <__ssprint_r>
  406e30:	9c0c      	ldr	r4, [sp, #48]	; 0x30
  406e32:	980e      	ldr	r0, [sp, #56]	; 0x38
  406e34:	89a3      	ldrh	r3, [r4, #12]
  406e36:	f013 0f40 	tst.w	r3, #64	; 0x40
  406e3a:	bf18      	it	ne
  406e3c:	f04f 30ff 	movne.w	r0, #4294967295
  406e40:	b049      	add	sp, #292	; 0x124
  406e42:	e8bd 8ff0 	ldmia.w	sp!, {r4, r5, r6, r7, r8, r9, sl, fp, pc}
  406e46:	464c      	mov	r4, r9
  406e48:	e725      	b.n	406c96 <_svfprintf_r+0x96>
  406e4a:	f899 8000 	ldrb.w	r8, [r9]
  406e4e:	f109 0001 	add.w	r0, r9, #1
  406e52:	f1b8 0f2a 	cmp.w	r8, #42	; 0x2a
  406e56:	f001 810c 	beq.w	408072 <_svfprintf_r+0x1472>
  406e5a:	f1a8 0330 	sub.w	r3, r8, #48	; 0x30
  406e5e:	2b09      	cmp	r3, #9
  406e60:	bf98      	it	ls
  406e62:	2100      	movls	r1, #0
  406e64:	f201 806b 	bhi.w	407f3e <_svfprintf_r+0x133e>
  406e68:	f810 8b01 	ldrb.w	r8, [r0], #1
  406e6c:	eb01 0181 	add.w	r1, r1, r1, lsl #2
  406e70:	eb03 0141 	add.w	r1, r3, r1, lsl #1
  406e74:	f1a8 0330 	sub.w	r3, r8, #48	; 0x30
  406e78:	2b09      	cmp	r3, #9
  406e7a:	d9f5      	bls.n	406e68 <_svfprintf_r+0x268>
  406e7c:	ea41 71e1 	orr.w	r1, r1, r1, asr #31
  406e80:	910a      	str	r1, [sp, #40]	; 0x28
  406e82:	4681      	mov	r9, r0
  406e84:	e71a      	b.n	406cbc <_svfprintf_r+0xbc>
  406e86:	9d09      	ldr	r5, [sp, #36]	; 0x24
  406e88:	4ca1      	ldr	r4, [pc, #644]	; (407110 <_svfprintf_r+0x510>)
  406e8a:	06af      	lsls	r7, r5, #26
  406e8c:	941a      	str	r4, [sp, #104]	; 0x68
  406e8e:	f88d 208f 	strb.w	r2, [sp, #143]	; 0x8f
  406e92:	f140 81d1 	bpl.w	407238 <_svfprintf_r+0x638>
  406e96:	f8dd c040 	ldr.w	ip, [sp, #64]	; 0x40
  406e9a:	f10c 0307 	add.w	r3, ip, #7
  406e9e:	f023 0307 	bic.w	r3, r3, #7
  406ea2:	f103 0408 	add.w	r4, r3, #8
  406ea6:	9410      	str	r4, [sp, #64]	; 0x40
  406ea8:	e9d3 4500 	ldrd	r4, r5, [r3]
  406eac:	f8dd c024 	ldr.w	ip, [sp, #36]	; 0x24
  406eb0:	f01c 0f01 	tst.w	ip, #1
  406eb4:	f000 8462 	beq.w	40777c <_svfprintf_r+0xb7c>
  406eb8:	ea54 0005 	orrs.w	r0, r4, r5
  406ebc:	f000 845e 	beq.w	40777c <_svfprintf_r+0xb7c>
  406ec0:	2330      	movs	r3, #48	; 0x30
  406ec2:	f04c 0c02 	orr.w	ip, ip, #2
  406ec6:	f88d 3090 	strb.w	r3, [sp, #144]	; 0x90
  406eca:	f88d 8091 	strb.w	r8, [sp, #145]	; 0x91
  406ece:	f8cd c024 	str.w	ip, [sp, #36]	; 0x24
  406ed2:	2302      	movs	r3, #2
  406ed4:	f04f 0a00 	mov.w	sl, #0
  406ed8:	f88d a08f 	strb.w	sl, [sp, #143]	; 0x8f
  406edc:	990a      	ldr	r1, [sp, #40]	; 0x28
  406ede:	2900      	cmp	r1, #0
  406ee0:	db05      	blt.n	406eee <_svfprintf_r+0x2ee>
  406ee2:	f8dd c024 	ldr.w	ip, [sp, #36]	; 0x24
  406ee6:	f02c 0c80 	bic.w	ip, ip, #128	; 0x80
  406eea:	f8cd c024 	str.w	ip, [sp, #36]	; 0x24
  406eee:	ea54 0005 	orrs.w	r0, r4, r5
  406ef2:	f040 82c5 	bne.w	407480 <_svfprintf_r+0x880>
  406ef6:	990a      	ldr	r1, [sp, #40]	; 0x28
  406ef8:	2900      	cmp	r1, #0
  406efa:	f040 82c1 	bne.w	407480 <_svfprintf_r+0x880>
  406efe:	2b00      	cmp	r3, #0
  406f00:	f040 8438 	bne.w	407774 <_svfprintf_r+0xb74>
  406f04:	f8dd c024 	ldr.w	ip, [sp, #36]	; 0x24
  406f08:	f01c 0f01 	tst.w	ip, #1
  406f0c:	f000 8432 	beq.w	407774 <_svfprintf_r+0xb74>
  406f10:	af48      	add	r7, sp, #288	; 0x120
  406f12:	2330      	movs	r3, #48	; 0x30
  406f14:	9d08      	ldr	r5, [sp, #32]
  406f16:	f807 3d41 	strb.w	r3, [r7, #-65]!
  406f1a:	1bec      	subs	r4, r5, r7
  406f1c:	f8dd c028 	ldr.w	ip, [sp, #40]	; 0x28
  406f20:	2500      	movs	r5, #0
  406f22:	4564      	cmp	r4, ip
  406f24:	bfa8      	it	ge
  406f26:	46a4      	movge	ip, r4
  406f28:	f8cd c02c 	str.w	ip, [sp, #44]	; 0x2c
  406f2c:	9514      	str	r5, [sp, #80]	; 0x50
  406f2e:	f1ba 0f00 	cmp.w	sl, #0
  406f32:	d002      	beq.n	406f3a <_svfprintf_r+0x33a>
  406f34:	9d0b      	ldr	r5, [sp, #44]	; 0x2c
  406f36:	3501      	adds	r5, #1
  406f38:	950b      	str	r5, [sp, #44]	; 0x2c
  406f3a:	9b09      	ldr	r3, [sp, #36]	; 0x24
  406f3c:	f013 0302 	ands.w	r3, r3, #2
  406f40:	9312      	str	r3, [sp, #72]	; 0x48
  406f42:	d002      	beq.n	406f4a <_svfprintf_r+0x34a>
  406f44:	9d0b      	ldr	r5, [sp, #44]	; 0x2c
  406f46:	3502      	adds	r5, #2
  406f48:	950b      	str	r5, [sp, #44]	; 0x2c
  406f4a:	f8dd c024 	ldr.w	ip, [sp, #36]	; 0x24
  406f4e:	f01c 0c84 	ands.w	ip, ip, #132	; 0x84
  406f52:	f8cd c04c 	str.w	ip, [sp, #76]	; 0x4c
  406f56:	f040 8290 	bne.w	40747a <_svfprintf_r+0x87a>
  406f5a:	9d0f      	ldr	r5, [sp, #60]	; 0x3c
  406f5c:	f8dd c02c 	ldr.w	ip, [sp, #44]	; 0x2c
  406f60:	ebcc 0b05 	rsb	fp, ip, r5
  406f64:	f1bb 0f00 	cmp.w	fp, #0
  406f68:	f340 8287 	ble.w	40747a <_svfprintf_r+0x87a>
  406f6c:	f1bb 0f10 	cmp.w	fp, #16
  406f70:	992d      	ldr	r1, [sp, #180]	; 0xb4
  406f72:	9a2c      	ldr	r2, [sp, #176]	; 0xb0
  406f74:	f8df a1a0 	ldr.w	sl, [pc, #416]	; 407118 <_svfprintf_r+0x518>
  406f78:	dd2c      	ble.n	406fd4 <_svfprintf_r+0x3d4>
  406f7a:	971b      	str	r7, [sp, #108]	; 0x6c
  406f7c:	4630      	mov	r0, r6
  406f7e:	4657      	mov	r7, sl
  406f80:	2510      	movs	r5, #16
  406f82:	46ca      	mov	sl, r9
  406f84:	9e0c      	ldr	r6, [sp, #48]	; 0x30
  406f86:	46a1      	mov	r9, r4
  406f88:	9c0d      	ldr	r4, [sp, #52]	; 0x34
  406f8a:	e006      	b.n	406f9a <_svfprintf_r+0x39a>
  406f8c:	f1ab 0b10 	sub.w	fp, fp, #16
  406f90:	f1bb 0f10 	cmp.w	fp, #16
  406f94:	f100 0008 	add.w	r0, r0, #8
  406f98:	dd17      	ble.n	406fca <_svfprintf_r+0x3ca>
  406f9a:	3201      	adds	r2, #1
  406f9c:	3110      	adds	r1, #16
  406f9e:	2a07      	cmp	r2, #7
  406fa0:	912d      	str	r1, [sp, #180]	; 0xb4
  406fa2:	922c      	str	r2, [sp, #176]	; 0xb0
  406fa4:	6007      	str	r7, [r0, #0]
  406fa6:	6045      	str	r5, [r0, #4]
  406fa8:	ddf0      	ble.n	406f8c <_svfprintf_r+0x38c>
  406faa:	4620      	mov	r0, r4
  406fac:	4631      	mov	r1, r6
  406fae:	aa2b      	add	r2, sp, #172	; 0xac
  406fb0:	f004 f8ac 	bl	40b10c <__ssprint_r>
  406fb4:	2800      	cmp	r0, #0
  406fb6:	f47f af3b 	bne.w	406e30 <_svfprintf_r+0x230>
  406fba:	f1ab 0b10 	sub.w	fp, fp, #16
  406fbe:	f1bb 0f10 	cmp.w	fp, #16
  406fc2:	992d      	ldr	r1, [sp, #180]	; 0xb4
  406fc4:	9a2c      	ldr	r2, [sp, #176]	; 0xb0
  406fc6:	a838      	add	r0, sp, #224	; 0xe0
  406fc8:	dce7      	bgt.n	406f9a <_svfprintf_r+0x39a>
  406fca:	464c      	mov	r4, r9
  406fcc:	46d1      	mov	r9, sl
  406fce:	46ba      	mov	sl, r7
  406fd0:	9f1b      	ldr	r7, [sp, #108]	; 0x6c
  406fd2:	4606      	mov	r6, r0
  406fd4:	3201      	adds	r2, #1
  406fd6:	eb0b 0c01 	add.w	ip, fp, r1
  406fda:	2a07      	cmp	r2, #7
  406fdc:	f8cd c0b4 	str.w	ip, [sp, #180]	; 0xb4
  406fe0:	922c      	str	r2, [sp, #176]	; 0xb0
  406fe2:	e886 0c00 	stmia.w	r6, {sl, fp}
  406fe6:	f300 841a 	bgt.w	40781e <_svfprintf_r+0xc1e>
  406fea:	f89d a08f 	ldrb.w	sl, [sp, #143]	; 0x8f
  406fee:	3608      	adds	r6, #8
  406ff0:	f1ba 0f00 	cmp.w	sl, #0
  406ff4:	d00f      	beq.n	407016 <_svfprintf_r+0x416>
  406ff6:	9b2c      	ldr	r3, [sp, #176]	; 0xb0
  406ff8:	f10c 0c01 	add.w	ip, ip, #1
  406ffc:	3301      	adds	r3, #1
  406ffe:	f10d 018f 	add.w	r1, sp, #143	; 0x8f
  407002:	2201      	movs	r2, #1
  407004:	2b07      	cmp	r3, #7
  407006:	f8cd c0b4 	str.w	ip, [sp, #180]	; 0xb4
  40700a:	932c      	str	r3, [sp, #176]	; 0xb0
  40700c:	e886 0006 	stmia.w	r6, {r1, r2}
  407010:	f300 83a4 	bgt.w	40775c <_svfprintf_r+0xb5c>
  407014:	3608      	adds	r6, #8
  407016:	9b12      	ldr	r3, [sp, #72]	; 0x48
  407018:	b173      	cbz	r3, 407038 <_svfprintf_r+0x438>
  40701a:	9b2c      	ldr	r3, [sp, #176]	; 0xb0
  40701c:	f10c 0c02 	add.w	ip, ip, #2
  407020:	3301      	adds	r3, #1
  407022:	a924      	add	r1, sp, #144	; 0x90
  407024:	2202      	movs	r2, #2
  407026:	2b07      	cmp	r3, #7
  407028:	f8cd c0b4 	str.w	ip, [sp, #180]	; 0xb4
  40702c:	932c      	str	r3, [sp, #176]	; 0xb0
  40702e:	e886 0006 	stmia.w	r6, {r1, r2}
  407032:	f300 8387 	bgt.w	407744 <_svfprintf_r+0xb44>
  407036:	3608      	adds	r6, #8
  407038:	9d13      	ldr	r5, [sp, #76]	; 0x4c
  40703a:	2d80      	cmp	r5, #128	; 0x80
  40703c:	f000 82ca 	beq.w	4075d4 <_svfprintf_r+0x9d4>
  407040:	9d0a      	ldr	r5, [sp, #40]	; 0x28
  407042:	ebc4 0a05 	rsb	sl, r4, r5
  407046:	f1ba 0f00 	cmp.w	sl, #0
  40704a:	dd3b      	ble.n	4070c4 <_svfprintf_r+0x4c4>
  40704c:	f1ba 0f10 	cmp.w	sl, #16
  407050:	9b2c      	ldr	r3, [sp, #176]	; 0xb0
  407052:	4d30      	ldr	r5, [pc, #192]	; (407114 <_svfprintf_r+0x514>)
  407054:	dd2b      	ble.n	4070ae <_svfprintf_r+0x4ae>
  407056:	940a      	str	r4, [sp, #40]	; 0x28
  407058:	4632      	mov	r2, r6
  40705a:	f04f 0b10 	mov.w	fp, #16
  40705e:	462e      	mov	r6, r5
  407060:	4661      	mov	r1, ip
  407062:	9c0d      	ldr	r4, [sp, #52]	; 0x34
  407064:	9d0c      	ldr	r5, [sp, #48]	; 0x30
  407066:	e006      	b.n	407076 <_svfprintf_r+0x476>
  407068:	f1aa 0a10 	sub.w	sl, sl, #16
  40706c:	f1ba 0f10 	cmp.w	sl, #16
  407070:	f102 0208 	add.w	r2, r2, #8
  407074:	dd17      	ble.n	4070a6 <_svfprintf_r+0x4a6>
  407076:	3301      	adds	r3, #1
  407078:	3110      	adds	r1, #16
  40707a:	2b07      	cmp	r3, #7
  40707c:	912d      	str	r1, [sp, #180]	; 0xb4
  40707e:	932c      	str	r3, [sp, #176]	; 0xb0
  407080:	e882 0840 	stmia.w	r2, {r6, fp}
  407084:	ddf0      	ble.n	407068 <_svfprintf_r+0x468>
  407086:	4620      	mov	r0, r4
  407088:	4629      	mov	r1, r5
  40708a:	aa2b      	add	r2, sp, #172	; 0xac
  40708c:	f004 f83e 	bl	40b10c <__ssprint_r>
  407090:	2800      	cmp	r0, #0
  407092:	f47f aecd 	bne.w	406e30 <_svfprintf_r+0x230>
  407096:	f1aa 0a10 	sub.w	sl, sl, #16
  40709a:	f1ba 0f10 	cmp.w	sl, #16
  40709e:	992d      	ldr	r1, [sp, #180]	; 0xb4
  4070a0:	9b2c      	ldr	r3, [sp, #176]	; 0xb0
  4070a2:	aa38      	add	r2, sp, #224	; 0xe0
  4070a4:	dce7      	bgt.n	407076 <_svfprintf_r+0x476>
  4070a6:	9c0a      	ldr	r4, [sp, #40]	; 0x28
  4070a8:	4635      	mov	r5, r6
  4070aa:	468c      	mov	ip, r1
  4070ac:	4616      	mov	r6, r2
  4070ae:	3301      	adds	r3, #1
  4070b0:	44d4      	add	ip, sl
  4070b2:	2b07      	cmp	r3, #7
  4070b4:	f8cd c0b4 	str.w	ip, [sp, #180]	; 0xb4
  4070b8:	932c      	str	r3, [sp, #176]	; 0xb0
  4070ba:	e886 0420 	stmia.w	r6, {r5, sl}
  4070be:	f300 8335 	bgt.w	40772c <_svfprintf_r+0xb2c>
  4070c2:	3608      	adds	r6, #8
  4070c4:	9d09      	ldr	r5, [sp, #36]	; 0x24
  4070c6:	05ed      	lsls	r5, r5, #23
  4070c8:	f100 8224 	bmi.w	407514 <_svfprintf_r+0x914>
  4070cc:	9b2c      	ldr	r3, [sp, #176]	; 0xb0
  4070ce:	44a4      	add	ip, r4
  4070d0:	3301      	adds	r3, #1
  4070d2:	2b07      	cmp	r3, #7
  4070d4:	f8cd c0b4 	str.w	ip, [sp, #180]	; 0xb4
  4070d8:	6037      	str	r7, [r6, #0]
  4070da:	6074      	str	r4, [r6, #4]
  4070dc:	932c      	str	r3, [sp, #176]	; 0xb0
  4070de:	f300 830f 	bgt.w	407700 <_svfprintf_r+0xb00>
  4070e2:	3608      	adds	r6, #8
  4070e4:	9c09      	ldr	r4, [sp, #36]	; 0x24
  4070e6:	0763      	lsls	r3, r4, #29
  4070e8:	d549      	bpl.n	40717e <_svfprintf_r+0x57e>
  4070ea:	9d0f      	ldr	r5, [sp, #60]	; 0x3c
  4070ec:	980b      	ldr	r0, [sp, #44]	; 0x2c
  4070ee:	1a2c      	subs	r4, r5, r0
  4070f0:	2c00      	cmp	r4, #0
  4070f2:	dd44      	ble.n	40717e <_svfprintf_r+0x57e>
  4070f4:	2c10      	cmp	r4, #16
  4070f6:	9b2c      	ldr	r3, [sp, #176]	; 0xb0
  4070f8:	f8df a01c 	ldr.w	sl, [pc, #28]	; 407118 <_svfprintf_r+0x518>
  4070fc:	dd2b      	ble.n	407156 <_svfprintf_r+0x556>
  4070fe:	4657      	mov	r7, sl
  407100:	2510      	movs	r5, #16
  407102:	4662      	mov	r2, ip
  407104:	f8dd 8030 	ldr.w	r8, [sp, #48]	; 0x30
  407108:	f8dd a034 	ldr.w	sl, [sp, #52]	; 0x34
  40710c:	e00b      	b.n	407126 <_svfprintf_r+0x526>
  40710e:	bf00      	nop
  407110:	0040c764 	.word	0x0040c764
  407114:	0040c730 	.word	0x0040c730
  407118:	0040c784 	.word	0x0040c784
  40711c:	3c10      	subs	r4, #16
  40711e:	2c10      	cmp	r4, #16
  407120:	f106 0608 	add.w	r6, r6, #8
  407124:	dd15      	ble.n	407152 <_svfprintf_r+0x552>
  407126:	3301      	adds	r3, #1
  407128:	3210      	adds	r2, #16
  40712a:	2b07      	cmp	r3, #7
  40712c:	922d      	str	r2, [sp, #180]	; 0xb4
  40712e:	932c      	str	r3, [sp, #176]	; 0xb0
  407130:	6037      	str	r7, [r6, #0]
  407132:	6075      	str	r5, [r6, #4]
  407134:	ddf2      	ble.n	40711c <_svfprintf_r+0x51c>
  407136:	4650      	mov	r0, sl
  407138:	4641      	mov	r1, r8
  40713a:	aa2b      	add	r2, sp, #172	; 0xac
  40713c:	f003 ffe6 	bl	40b10c <__ssprint_r>
  407140:	2800      	cmp	r0, #0
  407142:	f47f ae75 	bne.w	406e30 <_svfprintf_r+0x230>
  407146:	3c10      	subs	r4, #16
  407148:	2c10      	cmp	r4, #16
  40714a:	9a2d      	ldr	r2, [sp, #180]	; 0xb4
  40714c:	9b2c      	ldr	r3, [sp, #176]	; 0xb0
  40714e:	ae38      	add	r6, sp, #224	; 0xe0
  407150:	dce9      	bgt.n	407126 <_svfprintf_r+0x526>
  407152:	4694      	mov	ip, r2
  407154:	46ba      	mov	sl, r7
  407156:	3301      	adds	r3, #1
  407158:	44a4      	add	ip, r4
  40715a:	2b07      	cmp	r3, #7
  40715c:	f8cd c0b4 	str.w	ip, [sp, #180]	; 0xb4
  407160:	932c      	str	r3, [sp, #176]	; 0xb0
  407162:	f8c6 a000 	str.w	sl, [r6]
  407166:	6074      	str	r4, [r6, #4]
  407168:	dd09      	ble.n	40717e <_svfprintf_r+0x57e>
  40716a:	980d      	ldr	r0, [sp, #52]	; 0x34
  40716c:	990c      	ldr	r1, [sp, #48]	; 0x30
  40716e:	aa2b      	add	r2, sp, #172	; 0xac
  407170:	f003 ffcc 	bl	40b10c <__ssprint_r>
  407174:	2800      	cmp	r0, #0
  407176:	f47f ae5b 	bne.w	406e30 <_svfprintf_r+0x230>
  40717a:	f8dd c0b4 	ldr.w	ip, [sp, #180]	; 0xb4
  40717e:	9c0e      	ldr	r4, [sp, #56]	; 0x38
  407180:	980b      	ldr	r0, [sp, #44]	; 0x2c
  407182:	9d0f      	ldr	r5, [sp, #60]	; 0x3c
  407184:	42a8      	cmp	r0, r5
  407186:	bfac      	ite	ge
  407188:	1824      	addge	r4, r4, r0
  40718a:	1964      	addlt	r4, r4, r5
  40718c:	940e      	str	r4, [sp, #56]	; 0x38
  40718e:	f1bc 0f00 	cmp.w	ip, #0
  407192:	f040 82c1 	bne.w	407718 <_svfprintf_r+0xb18>
  407196:	2300      	movs	r3, #0
  407198:	932c      	str	r3, [sp, #176]	; 0xb0
  40719a:	ae38      	add	r6, sp, #224	; 0xe0
  40719c:	e556      	b.n	406c4c <_svfprintf_r+0x4c>
  40719e:	f899 8000 	ldrb.w	r8, [r9]
  4071a2:	2a00      	cmp	r2, #0
  4071a4:	f47f ad88 	bne.w	406cb8 <_svfprintf_r+0xb8>
  4071a8:	2220      	movs	r2, #32
  4071aa:	e585      	b.n	406cb8 <_svfprintf_r+0xb8>
  4071ac:	9d09      	ldr	r5, [sp, #36]	; 0x24
  4071ae:	f045 0501 	orr.w	r5, r5, #1
  4071b2:	9509      	str	r5, [sp, #36]	; 0x24
  4071b4:	f899 8000 	ldrb.w	r8, [r9]
  4071b8:	e57e      	b.n	406cb8 <_svfprintf_r+0xb8>
  4071ba:	9d09      	ldr	r5, [sp, #36]	; 0x24
  4071bc:	f045 0580 	orr.w	r5, r5, #128	; 0x80
  4071c0:	9509      	str	r5, [sp, #36]	; 0x24
  4071c2:	f899 8000 	ldrb.w	r8, [r9]
  4071c6:	e577      	b.n	406cb8 <_svfprintf_r+0xb8>
  4071c8:	2400      	movs	r4, #0
  4071ca:	f1a8 0330 	sub.w	r3, r8, #48	; 0x30
  4071ce:	940f      	str	r4, [sp, #60]	; 0x3c
  4071d0:	4621      	mov	r1, r4
  4071d2:	f819 8b01 	ldrb.w	r8, [r9], #1
  4071d6:	eb01 0181 	add.w	r1, r1, r1, lsl #2
  4071da:	eb03 0141 	add.w	r1, r3, r1, lsl #1
  4071de:	f1a8 0330 	sub.w	r3, r8, #48	; 0x30
  4071e2:	2b09      	cmp	r3, #9
  4071e4:	d9f5      	bls.n	4071d2 <_svfprintf_r+0x5d2>
  4071e6:	910f      	str	r1, [sp, #60]	; 0x3c
  4071e8:	e568      	b.n	406cbc <_svfprintf_r+0xbc>
  4071ea:	f8dd c024 	ldr.w	ip, [sp, #36]	; 0x24
  4071ee:	f88d 208f 	strb.w	r2, [sp, #143]	; 0x8f
  4071f2:	f04c 0c10 	orr.w	ip, ip, #16
  4071f6:	f8cd c024 	str.w	ip, [sp, #36]	; 0x24
  4071fa:	9c09      	ldr	r4, [sp, #36]	; 0x24
  4071fc:	06a5      	lsls	r5, r4, #26
  4071fe:	f140 80b2 	bpl.w	407366 <_svfprintf_r+0x766>
  407202:	9d10      	ldr	r5, [sp, #64]	; 0x40
  407204:	1de9      	adds	r1, r5, #7
  407206:	f021 0107 	bic.w	r1, r1, #7
  40720a:	e9d1 2300 	ldrd	r2, r3, [r1]
  40720e:	3108      	adds	r1, #8
  407210:	9110      	str	r1, [sp, #64]	; 0x40
  407212:	4614      	mov	r4, r2
  407214:	461d      	mov	r5, r3
  407216:	2a00      	cmp	r2, #0
  407218:	f173 0c00 	sbcs.w	ip, r3, #0
  40721c:	f2c0 8394 	blt.w	407948 <_svfprintf_r+0xd48>
  407220:	f89d a08f 	ldrb.w	sl, [sp, #143]	; 0x8f
  407224:	2301      	movs	r3, #1
  407226:	e659      	b.n	406edc <_svfprintf_r+0x2dc>
  407228:	9d09      	ldr	r5, [sp, #36]	; 0x24
  40722a:	4cb6      	ldr	r4, [pc, #728]	; (407504 <_svfprintf_r+0x904>)
  40722c:	06af      	lsls	r7, r5, #26
  40722e:	f88d 208f 	strb.w	r2, [sp, #143]	; 0x8f
  407232:	941a      	str	r4, [sp, #104]	; 0x68
  407234:	f53f ae2f 	bmi.w	406e96 <_svfprintf_r+0x296>
  407238:	9d09      	ldr	r5, [sp, #36]	; 0x24
  40723a:	06ed      	lsls	r5, r5, #27
  40723c:	f140 8443 	bpl.w	407ac6 <_svfprintf_r+0xec6>
  407240:	f8dd c040 	ldr.w	ip, [sp, #64]	; 0x40
  407244:	2500      	movs	r5, #0
  407246:	f8dc 4000 	ldr.w	r4, [ip]
  40724a:	f10c 0c04 	add.w	ip, ip, #4
  40724e:	f8cd c040 	str.w	ip, [sp, #64]	; 0x40
  407252:	e62b      	b.n	406eac <_svfprintf_r+0x2ac>
  407254:	f8dd c024 	ldr.w	ip, [sp, #36]	; 0x24
  407258:	f88d 208f 	strb.w	r2, [sp, #143]	; 0x8f
  40725c:	f01c 0f20 	tst.w	ip, #32
  407260:	f000 8440 	beq.w	407ae4 <_svfprintf_r+0xee4>
  407264:	9c10      	ldr	r4, [sp, #64]	; 0x40
  407266:	6821      	ldr	r1, [r4, #0]
  407268:	9c0e      	ldr	r4, [sp, #56]	; 0x38
  40726a:	17e5      	asrs	r5, r4, #31
  40726c:	462b      	mov	r3, r5
  40726e:	9d10      	ldr	r5, [sp, #64]	; 0x40
  407270:	4622      	mov	r2, r4
  407272:	3504      	adds	r5, #4
  407274:	9510      	str	r5, [sp, #64]	; 0x40
  407276:	e9c1 2300 	strd	r2, r3, [r1]
  40727a:	e4e7      	b.n	406c4c <_svfprintf_r+0x4c>
  40727c:	9c10      	ldr	r4, [sp, #64]	; 0x40
  40727e:	f04f 0a00 	mov.w	sl, #0
  407282:	6827      	ldr	r7, [r4, #0]
  407284:	f88d a08f 	strb.w	sl, [sp, #143]	; 0x8f
  407288:	1d25      	adds	r5, r4, #4
  40728a:	2f00      	cmp	r7, #0
  40728c:	f000 85e9 	beq.w	407e62 <_svfprintf_r+0x1262>
  407290:	9c0a      	ldr	r4, [sp, #40]	; 0x28
  407292:	4638      	mov	r0, r7
  407294:	2c00      	cmp	r4, #0
  407296:	f2c0 859b 	blt.w	407dd0 <_svfprintf_r+0x11d0>
  40729a:	4651      	mov	r1, sl
  40729c:	4622      	mov	r2, r4
  40729e:	f003 fb11 	bl	40a8c4 <memchr>
  4072a2:	2800      	cmp	r0, #0
  4072a4:	f000 8613 	beq.w	407ece <_svfprintf_r+0x12ce>
  4072a8:	9c0a      	ldr	r4, [sp, #40]	; 0x28
  4072aa:	1bc0      	subs	r0, r0, r7
  4072ac:	42a0      	cmp	r0, r4
  4072ae:	bfb8      	it	lt
  4072b0:	4604      	movlt	r4, r0
  4072b2:	9510      	str	r5, [sp, #64]	; 0x40
  4072b4:	ea24 75e4 	bic.w	r5, r4, r4, asr #31
  4072b8:	f8cd a028 	str.w	sl, [sp, #40]	; 0x28
  4072bc:	f8cd a050 	str.w	sl, [sp, #80]	; 0x50
  4072c0:	950b      	str	r5, [sp, #44]	; 0x2c
  4072c2:	f89d a08f 	ldrb.w	sl, [sp, #143]	; 0x8f
  4072c6:	e632      	b.n	406f2e <_svfprintf_r+0x32e>
  4072c8:	f8dd c024 	ldr.w	ip, [sp, #36]	; 0x24
  4072cc:	f04c 0c40 	orr.w	ip, ip, #64	; 0x40
  4072d0:	f8cd c024 	str.w	ip, [sp, #36]	; 0x24
  4072d4:	f899 8000 	ldrb.w	r8, [r9]
  4072d8:	e4ee      	b.n	406cb8 <_svfprintf_r+0xb8>
  4072da:	f899 8000 	ldrb.w	r8, [r9]
  4072de:	464b      	mov	r3, r9
  4072e0:	f1b8 0f6c 	cmp.w	r8, #108	; 0x6c
  4072e4:	f000 847f 	beq.w	407be6 <_svfprintf_r+0xfe6>
  4072e8:	9d09      	ldr	r5, [sp, #36]	; 0x24
  4072ea:	f045 0510 	orr.w	r5, r5, #16
  4072ee:	9509      	str	r5, [sp, #36]	; 0x24
  4072f0:	e4e2      	b.n	406cb8 <_svfprintf_r+0xb8>
  4072f2:	9c10      	ldr	r4, [sp, #64]	; 0x40
  4072f4:	9d10      	ldr	r5, [sp, #64]	; 0x40
  4072f6:	6824      	ldr	r4, [r4, #0]
  4072f8:	1d2b      	adds	r3, r5, #4
  4072fa:	2c00      	cmp	r4, #0
  4072fc:	940f      	str	r4, [sp, #60]	; 0x3c
  4072fe:	f6ff ad7d 	blt.w	406dfc <_svfprintf_r+0x1fc>
  407302:	9310      	str	r3, [sp, #64]	; 0x40
  407304:	f899 8000 	ldrb.w	r8, [r9]
  407308:	e4d6      	b.n	406cb8 <_svfprintf_r+0xb8>
  40730a:	9b10      	ldr	r3, [sp, #64]	; 0x40
  40730c:	f8dd c024 	ldr.w	ip, [sp, #36]	; 0x24
  407310:	9d10      	ldr	r5, [sp, #64]	; 0x40
  407312:	487d      	ldr	r0, [pc, #500]	; (407508 <_svfprintf_r+0x908>)
  407314:	3504      	adds	r5, #4
  407316:	681c      	ldr	r4, [r3, #0]
  407318:	f04f 0878 	mov.w	r8, #120	; 0x78
  40731c:	2330      	movs	r3, #48	; 0x30
  40731e:	f04c 0c02 	orr.w	ip, ip, #2
  407322:	9510      	str	r5, [sp, #64]	; 0x40
  407324:	f88d 3090 	strb.w	r3, [sp, #144]	; 0x90
  407328:	f8cd c024 	str.w	ip, [sp, #36]	; 0x24
  40732c:	2500      	movs	r5, #0
  40732e:	f88d 8091 	strb.w	r8, [sp, #145]	; 0x91
  407332:	901a      	str	r0, [sp, #104]	; 0x68
  407334:	2302      	movs	r3, #2
  407336:	e5cd      	b.n	406ed4 <_svfprintf_r+0x2d4>
  407338:	9b10      	ldr	r3, [sp, #64]	; 0x40
  40733a:	9d10      	ldr	r5, [sp, #64]	; 0x40
  40733c:	681a      	ldr	r2, [r3, #0]
  40733e:	2401      	movs	r4, #1
  407340:	2300      	movs	r3, #0
  407342:	3504      	adds	r5, #4
  407344:	469a      	mov	sl, r3
  407346:	940b      	str	r4, [sp, #44]	; 0x2c
  407348:	f88d 20b8 	strb.w	r2, [sp, #184]	; 0xb8
  40734c:	9510      	str	r5, [sp, #64]	; 0x40
  40734e:	f88d 308f 	strb.w	r3, [sp, #143]	; 0x8f
  407352:	930a      	str	r3, [sp, #40]	; 0x28
  407354:	9314      	str	r3, [sp, #80]	; 0x50
  407356:	af2e      	add	r7, sp, #184	; 0xb8
  407358:	e5ef      	b.n	406f3a <_svfprintf_r+0x33a>
  40735a:	9c09      	ldr	r4, [sp, #36]	; 0x24
  40735c:	f88d 208f 	strb.w	r2, [sp, #143]	; 0x8f
  407360:	06a5      	lsls	r5, r4, #26
  407362:	f53f af4e 	bmi.w	407202 <_svfprintf_r+0x602>
  407366:	f8dd c024 	ldr.w	ip, [sp, #36]	; 0x24
  40736a:	f01c 0f10 	tst.w	ip, #16
  40736e:	f040 82df 	bne.w	407930 <_svfprintf_r+0xd30>
  407372:	f8dd c024 	ldr.w	ip, [sp, #36]	; 0x24
  407376:	f01c 0f40 	tst.w	ip, #64	; 0x40
  40737a:	f000 82d9 	beq.w	407930 <_svfprintf_r+0xd30>
  40737e:	f8dd c040 	ldr.w	ip, [sp, #64]	; 0x40
  407382:	f9bc 4000 	ldrsh.w	r4, [ip]
  407386:	f10c 0c04 	add.w	ip, ip, #4
  40738a:	17e5      	asrs	r5, r4, #31
  40738c:	4622      	mov	r2, r4
  40738e:	462b      	mov	r3, r5
  407390:	f8cd c040 	str.w	ip, [sp, #64]	; 0x40
  407394:	e73f      	b.n	407216 <_svfprintf_r+0x616>
  407396:	f899 8000 	ldrb.w	r8, [r9]
  40739a:	222b      	movs	r2, #43	; 0x2b
  40739c:	e48c      	b.n	406cb8 <_svfprintf_r+0xb8>
  40739e:	9d09      	ldr	r5, [sp, #36]	; 0x24
  4073a0:	f045 0508 	orr.w	r5, r5, #8
  4073a4:	9509      	str	r5, [sp, #36]	; 0x24
  4073a6:	f899 8000 	ldrb.w	r8, [r9]
  4073aa:	e485      	b.n	406cb8 <_svfprintf_r+0xb8>
  4073ac:	9d10      	ldr	r5, [sp, #64]	; 0x40
  4073ae:	f88d 208f 	strb.w	r2, [sp, #143]	; 0x8f
  4073b2:	1deb      	adds	r3, r5, #7
  4073b4:	f023 0307 	bic.w	r3, r3, #7
  4073b8:	f103 0c08 	add.w	ip, r3, #8
  4073bc:	f8cd c040 	str.w	ip, [sp, #64]	; 0x40
  4073c0:	e9d3 4500 	ldrd	r4, r5, [r3]
  4073c4:	e9cd 4516 	strd	r4, r5, [sp, #88]	; 0x58
  4073c8:	e9dd 0116 	ldrd	r0, r1, [sp, #88]	; 0x58
  4073cc:	f003 fe34 	bl	40b038 <__fpclassifyd>
  4073d0:	2801      	cmp	r0, #1
  4073d2:	e9dd 0116 	ldrd	r0, r1, [sp, #88]	; 0x58
  4073d6:	f040 835c 	bne.w	407a92 <_svfprintf_r+0xe92>
  4073da:	2200      	movs	r2, #0
  4073dc:	2300      	movs	r3, #0
  4073de:	f7fe fbd7 	bl	405b90 <__aeabi_dcmplt>
  4073e2:	2800      	cmp	r0, #0
  4073e4:	f040 8563 	bne.w	407eae <_svfprintf_r+0x12ae>
  4073e8:	f89d a08f 	ldrb.w	sl, [sp, #143]	; 0x8f
  4073ec:	2503      	movs	r5, #3
  4073ee:	950b      	str	r5, [sp, #44]	; 0x2c
  4073f0:	9d09      	ldr	r5, [sp, #36]	; 0x24
  4073f2:	4f46      	ldr	r7, [pc, #280]	; (40750c <_svfprintf_r+0x90c>)
  4073f4:	f025 0580 	bic.w	r5, r5, #128	; 0x80
  4073f8:	4b45      	ldr	r3, [pc, #276]	; (407510 <_svfprintf_r+0x910>)
  4073fa:	2400      	movs	r4, #0
  4073fc:	9509      	str	r5, [sp, #36]	; 0x24
  4073fe:	2500      	movs	r5, #0
  407400:	940a      	str	r4, [sp, #40]	; 0x28
  407402:	f1b8 0f47 	cmp.w	r8, #71	; 0x47
  407406:	bfd8      	it	le
  407408:	461f      	movle	r7, r3
  40740a:	2403      	movs	r4, #3
  40740c:	9514      	str	r5, [sp, #80]	; 0x50
  40740e:	e58e      	b.n	406f2e <_svfprintf_r+0x32e>
  407410:	f8dd c024 	ldr.w	ip, [sp, #36]	; 0x24
  407414:	f04c 0c20 	orr.w	ip, ip, #32
  407418:	f8cd c024 	str.w	ip, [sp, #36]	; 0x24
  40741c:	f899 8000 	ldrb.w	r8, [r9]
  407420:	e44a      	b.n	406cb8 <_svfprintf_r+0xb8>
  407422:	9c10      	ldr	r4, [sp, #64]	; 0x40
  407424:	1de3      	adds	r3, r4, #7
  407426:	f023 0307 	bic.w	r3, r3, #7
  40742a:	f103 0508 	add.w	r5, r3, #8
  40742e:	9510      	str	r5, [sp, #64]	; 0x40
  407430:	e9d3 4500 	ldrd	r4, r5, [r3]
  407434:	2300      	movs	r3, #0
  407436:	e54d      	b.n	406ed4 <_svfprintf_r+0x2d4>
  407438:	9d10      	ldr	r5, [sp, #64]	; 0x40
  40743a:	1deb      	adds	r3, r5, #7
  40743c:	f023 0307 	bic.w	r3, r3, #7
  407440:	f103 0c08 	add.w	ip, r3, #8
  407444:	e9d3 4500 	ldrd	r4, r5, [r3]
  407448:	f8cd c040 	str.w	ip, [sp, #64]	; 0x40
  40744c:	2301      	movs	r3, #1
  40744e:	e541      	b.n	406ed4 <_svfprintf_r+0x2d4>
  407450:	f88d 208f 	strb.w	r2, [sp, #143]	; 0x8f
  407454:	f1b8 0f00 	cmp.w	r8, #0
  407458:	f43f ace3 	beq.w	406e22 <_svfprintf_r+0x222>
  40745c:	2300      	movs	r3, #0
  40745e:	f04f 0c01 	mov.w	ip, #1
  407462:	469a      	mov	sl, r3
  407464:	f8cd c02c 	str.w	ip, [sp, #44]	; 0x2c
  407468:	f88d 80b8 	strb.w	r8, [sp, #184]	; 0xb8
  40746c:	f88d 308f 	strb.w	r3, [sp, #143]	; 0x8f
  407470:	930a      	str	r3, [sp, #40]	; 0x28
  407472:	9314      	str	r3, [sp, #80]	; 0x50
  407474:	4664      	mov	r4, ip
  407476:	af2e      	add	r7, sp, #184	; 0xb8
  407478:	e55f      	b.n	406f3a <_svfprintf_r+0x33a>
  40747a:	f8dd c0b4 	ldr.w	ip, [sp, #180]	; 0xb4
  40747e:	e5b7      	b.n	406ff0 <_svfprintf_r+0x3f0>
  407480:	2b01      	cmp	r3, #1
  407482:	f000 80ec 	beq.w	40765e <_svfprintf_r+0xa5e>
  407486:	2b02      	cmp	r3, #2
  407488:	f10d 03df 	add.w	r3, sp, #223	; 0xdf
  40748c:	d118      	bne.n	4074c0 <_svfprintf_r+0x8c0>
  40748e:	f8dd c068 	ldr.w	ip, [sp, #104]	; 0x68
  407492:	4619      	mov	r1, r3
  407494:	f004 000f 	and.w	r0, r4, #15
  407498:	0922      	lsrs	r2, r4, #4
  40749a:	f81c 0000 	ldrb.w	r0, [ip, r0]
  40749e:	ea42 7205 	orr.w	r2, r2, r5, lsl #28
  4074a2:	092b      	lsrs	r3, r5, #4
  4074a4:	7008      	strb	r0, [r1, #0]
  4074a6:	ea52 0003 	orrs.w	r0, r2, r3
  4074aa:	460f      	mov	r7, r1
  4074ac:	4614      	mov	r4, r2
  4074ae:	461d      	mov	r5, r3
  4074b0:	f101 31ff 	add.w	r1, r1, #4294967295
  4074b4:	d1ee      	bne.n	407494 <_svfprintf_r+0x894>
  4074b6:	9d08      	ldr	r5, [sp, #32]
  4074b8:	e9cd 231e 	strd	r2, r3, [sp, #120]	; 0x78
  4074bc:	1bec      	subs	r4, r5, r7
  4074be:	e52d      	b.n	406f1c <_svfprintf_r+0x31c>
  4074c0:	08e0      	lsrs	r0, r4, #3
  4074c2:	ea40 7045 	orr.w	r0, r0, r5, lsl #29
  4074c6:	f004 0207 	and.w	r2, r4, #7
  4074ca:	08e9      	lsrs	r1, r5, #3
  4074cc:	3230      	adds	r2, #48	; 0x30
  4074ce:	ea50 0c01 	orrs.w	ip, r0, r1
  4074d2:	461f      	mov	r7, r3
  4074d4:	701a      	strb	r2, [r3, #0]
  4074d6:	4604      	mov	r4, r0
  4074d8:	460d      	mov	r5, r1
  4074da:	f103 33ff 	add.w	r3, r3, #4294967295
  4074de:	d1ef      	bne.n	4074c0 <_svfprintf_r+0x8c0>
  4074e0:	9c09      	ldr	r4, [sp, #36]	; 0x24
  4074e2:	e9cd 011c 	strd	r0, r1, [sp, #112]	; 0x70
  4074e6:	07e0      	lsls	r0, r4, #31
  4074e8:	4639      	mov	r1, r7
  4074ea:	f140 80c1 	bpl.w	407670 <_svfprintf_r+0xa70>
  4074ee:	2a30      	cmp	r2, #48	; 0x30
  4074f0:	f000 80be 	beq.w	407670 <_svfprintf_r+0xa70>
  4074f4:	9d08      	ldr	r5, [sp, #32]
  4074f6:	461f      	mov	r7, r3
  4074f8:	2330      	movs	r3, #48	; 0x30
  4074fa:	1bec      	subs	r4, r5, r7
  4074fc:	f801 3c01 	strb.w	r3, [r1, #-1]
  407500:	e50c      	b.n	406f1c <_svfprintf_r+0x31c>
  407502:	bf00      	nop
  407504:	0040c750 	.word	0x0040c750
  407508:	0040c764 	.word	0x0040c764
  40750c:	0040c744 	.word	0x0040c744
  407510:	0040c740 	.word	0x0040c740
  407514:	f1b8 0f65 	cmp.w	r8, #101	; 0x65
  407518:	f340 80ad 	ble.w	407676 <_svfprintf_r+0xa76>
  40751c:	e9dd 0116 	ldrd	r0, r1, [sp, #88]	; 0x58
  407520:	2200      	movs	r2, #0
  407522:	2300      	movs	r3, #0
  407524:	f8cd c01c 	str.w	ip, [sp, #28]
  407528:	f7fe fb28 	bl	405b7c <__aeabi_dcmpeq>
  40752c:	f8dd c01c 	ldr.w	ip, [sp, #28]
  407530:	2800      	cmp	r0, #0
  407532:	f000 8126 	beq.w	407782 <_svfprintf_r+0xb82>
  407536:	9b2c      	ldr	r3, [sp, #176]	; 0xb0
  407538:	49aa      	ldr	r1, [pc, #680]	; (4077e4 <_svfprintf_r+0xbe4>)
  40753a:	3301      	adds	r3, #1
  40753c:	f10c 0c01 	add.w	ip, ip, #1
  407540:	2201      	movs	r2, #1
  407542:	2b07      	cmp	r3, #7
  407544:	f8cd c0b4 	str.w	ip, [sp, #180]	; 0xb4
  407548:	932c      	str	r3, [sp, #176]	; 0xb0
  40754a:	e886 0006 	stmia.w	r6, {r1, r2}
  40754e:	f300 82ed 	bgt.w	407b2c <_svfprintf_r+0xf2c>
  407552:	3608      	adds	r6, #8
  407554:	9b25      	ldr	r3, [sp, #148]	; 0x94
  407556:	9c11      	ldr	r4, [sp, #68]	; 0x44
  407558:	42a3      	cmp	r3, r4
  40755a:	db03      	blt.n	407564 <_svfprintf_r+0x964>
  40755c:	9d09      	ldr	r5, [sp, #36]	; 0x24
  40755e:	07ec      	lsls	r4, r5, #31
  407560:	f57f adc0 	bpl.w	4070e4 <_svfprintf_r+0x4e4>
  407564:	9b2c      	ldr	r3, [sp, #176]	; 0xb0
  407566:	9c18      	ldr	r4, [sp, #96]	; 0x60
  407568:	3301      	adds	r3, #1
  40756a:	9d15      	ldr	r5, [sp, #84]	; 0x54
  40756c:	44a4      	add	ip, r4
  40756e:	2b07      	cmp	r3, #7
  407570:	f8cd c0b4 	str.w	ip, [sp, #180]	; 0xb4
  407574:	6035      	str	r5, [r6, #0]
  407576:	6074      	str	r4, [r6, #4]
  407578:	932c      	str	r3, [sp, #176]	; 0xb0
  40757a:	f300 833e 	bgt.w	407bfa <_svfprintf_r+0xffa>
  40757e:	3608      	adds	r6, #8
  407580:	9d11      	ldr	r5, [sp, #68]	; 0x44
  407582:	1e6c      	subs	r4, r5, #1
  407584:	2c00      	cmp	r4, #0
  407586:	f77f adad 	ble.w	4070e4 <_svfprintf_r+0x4e4>
  40758a:	2c10      	cmp	r4, #16
  40758c:	9b2c      	ldr	r3, [sp, #176]	; 0xb0
  40758e:	4d96      	ldr	r5, [pc, #600]	; (4077e8 <_svfprintf_r+0xbe8>)
  407590:	f340 8197 	ble.w	4078c2 <_svfprintf_r+0xcc2>
  407594:	2710      	movs	r7, #16
  407596:	4662      	mov	r2, ip
  407598:	f8dd 8034 	ldr.w	r8, [sp, #52]	; 0x34
  40759c:	f8dd a030 	ldr.w	sl, [sp, #48]	; 0x30
  4075a0:	e004      	b.n	4075ac <_svfprintf_r+0x9ac>
  4075a2:	3608      	adds	r6, #8
  4075a4:	3c10      	subs	r4, #16
  4075a6:	2c10      	cmp	r4, #16
  4075a8:	f340 818a 	ble.w	4078c0 <_svfprintf_r+0xcc0>
  4075ac:	3301      	adds	r3, #1
  4075ae:	3210      	adds	r2, #16
  4075b0:	2b07      	cmp	r3, #7
  4075b2:	922d      	str	r2, [sp, #180]	; 0xb4
  4075b4:	932c      	str	r3, [sp, #176]	; 0xb0
  4075b6:	e886 00a0 	stmia.w	r6, {r5, r7}
  4075ba:	ddf2      	ble.n	4075a2 <_svfprintf_r+0x9a2>
  4075bc:	4640      	mov	r0, r8
  4075be:	4651      	mov	r1, sl
  4075c0:	aa2b      	add	r2, sp, #172	; 0xac
  4075c2:	f003 fda3 	bl	40b10c <__ssprint_r>
  4075c6:	2800      	cmp	r0, #0
  4075c8:	f47f ac32 	bne.w	406e30 <_svfprintf_r+0x230>
  4075cc:	9a2d      	ldr	r2, [sp, #180]	; 0xb4
  4075ce:	9b2c      	ldr	r3, [sp, #176]	; 0xb0
  4075d0:	ae38      	add	r6, sp, #224	; 0xe0
  4075d2:	e7e7      	b.n	4075a4 <_svfprintf_r+0x9a4>
  4075d4:	9d0f      	ldr	r5, [sp, #60]	; 0x3c
  4075d6:	980b      	ldr	r0, [sp, #44]	; 0x2c
  4075d8:	ebc0 0a05 	rsb	sl, r0, r5
  4075dc:	f1ba 0f00 	cmp.w	sl, #0
  4075e0:	f77f ad2e 	ble.w	407040 <_svfprintf_r+0x440>
  4075e4:	f1ba 0f10 	cmp.w	sl, #16
  4075e8:	9b2c      	ldr	r3, [sp, #176]	; 0xb0
  4075ea:	4d7f      	ldr	r5, [pc, #508]	; (4077e8 <_svfprintf_r+0xbe8>)
  4075ec:	dd2b      	ble.n	407646 <_svfprintf_r+0xa46>
  4075ee:	9412      	str	r4, [sp, #72]	; 0x48
  4075f0:	4632      	mov	r2, r6
  4075f2:	f04f 0b10 	mov.w	fp, #16
  4075f6:	462e      	mov	r6, r5
  4075f8:	4661      	mov	r1, ip
  4075fa:	9c0d      	ldr	r4, [sp, #52]	; 0x34
  4075fc:	9d0c      	ldr	r5, [sp, #48]	; 0x30
  4075fe:	e006      	b.n	40760e <_svfprintf_r+0xa0e>
  407600:	f1aa 0a10 	sub.w	sl, sl, #16
  407604:	f1ba 0f10 	cmp.w	sl, #16
  407608:	f102 0208 	add.w	r2, r2, #8
  40760c:	dd17      	ble.n	40763e <_svfprintf_r+0xa3e>
  40760e:	3301      	adds	r3, #1
  407610:	3110      	adds	r1, #16
  407612:	2b07      	cmp	r3, #7
  407614:	912d      	str	r1, [sp, #180]	; 0xb4
  407616:	932c      	str	r3, [sp, #176]	; 0xb0
  407618:	e882 0840 	stmia.w	r2, {r6, fp}
  40761c:	ddf0      	ble.n	407600 <_svfprintf_r+0xa00>
  40761e:	4620      	mov	r0, r4
  407620:	4629      	mov	r1, r5
  407622:	aa2b      	add	r2, sp, #172	; 0xac
  407624:	f003 fd72 	bl	40b10c <__ssprint_r>
  407628:	2800      	cmp	r0, #0
  40762a:	f47f ac01 	bne.w	406e30 <_svfprintf_r+0x230>
  40762e:	f1aa 0a10 	sub.w	sl, sl, #16
  407632:	f1ba 0f10 	cmp.w	sl, #16
  407636:	992d      	ldr	r1, [sp, #180]	; 0xb4
  407638:	9b2c      	ldr	r3, [sp, #176]	; 0xb0
  40763a:	aa38      	add	r2, sp, #224	; 0xe0
  40763c:	dce7      	bgt.n	40760e <_svfprintf_r+0xa0e>
  40763e:	9c12      	ldr	r4, [sp, #72]	; 0x48
  407640:	4635      	mov	r5, r6
  407642:	468c      	mov	ip, r1
  407644:	4616      	mov	r6, r2
  407646:	3301      	adds	r3, #1
  407648:	44d4      	add	ip, sl
  40764a:	2b07      	cmp	r3, #7
  40764c:	f8cd c0b4 	str.w	ip, [sp, #180]	; 0xb4
  407650:	932c      	str	r3, [sp, #176]	; 0xb0
  407652:	e886 0420 	stmia.w	r6, {r5, sl}
  407656:	f300 820f 	bgt.w	407a78 <_svfprintf_r+0xe78>
  40765a:	3608      	adds	r6, #8
  40765c:	e4f0      	b.n	407040 <_svfprintf_r+0x440>
  40765e:	2d00      	cmp	r5, #0
  407660:	bf08      	it	eq
  407662:	2c0a      	cmpeq	r4, #10
  407664:	f080 8138 	bcs.w	4078d8 <_svfprintf_r+0xcd8>
  407668:	3430      	adds	r4, #48	; 0x30
  40766a:	af48      	add	r7, sp, #288	; 0x120
  40766c:	f807 4d41 	strb.w	r4, [r7, #-65]!
  407670:	9d08      	ldr	r5, [sp, #32]
  407672:	1bec      	subs	r4, r5, r7
  407674:	e452      	b.n	406f1c <_svfprintf_r+0x31c>
  407676:	9c11      	ldr	r4, [sp, #68]	; 0x44
  407678:	2c01      	cmp	r4, #1
  40767a:	9c2c      	ldr	r4, [sp, #176]	; 0xb0
  40767c:	f340 81d2 	ble.w	407a24 <_svfprintf_r+0xe24>
  407680:	3401      	adds	r4, #1
  407682:	f10c 0301 	add.w	r3, ip, #1
  407686:	2201      	movs	r2, #1
  407688:	2c07      	cmp	r4, #7
  40768a:	932d      	str	r3, [sp, #180]	; 0xb4
  40768c:	6037      	str	r7, [r6, #0]
  40768e:	942c      	str	r4, [sp, #176]	; 0xb0
  407690:	6072      	str	r2, [r6, #4]
  407692:	f300 81d8 	bgt.w	407a46 <_svfprintf_r+0xe46>
  407696:	3608      	adds	r6, #8
  407698:	9d15      	ldr	r5, [sp, #84]	; 0x54
  40769a:	f8dd 8060 	ldr.w	r8, [sp, #96]	; 0x60
  40769e:	3401      	adds	r4, #1
  4076a0:	6035      	str	r5, [r6, #0]
  4076a2:	9d18      	ldr	r5, [sp, #96]	; 0x60
  4076a4:	4498      	add	r8, r3
  4076a6:	2c07      	cmp	r4, #7
  4076a8:	f8cd 80b4 	str.w	r8, [sp, #180]	; 0xb4
  4076ac:	942c      	str	r4, [sp, #176]	; 0xb0
  4076ae:	6075      	str	r5, [r6, #4]
  4076b0:	f300 81d5 	bgt.w	407a5e <_svfprintf_r+0xe5e>
  4076b4:	3608      	adds	r6, #8
  4076b6:	e9dd 0116 	ldrd	r0, r1, [sp, #88]	; 0x58
  4076ba:	2200      	movs	r2, #0
  4076bc:	2300      	movs	r3, #0
  4076be:	f7fe fa5d 	bl	405b7c <__aeabi_dcmpeq>
  4076c2:	9d11      	ldr	r5, [sp, #68]	; 0x44
  4076c4:	2800      	cmp	r0, #0
  4076c6:	f040 80b9 	bne.w	40783c <_svfprintf_r+0xc3c>
  4076ca:	1e6b      	subs	r3, r5, #1
  4076cc:	3401      	adds	r4, #1
  4076ce:	3701      	adds	r7, #1
  4076d0:	4498      	add	r8, r3
  4076d2:	2c07      	cmp	r4, #7
  4076d4:	942c      	str	r4, [sp, #176]	; 0xb0
  4076d6:	f8cd 80b4 	str.w	r8, [sp, #180]	; 0xb4
  4076da:	6037      	str	r7, [r6, #0]
  4076dc:	6073      	str	r3, [r6, #4]
  4076de:	f300 80e2 	bgt.w	4078a6 <_svfprintf_r+0xca6>
  4076e2:	3608      	adds	r6, #8
  4076e4:	f8dd c064 	ldr.w	ip, [sp, #100]	; 0x64
  4076e8:	3401      	adds	r4, #1
  4076ea:	9d19      	ldr	r5, [sp, #100]	; 0x64
  4076ec:	44c4      	add	ip, r8
  4076ee:	ab27      	add	r3, sp, #156	; 0x9c
  4076f0:	2c07      	cmp	r4, #7
  4076f2:	f8cd c0b4 	str.w	ip, [sp, #180]	; 0xb4
  4076f6:	942c      	str	r4, [sp, #176]	; 0xb0
  4076f8:	e886 0028 	stmia.w	r6, {r3, r5}
  4076fc:	f77f acf1 	ble.w	4070e2 <_svfprintf_r+0x4e2>
  407700:	980d      	ldr	r0, [sp, #52]	; 0x34
  407702:	990c      	ldr	r1, [sp, #48]	; 0x30
  407704:	aa2b      	add	r2, sp, #172	; 0xac
  407706:	f003 fd01 	bl	40b10c <__ssprint_r>
  40770a:	2800      	cmp	r0, #0
  40770c:	f47f ab90 	bne.w	406e30 <_svfprintf_r+0x230>
  407710:	f8dd c0b4 	ldr.w	ip, [sp, #180]	; 0xb4
  407714:	ae38      	add	r6, sp, #224	; 0xe0
  407716:	e4e5      	b.n	4070e4 <_svfprintf_r+0x4e4>
  407718:	980d      	ldr	r0, [sp, #52]	; 0x34
  40771a:	990c      	ldr	r1, [sp, #48]	; 0x30
  40771c:	aa2b      	add	r2, sp, #172	; 0xac
  40771e:	f003 fcf5 	bl	40b10c <__ssprint_r>
  407722:	2800      	cmp	r0, #0
  407724:	f43f ad37 	beq.w	407196 <_svfprintf_r+0x596>
  407728:	f7ff bb82 	b.w	406e30 <_svfprintf_r+0x230>
  40772c:	980d      	ldr	r0, [sp, #52]	; 0x34
  40772e:	990c      	ldr	r1, [sp, #48]	; 0x30
  407730:	aa2b      	add	r2, sp, #172	; 0xac
  407732:	f003 fceb 	bl	40b10c <__ssprint_r>
  407736:	2800      	cmp	r0, #0
  407738:	f47f ab7a 	bne.w	406e30 <_svfprintf_r+0x230>
  40773c:	f8dd c0b4 	ldr.w	ip, [sp, #180]	; 0xb4
  407740:	ae38      	add	r6, sp, #224	; 0xe0
  407742:	e4bf      	b.n	4070c4 <_svfprintf_r+0x4c4>
  407744:	980d      	ldr	r0, [sp, #52]	; 0x34
  407746:	990c      	ldr	r1, [sp, #48]	; 0x30
  407748:	aa2b      	add	r2, sp, #172	; 0xac
  40774a:	f003 fcdf 	bl	40b10c <__ssprint_r>
  40774e:	2800      	cmp	r0, #0
  407750:	f47f ab6e 	bne.w	406e30 <_svfprintf_r+0x230>
  407754:	f8dd c0b4 	ldr.w	ip, [sp, #180]	; 0xb4
  407758:	ae38      	add	r6, sp, #224	; 0xe0
  40775a:	e46d      	b.n	407038 <_svfprintf_r+0x438>
  40775c:	980d      	ldr	r0, [sp, #52]	; 0x34
  40775e:	990c      	ldr	r1, [sp, #48]	; 0x30
  407760:	aa2b      	add	r2, sp, #172	; 0xac
  407762:	f003 fcd3 	bl	40b10c <__ssprint_r>
  407766:	2800      	cmp	r0, #0
  407768:	f47f ab62 	bne.w	406e30 <_svfprintf_r+0x230>
  40776c:	f8dd c0b4 	ldr.w	ip, [sp, #180]	; 0xb4
  407770:	ae38      	add	r6, sp, #224	; 0xe0
  407772:	e450      	b.n	407016 <_svfprintf_r+0x416>
  407774:	9c0a      	ldr	r4, [sp, #40]	; 0x28
  407776:	af38      	add	r7, sp, #224	; 0xe0
  407778:	f7ff bbd0 	b.w	406f1c <_svfprintf_r+0x31c>
  40777c:	2302      	movs	r3, #2
  40777e:	f7ff bba9 	b.w	406ed4 <_svfprintf_r+0x2d4>
  407782:	9b25      	ldr	r3, [sp, #148]	; 0x94
  407784:	2b00      	cmp	r3, #0
  407786:	f340 81dd 	ble.w	407b44 <_svfprintf_r+0xf44>
  40778a:	9c11      	ldr	r4, [sp, #68]	; 0x44
  40778c:	9d14      	ldr	r5, [sp, #80]	; 0x50
  40778e:	f8dd a044 	ldr.w	sl, [sp, #68]	; 0x44
  407792:	42ac      	cmp	r4, r5
  407794:	bfa8      	it	ge
  407796:	462c      	movge	r4, r5
  407798:	2c00      	cmp	r4, #0
  40779a:	44ba      	add	sl, r7
  40779c:	dd0b      	ble.n	4077b6 <_svfprintf_r+0xbb6>
  40779e:	9b2c      	ldr	r3, [sp, #176]	; 0xb0
  4077a0:	44a4      	add	ip, r4
  4077a2:	3301      	adds	r3, #1
  4077a4:	2b07      	cmp	r3, #7
  4077a6:	f8cd c0b4 	str.w	ip, [sp, #180]	; 0xb4
  4077aa:	6037      	str	r7, [r6, #0]
  4077ac:	6074      	str	r4, [r6, #4]
  4077ae:	932c      	str	r3, [sp, #176]	; 0xb0
  4077b0:	f300 831e 	bgt.w	407df0 <_svfprintf_r+0x11f0>
  4077b4:	3608      	adds	r6, #8
  4077b6:	9d14      	ldr	r5, [sp, #80]	; 0x50
  4077b8:	ea24 74e4 	bic.w	r4, r4, r4, asr #31
  4077bc:	1b2c      	subs	r4, r5, r4
  4077be:	2c00      	cmp	r4, #0
  4077c0:	f340 80d7 	ble.w	407972 <_svfprintf_r+0xd72>
  4077c4:	2c10      	cmp	r4, #16
  4077c6:	9b2c      	ldr	r3, [sp, #176]	; 0xb0
  4077c8:	4d07      	ldr	r5, [pc, #28]	; (4077e8 <_svfprintf_r+0xbe8>)
  4077ca:	f340 81a3 	ble.w	407b14 <_svfprintf_r+0xf14>
  4077ce:	970a      	str	r7, [sp, #40]	; 0x28
  4077d0:	f04f 0810 	mov.w	r8, #16
  4077d4:	462f      	mov	r7, r5
  4077d6:	4662      	mov	r2, ip
  4077d8:	4625      	mov	r5, r4
  4077da:	f8dd b034 	ldr.w	fp, [sp, #52]	; 0x34
  4077de:	9c0c      	ldr	r4, [sp, #48]	; 0x30
  4077e0:	e009      	b.n	4077f6 <_svfprintf_r+0xbf6>
  4077e2:	bf00      	nop
  4077e4:	0040c780 	.word	0x0040c780
  4077e8:	0040c730 	.word	0x0040c730
  4077ec:	3608      	adds	r6, #8
  4077ee:	3d10      	subs	r5, #16
  4077f0:	2d10      	cmp	r5, #16
  4077f2:	f340 818b 	ble.w	407b0c <_svfprintf_r+0xf0c>
  4077f6:	3301      	adds	r3, #1
  4077f8:	3210      	adds	r2, #16
  4077fa:	2b07      	cmp	r3, #7
  4077fc:	922d      	str	r2, [sp, #180]	; 0xb4
  4077fe:	932c      	str	r3, [sp, #176]	; 0xb0
  407800:	e886 0180 	stmia.w	r6, {r7, r8}
  407804:	ddf2      	ble.n	4077ec <_svfprintf_r+0xbec>
  407806:	4658      	mov	r0, fp
  407808:	4621      	mov	r1, r4
  40780a:	aa2b      	add	r2, sp, #172	; 0xac
  40780c:	f003 fc7e 	bl	40b10c <__ssprint_r>
  407810:	2800      	cmp	r0, #0
  407812:	f47f ab0d 	bne.w	406e30 <_svfprintf_r+0x230>
  407816:	9a2d      	ldr	r2, [sp, #180]	; 0xb4
  407818:	9b2c      	ldr	r3, [sp, #176]	; 0xb0
  40781a:	ae38      	add	r6, sp, #224	; 0xe0
  40781c:	e7e7      	b.n	4077ee <_svfprintf_r+0xbee>
  40781e:	980d      	ldr	r0, [sp, #52]	; 0x34
  407820:	990c      	ldr	r1, [sp, #48]	; 0x30
  407822:	aa2b      	add	r2, sp, #172	; 0xac
  407824:	f003 fc72 	bl	40b10c <__ssprint_r>
  407828:	2800      	cmp	r0, #0
  40782a:	f47f ab01 	bne.w	406e30 <_svfprintf_r+0x230>
  40782e:	f89d a08f 	ldrb.w	sl, [sp, #143]	; 0x8f
  407832:	f8dd c0b4 	ldr.w	ip, [sp, #180]	; 0xb4
  407836:	ae38      	add	r6, sp, #224	; 0xe0
  407838:	f7ff bbda 	b.w	406ff0 <_svfprintf_r+0x3f0>
  40783c:	1e6f      	subs	r7, r5, #1
  40783e:	2f00      	cmp	r7, #0
  407840:	f77f af50 	ble.w	4076e4 <_svfprintf_r+0xae4>
  407844:	2f10      	cmp	r7, #16
  407846:	4dae      	ldr	r5, [pc, #696]	; (407b00 <_svfprintf_r+0xf00>)
  407848:	dd23      	ble.n	407892 <_svfprintf_r+0xc92>
  40784a:	4643      	mov	r3, r8
  40784c:	f04f 0a10 	mov.w	sl, #16
  407850:	f8dd 8034 	ldr.w	r8, [sp, #52]	; 0x34
  407854:	f8dd b030 	ldr.w	fp, [sp, #48]	; 0x30
  407858:	e004      	b.n	407864 <_svfprintf_r+0xc64>
  40785a:	3f10      	subs	r7, #16
  40785c:	2f10      	cmp	r7, #16
  40785e:	f106 0608 	add.w	r6, r6, #8
  407862:	dd15      	ble.n	407890 <_svfprintf_r+0xc90>
  407864:	3401      	adds	r4, #1
  407866:	3310      	adds	r3, #16
  407868:	2c07      	cmp	r4, #7
  40786a:	932d      	str	r3, [sp, #180]	; 0xb4
  40786c:	942c      	str	r4, [sp, #176]	; 0xb0
  40786e:	e886 0420 	stmia.w	r6, {r5, sl}
  407872:	ddf2      	ble.n	40785a <_svfprintf_r+0xc5a>
  407874:	4640      	mov	r0, r8
  407876:	4659      	mov	r1, fp
  407878:	aa2b      	add	r2, sp, #172	; 0xac
  40787a:	f003 fc47 	bl	40b10c <__ssprint_r>
  40787e:	2800      	cmp	r0, #0
  407880:	f47f aad6 	bne.w	406e30 <_svfprintf_r+0x230>
  407884:	3f10      	subs	r7, #16
  407886:	2f10      	cmp	r7, #16
  407888:	9b2d      	ldr	r3, [sp, #180]	; 0xb4
  40788a:	9c2c      	ldr	r4, [sp, #176]	; 0xb0
  40788c:	ae38      	add	r6, sp, #224	; 0xe0
  40788e:	dce9      	bgt.n	407864 <_svfprintf_r+0xc64>
  407890:	4698      	mov	r8, r3
  407892:	3401      	adds	r4, #1
  407894:	44b8      	add	r8, r7
  407896:	2c07      	cmp	r4, #7
  407898:	f8cd 80b4 	str.w	r8, [sp, #180]	; 0xb4
  40789c:	942c      	str	r4, [sp, #176]	; 0xb0
  40789e:	e886 00a0 	stmia.w	r6, {r5, r7}
  4078a2:	f77f af1e 	ble.w	4076e2 <_svfprintf_r+0xae2>
  4078a6:	980d      	ldr	r0, [sp, #52]	; 0x34
  4078a8:	990c      	ldr	r1, [sp, #48]	; 0x30
  4078aa:	aa2b      	add	r2, sp, #172	; 0xac
  4078ac:	f003 fc2e 	bl	40b10c <__ssprint_r>
  4078b0:	2800      	cmp	r0, #0
  4078b2:	f47f aabd 	bne.w	406e30 <_svfprintf_r+0x230>
  4078b6:	f8dd 80b4 	ldr.w	r8, [sp, #180]	; 0xb4
  4078ba:	9c2c      	ldr	r4, [sp, #176]	; 0xb0
  4078bc:	ae38      	add	r6, sp, #224	; 0xe0
  4078be:	e711      	b.n	4076e4 <_svfprintf_r+0xae4>
  4078c0:	4694      	mov	ip, r2
  4078c2:	3301      	adds	r3, #1
  4078c4:	44a4      	add	ip, r4
  4078c6:	2b07      	cmp	r3, #7
  4078c8:	f8cd c0b4 	str.w	ip, [sp, #180]	; 0xb4
  4078cc:	932c      	str	r3, [sp, #176]	; 0xb0
  4078ce:	6035      	str	r5, [r6, #0]
  4078d0:	6074      	str	r4, [r6, #4]
  4078d2:	f77f ac06 	ble.w	4070e2 <_svfprintf_r+0x4e2>
  4078d6:	e713      	b.n	407700 <_svfprintf_r+0xb00>
  4078d8:	f10d 0bdf 	add.w	fp, sp, #223	; 0xdf
  4078dc:	4620      	mov	r0, r4
  4078de:	4629      	mov	r1, r5
  4078e0:	220a      	movs	r2, #10
  4078e2:	2300      	movs	r3, #0
  4078e4:	f003 fe5c 	bl	40b5a0 <__aeabi_uldivmod>
  4078e8:	3230      	adds	r2, #48	; 0x30
  4078ea:	f88b 2000 	strb.w	r2, [fp]
  4078ee:	4620      	mov	r0, r4
  4078f0:	4629      	mov	r1, r5
  4078f2:	220a      	movs	r2, #10
  4078f4:	2300      	movs	r3, #0
  4078f6:	f003 fe53 	bl	40b5a0 <__aeabi_uldivmod>
  4078fa:	4604      	mov	r4, r0
  4078fc:	460d      	mov	r5, r1
  4078fe:	ea54 0c05 	orrs.w	ip, r4, r5
  407902:	465f      	mov	r7, fp
  407904:	f10b 3bff 	add.w	fp, fp, #4294967295
  407908:	d1e8      	bne.n	4078dc <_svfprintf_r+0xcdc>
  40790a:	9d08      	ldr	r5, [sp, #32]
  40790c:	1bec      	subs	r4, r5, r7
  40790e:	f7ff bb05 	b.w	406f1c <_svfprintf_r+0x31c>
  407912:	9d10      	ldr	r5, [sp, #64]	; 0x40
  407914:	2301      	movs	r3, #1
  407916:	682c      	ldr	r4, [r5, #0]
  407918:	3504      	adds	r5, #4
  40791a:	9510      	str	r5, [sp, #64]	; 0x40
  40791c:	2500      	movs	r5, #0
  40791e:	f7ff bad9 	b.w	406ed4 <_svfprintf_r+0x2d4>
  407922:	9d10      	ldr	r5, [sp, #64]	; 0x40
  407924:	682c      	ldr	r4, [r5, #0]
  407926:	3504      	adds	r5, #4
  407928:	9510      	str	r5, [sp, #64]	; 0x40
  40792a:	2500      	movs	r5, #0
  40792c:	f7ff bad2 	b.w	406ed4 <_svfprintf_r+0x2d4>
  407930:	9d10      	ldr	r5, [sp, #64]	; 0x40
  407932:	682c      	ldr	r4, [r5, #0]
  407934:	3504      	adds	r5, #4
  407936:	9510      	str	r5, [sp, #64]	; 0x40
  407938:	17e5      	asrs	r5, r4, #31
  40793a:	4622      	mov	r2, r4
  40793c:	462b      	mov	r3, r5
  40793e:	2a00      	cmp	r2, #0
  407940:	f173 0c00 	sbcs.w	ip, r3, #0
  407944:	f6bf ac6c 	bge.w	407220 <_svfprintf_r+0x620>
  407948:	f04f 0a2d 	mov.w	sl, #45	; 0x2d
  40794c:	4264      	negs	r4, r4
  40794e:	eb65 0545 	sbc.w	r5, r5, r5, lsl #1
  407952:	f88d a08f 	strb.w	sl, [sp, #143]	; 0x8f
  407956:	2301      	movs	r3, #1
  407958:	f7ff bac0 	b.w	406edc <_svfprintf_r+0x2dc>
  40795c:	980d      	ldr	r0, [sp, #52]	; 0x34
  40795e:	990c      	ldr	r1, [sp, #48]	; 0x30
  407960:	aa2b      	add	r2, sp, #172	; 0xac
  407962:	f003 fbd3 	bl	40b10c <__ssprint_r>
  407966:	2800      	cmp	r0, #0
  407968:	f47f aa62 	bne.w	406e30 <_svfprintf_r+0x230>
  40796c:	f8dd c0b4 	ldr.w	ip, [sp, #180]	; 0xb4
  407970:	ae38      	add	r6, sp, #224	; 0xe0
  407972:	9d14      	ldr	r5, [sp, #80]	; 0x50
  407974:	9c25      	ldr	r4, [sp, #148]	; 0x94
  407976:	442f      	add	r7, r5
  407978:	9d11      	ldr	r5, [sp, #68]	; 0x44
  40797a:	42ac      	cmp	r4, r5
  40797c:	db42      	blt.n	407a04 <_svfprintf_r+0xe04>
  40797e:	9d09      	ldr	r5, [sp, #36]	; 0x24
  407980:	07e9      	lsls	r1, r5, #31
  407982:	d43f      	bmi.n	407a04 <_svfprintf_r+0xe04>
  407984:	9811      	ldr	r0, [sp, #68]	; 0x44
  407986:	ebc7 050a 	rsb	r5, r7, sl
  40798a:	1b04      	subs	r4, r0, r4
  40798c:	42ac      	cmp	r4, r5
  40798e:	bfb8      	it	lt
  407990:	4625      	movlt	r5, r4
  407992:	2d00      	cmp	r5, #0
  407994:	dd0b      	ble.n	4079ae <_svfprintf_r+0xdae>
  407996:	9b2c      	ldr	r3, [sp, #176]	; 0xb0
  407998:	44ac      	add	ip, r5
  40799a:	3301      	adds	r3, #1
  40799c:	2b07      	cmp	r3, #7
  40799e:	f8cd c0b4 	str.w	ip, [sp, #180]	; 0xb4
  4079a2:	6037      	str	r7, [r6, #0]
  4079a4:	6075      	str	r5, [r6, #4]
  4079a6:	932c      	str	r3, [sp, #176]	; 0xb0
  4079a8:	f300 824c 	bgt.w	407e44 <_svfprintf_r+0x1244>
  4079ac:	3608      	adds	r6, #8
  4079ae:	ea25 75e5 	bic.w	r5, r5, r5, asr #31
  4079b2:	1b64      	subs	r4, r4, r5
  4079b4:	2c00      	cmp	r4, #0
  4079b6:	f77f ab95 	ble.w	4070e4 <_svfprintf_r+0x4e4>
  4079ba:	2c10      	cmp	r4, #16
  4079bc:	9b2c      	ldr	r3, [sp, #176]	; 0xb0
  4079be:	4d50      	ldr	r5, [pc, #320]	; (407b00 <_svfprintf_r+0xf00>)
  4079c0:	f77f af7f 	ble.w	4078c2 <_svfprintf_r+0xcc2>
  4079c4:	2710      	movs	r7, #16
  4079c6:	4662      	mov	r2, ip
  4079c8:	f8dd 8034 	ldr.w	r8, [sp, #52]	; 0x34
  4079cc:	f8dd a030 	ldr.w	sl, [sp, #48]	; 0x30
  4079d0:	e004      	b.n	4079dc <_svfprintf_r+0xddc>
  4079d2:	3608      	adds	r6, #8
  4079d4:	3c10      	subs	r4, #16
  4079d6:	2c10      	cmp	r4, #16
  4079d8:	f77f af72 	ble.w	4078c0 <_svfprintf_r+0xcc0>
  4079dc:	3301      	adds	r3, #1
  4079de:	3210      	adds	r2, #16
  4079e0:	2b07      	cmp	r3, #7
  4079e2:	922d      	str	r2, [sp, #180]	; 0xb4
  4079e4:	932c      	str	r3, [sp, #176]	; 0xb0
  4079e6:	e886 00a0 	stmia.w	r6, {r5, r7}
  4079ea:	ddf2      	ble.n	4079d2 <_svfprintf_r+0xdd2>
  4079ec:	4640      	mov	r0, r8
  4079ee:	4651      	mov	r1, sl
  4079f0:	aa2b      	add	r2, sp, #172	; 0xac
  4079f2:	f003 fb8b 	bl	40b10c <__ssprint_r>
  4079f6:	2800      	cmp	r0, #0
  4079f8:	f47f aa1a 	bne.w	406e30 <_svfprintf_r+0x230>
  4079fc:	9a2d      	ldr	r2, [sp, #180]	; 0xb4
  4079fe:	9b2c      	ldr	r3, [sp, #176]	; 0xb0
  407a00:	ae38      	add	r6, sp, #224	; 0xe0
  407a02:	e7e7      	b.n	4079d4 <_svfprintf_r+0xdd4>
  407a04:	9d18      	ldr	r5, [sp, #96]	; 0x60
  407a06:	9b2c      	ldr	r3, [sp, #176]	; 0xb0
  407a08:	44ac      	add	ip, r5
  407a0a:	9d15      	ldr	r5, [sp, #84]	; 0x54
  407a0c:	3301      	adds	r3, #1
  407a0e:	6035      	str	r5, [r6, #0]
  407a10:	9d18      	ldr	r5, [sp, #96]	; 0x60
  407a12:	2b07      	cmp	r3, #7
  407a14:	f8cd c0b4 	str.w	ip, [sp, #180]	; 0xb4
  407a18:	6075      	str	r5, [r6, #4]
  407a1a:	932c      	str	r3, [sp, #176]	; 0xb0
  407a1c:	f300 81f4 	bgt.w	407e08 <_svfprintf_r+0x1208>
  407a20:	3608      	adds	r6, #8
  407a22:	e7af      	b.n	407984 <_svfprintf_r+0xd84>
  407a24:	9d09      	ldr	r5, [sp, #36]	; 0x24
  407a26:	07ea      	lsls	r2, r5, #31
  407a28:	f53f ae2a 	bmi.w	407680 <_svfprintf_r+0xa80>
  407a2c:	3401      	adds	r4, #1
  407a2e:	f10c 0801 	add.w	r8, ip, #1
  407a32:	2301      	movs	r3, #1
  407a34:	2c07      	cmp	r4, #7
  407a36:	f8cd 80b4 	str.w	r8, [sp, #180]	; 0xb4
  407a3a:	942c      	str	r4, [sp, #176]	; 0xb0
  407a3c:	6037      	str	r7, [r6, #0]
  407a3e:	6073      	str	r3, [r6, #4]
  407a40:	f77f ae4f 	ble.w	4076e2 <_svfprintf_r+0xae2>
  407a44:	e72f      	b.n	4078a6 <_svfprintf_r+0xca6>
  407a46:	980d      	ldr	r0, [sp, #52]	; 0x34
  407a48:	990c      	ldr	r1, [sp, #48]	; 0x30
  407a4a:	aa2b      	add	r2, sp, #172	; 0xac
  407a4c:	f003 fb5e 	bl	40b10c <__ssprint_r>
  407a50:	2800      	cmp	r0, #0
  407a52:	f47f a9ed 	bne.w	406e30 <_svfprintf_r+0x230>
  407a56:	9b2d      	ldr	r3, [sp, #180]	; 0xb4
  407a58:	9c2c      	ldr	r4, [sp, #176]	; 0xb0
  407a5a:	ae38      	add	r6, sp, #224	; 0xe0
  407a5c:	e61c      	b.n	407698 <_svfprintf_r+0xa98>
  407a5e:	980d      	ldr	r0, [sp, #52]	; 0x34
  407a60:	990c      	ldr	r1, [sp, #48]	; 0x30
  407a62:	aa2b      	add	r2, sp, #172	; 0xac
  407a64:	f003 fb52 	bl	40b10c <__ssprint_r>
  407a68:	2800      	cmp	r0, #0
  407a6a:	f47f a9e1 	bne.w	406e30 <_svfprintf_r+0x230>
  407a6e:	f8dd 80b4 	ldr.w	r8, [sp, #180]	; 0xb4
  407a72:	9c2c      	ldr	r4, [sp, #176]	; 0xb0
  407a74:	ae38      	add	r6, sp, #224	; 0xe0
  407a76:	e61e      	b.n	4076b6 <_svfprintf_r+0xab6>
  407a78:	980d      	ldr	r0, [sp, #52]	; 0x34
  407a7a:	990c      	ldr	r1, [sp, #48]	; 0x30
  407a7c:	aa2b      	add	r2, sp, #172	; 0xac
  407a7e:	f003 fb45 	bl	40b10c <__ssprint_r>
  407a82:	2800      	cmp	r0, #0
  407a84:	f47f a9d4 	bne.w	406e30 <_svfprintf_r+0x230>
  407a88:	f8dd c0b4 	ldr.w	ip, [sp, #180]	; 0xb4
  407a8c:	ae38      	add	r6, sp, #224	; 0xe0
  407a8e:	f7ff bad7 	b.w	407040 <_svfprintf_r+0x440>
  407a92:	f003 fad1 	bl	40b038 <__fpclassifyd>
  407a96:	2800      	cmp	r0, #0
  407a98:	f040 80bb 	bne.w	407c12 <_svfprintf_r+0x1012>
  407a9c:	9c09      	ldr	r4, [sp, #36]	; 0x24
  407a9e:	4f19      	ldr	r7, [pc, #100]	; (407b04 <_svfprintf_r+0xf04>)
  407aa0:	4b19      	ldr	r3, [pc, #100]	; (407b08 <_svfprintf_r+0xf08>)
  407aa2:	f04f 0c03 	mov.w	ip, #3
  407aa6:	f024 0480 	bic.w	r4, r4, #128	; 0x80
  407aaa:	9409      	str	r4, [sp, #36]	; 0x24
  407aac:	900a      	str	r0, [sp, #40]	; 0x28
  407aae:	f8cd c02c 	str.w	ip, [sp, #44]	; 0x2c
  407ab2:	9014      	str	r0, [sp, #80]	; 0x50
  407ab4:	f1b8 0f47 	cmp.w	r8, #71	; 0x47
  407ab8:	bfd8      	it	le
  407aba:	461f      	movle	r7, r3
  407abc:	4664      	mov	r4, ip
  407abe:	f89d a08f 	ldrb.w	sl, [sp, #143]	; 0x8f
  407ac2:	f7ff ba34 	b.w	406f2e <_svfprintf_r+0x32e>
  407ac6:	9c09      	ldr	r4, [sp, #36]	; 0x24
  407ac8:	0664      	lsls	r4, r4, #25
  407aca:	f140 8150 	bpl.w	407d6e <_svfprintf_r+0x116e>
  407ace:	f8dd c040 	ldr.w	ip, [sp, #64]	; 0x40
  407ad2:	2500      	movs	r5, #0
  407ad4:	f8bc 4000 	ldrh.w	r4, [ip]
  407ad8:	f10c 0c04 	add.w	ip, ip, #4
  407adc:	f8cd c040 	str.w	ip, [sp, #64]	; 0x40
  407ae0:	f7ff b9e4 	b.w	406eac <_svfprintf_r+0x2ac>
  407ae4:	f8dd c024 	ldr.w	ip, [sp, #36]	; 0x24
  407ae8:	f01c 0f10 	tst.w	ip, #16
  407aec:	f000 8146 	beq.w	407d7c <_svfprintf_r+0x117c>
  407af0:	9c10      	ldr	r4, [sp, #64]	; 0x40
  407af2:	9d0e      	ldr	r5, [sp, #56]	; 0x38
  407af4:	6823      	ldr	r3, [r4, #0]
  407af6:	3404      	adds	r4, #4
  407af8:	9410      	str	r4, [sp, #64]	; 0x40
  407afa:	601d      	str	r5, [r3, #0]
  407afc:	f7ff b8a6 	b.w	406c4c <_svfprintf_r+0x4c>
  407b00:	0040c730 	.word	0x0040c730
  407b04:	0040c74c 	.word	0x0040c74c
  407b08:	0040c748 	.word	0x0040c748
  407b0c:	462c      	mov	r4, r5
  407b0e:	463d      	mov	r5, r7
  407b10:	9f0a      	ldr	r7, [sp, #40]	; 0x28
  407b12:	4694      	mov	ip, r2
  407b14:	3301      	adds	r3, #1
  407b16:	44a4      	add	ip, r4
  407b18:	2b07      	cmp	r3, #7
  407b1a:	f8cd c0b4 	str.w	ip, [sp, #180]	; 0xb4
  407b1e:	932c      	str	r3, [sp, #176]	; 0xb0
  407b20:	6035      	str	r5, [r6, #0]
  407b22:	6074      	str	r4, [r6, #4]
  407b24:	f73f af1a 	bgt.w	40795c <_svfprintf_r+0xd5c>
  407b28:	3608      	adds	r6, #8
  407b2a:	e722      	b.n	407972 <_svfprintf_r+0xd72>
  407b2c:	980d      	ldr	r0, [sp, #52]	; 0x34
  407b2e:	990c      	ldr	r1, [sp, #48]	; 0x30
  407b30:	aa2b      	add	r2, sp, #172	; 0xac
  407b32:	f003 faeb 	bl	40b10c <__ssprint_r>
  407b36:	2800      	cmp	r0, #0
  407b38:	f47f a97a 	bne.w	406e30 <_svfprintf_r+0x230>
  407b3c:	f8dd c0b4 	ldr.w	ip, [sp, #180]	; 0xb4
  407b40:	ae38      	add	r6, sp, #224	; 0xe0
  407b42:	e507      	b.n	407554 <_svfprintf_r+0x954>
  407b44:	9a2c      	ldr	r2, [sp, #176]	; 0xb0
  407b46:	49b7      	ldr	r1, [pc, #732]	; (407e24 <_svfprintf_r+0x1224>)
  407b48:	3201      	adds	r2, #1
  407b4a:	f10c 0c01 	add.w	ip, ip, #1
  407b4e:	2001      	movs	r0, #1
  407b50:	2a07      	cmp	r2, #7
  407b52:	f8cd c0b4 	str.w	ip, [sp, #180]	; 0xb4
  407b56:	922c      	str	r2, [sp, #176]	; 0xb0
  407b58:	6031      	str	r1, [r6, #0]
  407b5a:	6070      	str	r0, [r6, #4]
  407b5c:	f300 80f7 	bgt.w	407d4e <_svfprintf_r+0x114e>
  407b60:	3608      	adds	r6, #8
  407b62:	461c      	mov	r4, r3
  407b64:	b92c      	cbnz	r4, 407b72 <_svfprintf_r+0xf72>
  407b66:	9d11      	ldr	r5, [sp, #68]	; 0x44
  407b68:	b91d      	cbnz	r5, 407b72 <_svfprintf_r+0xf72>
  407b6a:	9d09      	ldr	r5, [sp, #36]	; 0x24
  407b6c:	07e8      	lsls	r0, r5, #31
  407b6e:	f57f aab9 	bpl.w	4070e4 <_svfprintf_r+0x4e4>
  407b72:	9b2c      	ldr	r3, [sp, #176]	; 0xb0
  407b74:	9d15      	ldr	r5, [sp, #84]	; 0x54
  407b76:	9918      	ldr	r1, [sp, #96]	; 0x60
  407b78:	3301      	adds	r3, #1
  407b7a:	6035      	str	r5, [r6, #0]
  407b7c:	9d18      	ldr	r5, [sp, #96]	; 0x60
  407b7e:	4461      	add	r1, ip
  407b80:	2b07      	cmp	r3, #7
  407b82:	912d      	str	r1, [sp, #180]	; 0xb4
  407b84:	6075      	str	r5, [r6, #4]
  407b86:	932c      	str	r3, [sp, #176]	; 0xb0
  407b88:	f300 81de 	bgt.w	407f48 <_svfprintf_r+0x1348>
  407b8c:	f106 0208 	add.w	r2, r6, #8
  407b90:	4264      	negs	r4, r4
  407b92:	2c00      	cmp	r4, #0
  407b94:	f340 810b 	ble.w	407dae <_svfprintf_r+0x11ae>
  407b98:	2c10      	cmp	r4, #16
  407b9a:	4da3      	ldr	r5, [pc, #652]	; (407e28 <_svfprintf_r+0x1228>)
  407b9c:	f340 8148 	ble.w	407e30 <_svfprintf_r+0x1230>
  407ba0:	46a3      	mov	fp, r4
  407ba2:	2610      	movs	r6, #16
  407ba4:	460c      	mov	r4, r1
  407ba6:	f8dd 8034 	ldr.w	r8, [sp, #52]	; 0x34
  407baa:	f8dd a030 	ldr.w	sl, [sp, #48]	; 0x30
  407bae:	e006      	b.n	407bbe <_svfprintf_r+0xfbe>
  407bb0:	3208      	adds	r2, #8
  407bb2:	f1ab 0b10 	sub.w	fp, fp, #16
  407bb6:	f1bb 0f10 	cmp.w	fp, #16
  407bba:	f340 8137 	ble.w	407e2c <_svfprintf_r+0x122c>
  407bbe:	3301      	adds	r3, #1
  407bc0:	3410      	adds	r4, #16
  407bc2:	2b07      	cmp	r3, #7
  407bc4:	942d      	str	r4, [sp, #180]	; 0xb4
  407bc6:	932c      	str	r3, [sp, #176]	; 0xb0
  407bc8:	e882 0060 	stmia.w	r2, {r5, r6}
  407bcc:	ddf0      	ble.n	407bb0 <_svfprintf_r+0xfb0>
  407bce:	4640      	mov	r0, r8
  407bd0:	4651      	mov	r1, sl
  407bd2:	aa2b      	add	r2, sp, #172	; 0xac
  407bd4:	f003 fa9a 	bl	40b10c <__ssprint_r>
  407bd8:	2800      	cmp	r0, #0
  407bda:	f47f a929 	bne.w	406e30 <_svfprintf_r+0x230>
  407bde:	9c2d      	ldr	r4, [sp, #180]	; 0xb4
  407be0:	9b2c      	ldr	r3, [sp, #176]	; 0xb0
  407be2:	aa38      	add	r2, sp, #224	; 0xe0
  407be4:	e7e5      	b.n	407bb2 <_svfprintf_r+0xfb2>
  407be6:	9c09      	ldr	r4, [sp, #36]	; 0x24
  407be8:	f109 0901 	add.w	r9, r9, #1
  407bec:	f044 0420 	orr.w	r4, r4, #32
  407bf0:	9409      	str	r4, [sp, #36]	; 0x24
  407bf2:	f893 8001 	ldrb.w	r8, [r3, #1]
  407bf6:	f7ff b85f 	b.w	406cb8 <_svfprintf_r+0xb8>
  407bfa:	980d      	ldr	r0, [sp, #52]	; 0x34
  407bfc:	990c      	ldr	r1, [sp, #48]	; 0x30
  407bfe:	aa2b      	add	r2, sp, #172	; 0xac
  407c00:	f003 fa84 	bl	40b10c <__ssprint_r>
  407c04:	2800      	cmp	r0, #0
  407c06:	f47f a913 	bne.w	406e30 <_svfprintf_r+0x230>
  407c0a:	f8dd c0b4 	ldr.w	ip, [sp, #180]	; 0xb4
  407c0e:	ae38      	add	r6, sp, #224	; 0xe0
  407c10:	e4b6      	b.n	407580 <_svfprintf_r+0x980>
  407c12:	9d0a      	ldr	r5, [sp, #40]	; 0x28
  407c14:	f028 0a20 	bic.w	sl, r8, #32
  407c18:	3501      	adds	r5, #1
  407c1a:	f000 80a5 	beq.w	407d68 <_svfprintf_r+0x1168>
  407c1e:	f1ba 0f47 	cmp.w	sl, #71	; 0x47
  407c22:	d104      	bne.n	407c2e <_svfprintf_r+0x102e>
  407c24:	9d0a      	ldr	r5, [sp, #40]	; 0x28
  407c26:	2d00      	cmp	r5, #0
  407c28:	bf08      	it	eq
  407c2a:	2501      	moveq	r5, #1
  407c2c:	950a      	str	r5, [sp, #40]	; 0x28
  407c2e:	f8dd c024 	ldr.w	ip, [sp, #36]	; 0x24
  407c32:	e9dd 2316 	ldrd	r2, r3, [sp, #88]	; 0x58
  407c36:	f44c 7c80 	orr.w	ip, ip, #256	; 0x100
  407c3a:	2b00      	cmp	r3, #0
  407c3c:	f8cd c048 	str.w	ip, [sp, #72]	; 0x48
  407c40:	f2c0 819c 	blt.w	407f7c <_svfprintf_r+0x137c>
  407c44:	e9dd 4516 	ldrd	r4, r5, [sp, #88]	; 0x58
  407c48:	e9cd 4520 	strd	r4, r5, [sp, #128]	; 0x80
  407c4c:	f04f 0b00 	mov.w	fp, #0
  407c50:	f1b8 0f66 	cmp.w	r8, #102	; 0x66
  407c54:	f000 819b 	beq.w	407f8e <_svfprintf_r+0x138e>
  407c58:	f1b8 0f46 	cmp.w	r8, #70	; 0x46
  407c5c:	f000 81a9 	beq.w	407fb2 <_svfprintf_r+0x13b2>
  407c60:	f1ba 0f45 	cmp.w	sl, #69	; 0x45
  407c64:	bf0a      	itet	eq
  407c66:	9c0a      	ldreq	r4, [sp, #40]	; 0x28
  407c68:	9d0a      	ldrne	r5, [sp, #40]	; 0x28
  407c6a:	1c65      	addeq	r5, r4, #1
  407c6c:	2002      	movs	r0, #2
  407c6e:	a925      	add	r1, sp, #148	; 0x94
  407c70:	aa26      	add	r2, sp, #152	; 0x98
  407c72:	ab29      	add	r3, sp, #164	; 0xa4
  407c74:	e88d 0021 	stmia.w	sp, {r0, r5}
  407c78:	9203      	str	r2, [sp, #12]
  407c7a:	9304      	str	r3, [sp, #16]
  407c7c:	9102      	str	r1, [sp, #8]
  407c7e:	980d      	ldr	r0, [sp, #52]	; 0x34
  407c80:	e9dd 2320 	ldrd	r2, r3, [sp, #128]	; 0x80
  407c84:	f001 fa04 	bl	409090 <_dtoa_r>
  407c88:	f1b8 0f67 	cmp.w	r8, #103	; 0x67
  407c8c:	4607      	mov	r7, r0
  407c8e:	d002      	beq.n	407c96 <_svfprintf_r+0x1096>
  407c90:	f1b8 0f47 	cmp.w	r8, #71	; 0x47
  407c94:	d105      	bne.n	407ca2 <_svfprintf_r+0x10a2>
  407c96:	f8dd c024 	ldr.w	ip, [sp, #36]	; 0x24
  407c9a:	f01c 0f01 	tst.w	ip, #1
  407c9e:	f000 819c 	beq.w	407fda <_svfprintf_r+0x13da>
  407ca2:	f1ba 0f46 	cmp.w	sl, #70	; 0x46
  407ca6:	eb07 0405 	add.w	r4, r7, r5
  407caa:	f000 811c 	beq.w	407ee6 <_svfprintf_r+0x12e6>
  407cae:	e9dd 0120 	ldrd	r0, r1, [sp, #128]	; 0x80
  407cb2:	2200      	movs	r2, #0
  407cb4:	2300      	movs	r3, #0
  407cb6:	f7fd ff61 	bl	405b7c <__aeabi_dcmpeq>
  407cba:	2800      	cmp	r0, #0
  407cbc:	f040 8105 	bne.w	407eca <_svfprintf_r+0x12ca>
  407cc0:	9b29      	ldr	r3, [sp, #164]	; 0xa4
  407cc2:	429c      	cmp	r4, r3
  407cc4:	d906      	bls.n	407cd4 <_svfprintf_r+0x10d4>
  407cc6:	2130      	movs	r1, #48	; 0x30
  407cc8:	1c5a      	adds	r2, r3, #1
  407cca:	9229      	str	r2, [sp, #164]	; 0xa4
  407ccc:	7019      	strb	r1, [r3, #0]
  407cce:	9b29      	ldr	r3, [sp, #164]	; 0xa4
  407cd0:	429c      	cmp	r4, r3
  407cd2:	d8f9      	bhi.n	407cc8 <_svfprintf_r+0x10c8>
  407cd4:	1bdb      	subs	r3, r3, r7
  407cd6:	f1ba 0f47 	cmp.w	sl, #71	; 0x47
  407cda:	9311      	str	r3, [sp, #68]	; 0x44
  407cdc:	f000 80ed 	beq.w	407eba <_svfprintf_r+0x12ba>
  407ce0:	f1b8 0f65 	cmp.w	r8, #101	; 0x65
  407ce4:	f340 81f2 	ble.w	4080cc <_svfprintf_r+0x14cc>
  407ce8:	f1b8 0f66 	cmp.w	r8, #102	; 0x66
  407cec:	f000 8168 	beq.w	407fc0 <_svfprintf_r+0x13c0>
  407cf0:	9c25      	ldr	r4, [sp, #148]	; 0x94
  407cf2:	9414      	str	r4, [sp, #80]	; 0x50
  407cf4:	9c11      	ldr	r4, [sp, #68]	; 0x44
  407cf6:	9d14      	ldr	r5, [sp, #80]	; 0x50
  407cf8:	42ac      	cmp	r4, r5
  407cfa:	f300 8132 	bgt.w	407f62 <_svfprintf_r+0x1362>
  407cfe:	f8dd c024 	ldr.w	ip, [sp, #36]	; 0x24
  407d02:	f01c 0f01 	tst.w	ip, #1
  407d06:	f040 81ad 	bne.w	408064 <_svfprintf_r+0x1464>
  407d0a:	ea25 73e5 	bic.w	r3, r5, r5, asr #31
  407d0e:	462c      	mov	r4, r5
  407d10:	f04f 0867 	mov.w	r8, #103	; 0x67
  407d14:	f1bb 0f00 	cmp.w	fp, #0
  407d18:	f040 80b2 	bne.w	407e80 <_svfprintf_r+0x1280>
  407d1c:	9d12      	ldr	r5, [sp, #72]	; 0x48
  407d1e:	930b      	str	r3, [sp, #44]	; 0x2c
  407d20:	9509      	str	r5, [sp, #36]	; 0x24
  407d22:	f8cd b028 	str.w	fp, [sp, #40]	; 0x28
  407d26:	f89d a08f 	ldrb.w	sl, [sp, #143]	; 0x8f
  407d2a:	f7ff b900 	b.w	406f2e <_svfprintf_r+0x32e>
  407d2e:	980d      	ldr	r0, [sp, #52]	; 0x34
  407d30:	2140      	movs	r1, #64	; 0x40
  407d32:	f7fe f8cf 	bl	405ed4 <_malloc_r>
  407d36:	6020      	str	r0, [r4, #0]
  407d38:	6120      	str	r0, [r4, #16]
  407d3a:	2800      	cmp	r0, #0
  407d3c:	f000 81bf 	beq.w	4080be <_svfprintf_r+0x14be>
  407d40:	f8dd c030 	ldr.w	ip, [sp, #48]	; 0x30
  407d44:	2340      	movs	r3, #64	; 0x40
  407d46:	f8cc 3014 	str.w	r3, [ip, #20]
  407d4a:	f7fe bf6f 	b.w	406c2c <_svfprintf_r+0x2c>
  407d4e:	980d      	ldr	r0, [sp, #52]	; 0x34
  407d50:	990c      	ldr	r1, [sp, #48]	; 0x30
  407d52:	aa2b      	add	r2, sp, #172	; 0xac
  407d54:	f003 f9da 	bl	40b10c <__ssprint_r>
  407d58:	2800      	cmp	r0, #0
  407d5a:	f47f a869 	bne.w	406e30 <_svfprintf_r+0x230>
  407d5e:	9c25      	ldr	r4, [sp, #148]	; 0x94
  407d60:	f8dd c0b4 	ldr.w	ip, [sp, #180]	; 0xb4
  407d64:	ae38      	add	r6, sp, #224	; 0xe0
  407d66:	e6fd      	b.n	407b64 <_svfprintf_r+0xf64>
  407d68:	2406      	movs	r4, #6
  407d6a:	940a      	str	r4, [sp, #40]	; 0x28
  407d6c:	e75f      	b.n	407c2e <_svfprintf_r+0x102e>
  407d6e:	9d10      	ldr	r5, [sp, #64]	; 0x40
  407d70:	682c      	ldr	r4, [r5, #0]
  407d72:	3504      	adds	r5, #4
  407d74:	9510      	str	r5, [sp, #64]	; 0x40
  407d76:	2500      	movs	r5, #0
  407d78:	f7ff b898 	b.w	406eac <_svfprintf_r+0x2ac>
  407d7c:	f8dd c024 	ldr.w	ip, [sp, #36]	; 0x24
  407d80:	f01c 0f40 	tst.w	ip, #64	; 0x40
  407d84:	f000 8087 	beq.w	407e96 <_svfprintf_r+0x1296>
  407d88:	9c10      	ldr	r4, [sp, #64]	; 0x40
  407d8a:	9d0e      	ldr	r5, [sp, #56]	; 0x38
  407d8c:	6823      	ldr	r3, [r4, #0]
  407d8e:	3404      	adds	r4, #4
  407d90:	9410      	str	r4, [sp, #64]	; 0x40
  407d92:	801d      	strh	r5, [r3, #0]
  407d94:	f7fe bf5a 	b.w	406c4c <_svfprintf_r+0x4c>
  407d98:	980d      	ldr	r0, [sp, #52]	; 0x34
  407d9a:	990c      	ldr	r1, [sp, #48]	; 0x30
  407d9c:	aa2b      	add	r2, sp, #172	; 0xac
  407d9e:	f003 f9b5 	bl	40b10c <__ssprint_r>
  407da2:	2800      	cmp	r0, #0
  407da4:	f47f a844 	bne.w	406e30 <_svfprintf_r+0x230>
  407da8:	992d      	ldr	r1, [sp, #180]	; 0xb4
  407daa:	9b2c      	ldr	r3, [sp, #176]	; 0xb0
  407dac:	aa38      	add	r2, sp, #224	; 0xe0
  407dae:	f8dd c044 	ldr.w	ip, [sp, #68]	; 0x44
  407db2:	3301      	adds	r3, #1
  407db4:	9c11      	ldr	r4, [sp, #68]	; 0x44
  407db6:	448c      	add	ip, r1
  407db8:	2b07      	cmp	r3, #7
  407dba:	f8cd c0b4 	str.w	ip, [sp, #180]	; 0xb4
  407dbe:	932c      	str	r3, [sp, #176]	; 0xb0
  407dc0:	6017      	str	r7, [r2, #0]
  407dc2:	6054      	str	r4, [r2, #4]
  407dc4:	f73f ac9c 	bgt.w	407700 <_svfprintf_r+0xb00>
  407dc8:	f102 0608 	add.w	r6, r2, #8
  407dcc:	f7ff b98a 	b.w	4070e4 <_svfprintf_r+0x4e4>
  407dd0:	f8cd a028 	str.w	sl, [sp, #40]	; 0x28
  407dd4:	f7fe feb2 	bl	406b3c <strlen>
  407dd8:	9510      	str	r5, [sp, #64]	; 0x40
  407dda:	9d0a      	ldr	r5, [sp, #40]	; 0x28
  407ddc:	ea20 7ce0 	bic.w	ip, r0, r0, asr #31
  407de0:	4604      	mov	r4, r0
  407de2:	f8cd c02c 	str.w	ip, [sp, #44]	; 0x2c
  407de6:	9514      	str	r5, [sp, #80]	; 0x50
  407de8:	f89d a08f 	ldrb.w	sl, [sp, #143]	; 0x8f
  407dec:	f7ff b89f 	b.w	406f2e <_svfprintf_r+0x32e>
  407df0:	980d      	ldr	r0, [sp, #52]	; 0x34
  407df2:	990c      	ldr	r1, [sp, #48]	; 0x30
  407df4:	aa2b      	add	r2, sp, #172	; 0xac
  407df6:	f003 f989 	bl	40b10c <__ssprint_r>
  407dfa:	2800      	cmp	r0, #0
  407dfc:	f47f a818 	bne.w	406e30 <_svfprintf_r+0x230>
  407e00:	f8dd c0b4 	ldr.w	ip, [sp, #180]	; 0xb4
  407e04:	ae38      	add	r6, sp, #224	; 0xe0
  407e06:	e4d6      	b.n	4077b6 <_svfprintf_r+0xbb6>
  407e08:	980d      	ldr	r0, [sp, #52]	; 0x34
  407e0a:	990c      	ldr	r1, [sp, #48]	; 0x30
  407e0c:	aa2b      	add	r2, sp, #172	; 0xac
  407e0e:	f003 f97d 	bl	40b10c <__ssprint_r>
  407e12:	2800      	cmp	r0, #0
  407e14:	f47f a80c 	bne.w	406e30 <_svfprintf_r+0x230>
  407e18:	9c25      	ldr	r4, [sp, #148]	; 0x94
  407e1a:	f8dd c0b4 	ldr.w	ip, [sp, #180]	; 0xb4
  407e1e:	ae38      	add	r6, sp, #224	; 0xe0
  407e20:	e5b0      	b.n	407984 <_svfprintf_r+0xd84>
  407e22:	bf00      	nop
  407e24:	0040c780 	.word	0x0040c780
  407e28:	0040c730 	.word	0x0040c730
  407e2c:	4621      	mov	r1, r4
  407e2e:	465c      	mov	r4, fp
  407e30:	3301      	adds	r3, #1
  407e32:	4421      	add	r1, r4
  407e34:	2b07      	cmp	r3, #7
  407e36:	912d      	str	r1, [sp, #180]	; 0xb4
  407e38:	932c      	str	r3, [sp, #176]	; 0xb0
  407e3a:	6015      	str	r5, [r2, #0]
  407e3c:	6054      	str	r4, [r2, #4]
  407e3e:	dcab      	bgt.n	407d98 <_svfprintf_r+0x1198>
  407e40:	3208      	adds	r2, #8
  407e42:	e7b4      	b.n	407dae <_svfprintf_r+0x11ae>
  407e44:	980d      	ldr	r0, [sp, #52]	; 0x34
  407e46:	990c      	ldr	r1, [sp, #48]	; 0x30
  407e48:	aa2b      	add	r2, sp, #172	; 0xac
  407e4a:	f003 f95f 	bl	40b10c <__ssprint_r>
  407e4e:	2800      	cmp	r0, #0
  407e50:	f47e afee 	bne.w	406e30 <_svfprintf_r+0x230>
  407e54:	9c25      	ldr	r4, [sp, #148]	; 0x94
  407e56:	9911      	ldr	r1, [sp, #68]	; 0x44
  407e58:	f8dd c0b4 	ldr.w	ip, [sp, #180]	; 0xb4
  407e5c:	1b0c      	subs	r4, r1, r4
  407e5e:	ae38      	add	r6, sp, #224	; 0xe0
  407e60:	e5a5      	b.n	4079ae <_svfprintf_r+0xdae>
  407e62:	9c0a      	ldr	r4, [sp, #40]	; 0x28
  407e64:	46ba      	mov	sl, r7
  407e66:	2c06      	cmp	r4, #6
  407e68:	bf28      	it	cs
  407e6a:	2406      	movcs	r4, #6
  407e6c:	ea24 7ce4 	bic.w	ip, r4, r4, asr #31
  407e70:	970a      	str	r7, [sp, #40]	; 0x28
  407e72:	9714      	str	r7, [sp, #80]	; 0x50
  407e74:	9510      	str	r5, [sp, #64]	; 0x40
  407e76:	f8cd c02c 	str.w	ip, [sp, #44]	; 0x2c
  407e7a:	4f97      	ldr	r7, [pc, #604]	; (4080d8 <_svfprintf_r+0x14d8>)
  407e7c:	f7ff b857 	b.w	406f2e <_svfprintf_r+0x32e>
  407e80:	9d12      	ldr	r5, [sp, #72]	; 0x48
  407e82:	f04f 0a2d 	mov.w	sl, #45	; 0x2d
  407e86:	9509      	str	r5, [sp, #36]	; 0x24
  407e88:	2500      	movs	r5, #0
  407e8a:	930b      	str	r3, [sp, #44]	; 0x2c
  407e8c:	f88d a08f 	strb.w	sl, [sp, #143]	; 0x8f
  407e90:	950a      	str	r5, [sp, #40]	; 0x28
  407e92:	f7ff b84f 	b.w	406f34 <_svfprintf_r+0x334>
  407e96:	f8dd c040 	ldr.w	ip, [sp, #64]	; 0x40
  407e9a:	9c0e      	ldr	r4, [sp, #56]	; 0x38
  407e9c:	f8dc 3000 	ldr.w	r3, [ip]
  407ea0:	f10c 0c04 	add.w	ip, ip, #4
  407ea4:	f8cd c040 	str.w	ip, [sp, #64]	; 0x40
  407ea8:	601c      	str	r4, [r3, #0]
  407eaa:	f7fe becf 	b.w	406c4c <_svfprintf_r+0x4c>
  407eae:	f04f 0a2d 	mov.w	sl, #45	; 0x2d
  407eb2:	f88d a08f 	strb.w	sl, [sp, #143]	; 0x8f
  407eb6:	f7ff ba99 	b.w	4073ec <_svfprintf_r+0x7ec>
  407eba:	9b25      	ldr	r3, [sp, #148]	; 0x94
  407ebc:	1cdc      	adds	r4, r3, #3
  407ebe:	db19      	blt.n	407ef4 <_svfprintf_r+0x12f4>
  407ec0:	9c0a      	ldr	r4, [sp, #40]	; 0x28
  407ec2:	429c      	cmp	r4, r3
  407ec4:	db16      	blt.n	407ef4 <_svfprintf_r+0x12f4>
  407ec6:	9314      	str	r3, [sp, #80]	; 0x50
  407ec8:	e714      	b.n	407cf4 <_svfprintf_r+0x10f4>
  407eca:	4623      	mov	r3, r4
  407ecc:	e702      	b.n	407cd4 <_svfprintf_r+0x10d4>
  407ece:	ea24 7ce4 	bic.w	ip, r4, r4, asr #31
  407ed2:	f8cd c02c 	str.w	ip, [sp, #44]	; 0x2c
  407ed6:	9c0a      	ldr	r4, [sp, #40]	; 0x28
  407ed8:	9510      	str	r5, [sp, #64]	; 0x40
  407eda:	900a      	str	r0, [sp, #40]	; 0x28
  407edc:	9014      	str	r0, [sp, #80]	; 0x50
  407ede:	f89d a08f 	ldrb.w	sl, [sp, #143]	; 0x8f
  407ee2:	f7ff b824 	b.w	406f2e <_svfprintf_r+0x32e>
  407ee6:	783b      	ldrb	r3, [r7, #0]
  407ee8:	2b30      	cmp	r3, #48	; 0x30
  407eea:	f000 80ad 	beq.w	408048 <_svfprintf_r+0x1448>
  407eee:	9d25      	ldr	r5, [sp, #148]	; 0x94
  407ef0:	442c      	add	r4, r5
  407ef2:	e6dc      	b.n	407cae <_svfprintf_r+0x10ae>
  407ef4:	f1a8 0802 	sub.w	r8, r8, #2
  407ef8:	1e59      	subs	r1, r3, #1
  407efa:	2900      	cmp	r1, #0
  407efc:	9125      	str	r1, [sp, #148]	; 0x94
  407efe:	bfba      	itte	lt
  407f00:	4249      	neglt	r1, r1
  407f02:	232d      	movlt	r3, #45	; 0x2d
  407f04:	232b      	movge	r3, #43	; 0x2b
  407f06:	2909      	cmp	r1, #9
  407f08:	f88d 809c 	strb.w	r8, [sp, #156]	; 0x9c
  407f0c:	f88d 309d 	strb.w	r3, [sp, #157]	; 0x9d
  407f10:	dc65      	bgt.n	407fde <_svfprintf_r+0x13de>
  407f12:	2330      	movs	r3, #48	; 0x30
  407f14:	3130      	adds	r1, #48	; 0x30
  407f16:	f88d 309e 	strb.w	r3, [sp, #158]	; 0x9e
  407f1a:	f88d 109f 	strb.w	r1, [sp, #159]	; 0x9f
  407f1e:	ab28      	add	r3, sp, #160	; 0xa0
  407f20:	9d11      	ldr	r5, [sp, #68]	; 0x44
  407f22:	aa27      	add	r2, sp, #156	; 0x9c
  407f24:	9c11      	ldr	r4, [sp, #68]	; 0x44
  407f26:	1a9a      	subs	r2, r3, r2
  407f28:	2d01      	cmp	r5, #1
  407f2a:	9219      	str	r2, [sp, #100]	; 0x64
  407f2c:	4414      	add	r4, r2
  407f2e:	f340 80b7 	ble.w	4080a0 <_svfprintf_r+0x14a0>
  407f32:	3401      	adds	r4, #1
  407f34:	2500      	movs	r5, #0
  407f36:	ea24 73e4 	bic.w	r3, r4, r4, asr #31
  407f3a:	9514      	str	r5, [sp, #80]	; 0x50
  407f3c:	e6ea      	b.n	407d14 <_svfprintf_r+0x1114>
  407f3e:	2400      	movs	r4, #0
  407f40:	4681      	mov	r9, r0
  407f42:	940a      	str	r4, [sp, #40]	; 0x28
  407f44:	f7fe beba 	b.w	406cbc <_svfprintf_r+0xbc>
  407f48:	980d      	ldr	r0, [sp, #52]	; 0x34
  407f4a:	990c      	ldr	r1, [sp, #48]	; 0x30
  407f4c:	aa2b      	add	r2, sp, #172	; 0xac
  407f4e:	f003 f8dd 	bl	40b10c <__ssprint_r>
  407f52:	2800      	cmp	r0, #0
  407f54:	f47e af6c 	bne.w	406e30 <_svfprintf_r+0x230>
  407f58:	9c25      	ldr	r4, [sp, #148]	; 0x94
  407f5a:	992d      	ldr	r1, [sp, #180]	; 0xb4
  407f5c:	9b2c      	ldr	r3, [sp, #176]	; 0xb0
  407f5e:	aa38      	add	r2, sp, #224	; 0xe0
  407f60:	e616      	b.n	407b90 <_svfprintf_r+0xf90>
  407f62:	9c14      	ldr	r4, [sp, #80]	; 0x50
  407f64:	9d11      	ldr	r5, [sp, #68]	; 0x44
  407f66:	2c00      	cmp	r4, #0
  407f68:	bfd4      	ite	le
  407f6a:	f1c4 0402 	rsble	r4, r4, #2
  407f6e:	2401      	movgt	r4, #1
  407f70:	442c      	add	r4, r5
  407f72:	ea24 73e4 	bic.w	r3, r4, r4, asr #31
  407f76:	f04f 0867 	mov.w	r8, #103	; 0x67
  407f7a:	e6cb      	b.n	407d14 <_svfprintf_r+0x1114>
  407f7c:	9917      	ldr	r1, [sp, #92]	; 0x5c
  407f7e:	9816      	ldr	r0, [sp, #88]	; 0x58
  407f80:	f101 4100 	add.w	r1, r1, #2147483648	; 0x80000000
  407f84:	9020      	str	r0, [sp, #128]	; 0x80
  407f86:	9121      	str	r1, [sp, #132]	; 0x84
  407f88:	f04f 0b2d 	mov.w	fp, #45	; 0x2d
  407f8c:	e660      	b.n	407c50 <_svfprintf_r+0x1050>
  407f8e:	9d0a      	ldr	r5, [sp, #40]	; 0x28
  407f90:	2003      	movs	r0, #3
  407f92:	a925      	add	r1, sp, #148	; 0x94
  407f94:	aa26      	add	r2, sp, #152	; 0x98
  407f96:	ab29      	add	r3, sp, #164	; 0xa4
  407f98:	9501      	str	r5, [sp, #4]
  407f9a:	9000      	str	r0, [sp, #0]
  407f9c:	9203      	str	r2, [sp, #12]
  407f9e:	9304      	str	r3, [sp, #16]
  407fa0:	9102      	str	r1, [sp, #8]
  407fa2:	980d      	ldr	r0, [sp, #52]	; 0x34
  407fa4:	e9dd 2320 	ldrd	r2, r3, [sp, #128]	; 0x80
  407fa8:	f001 f872 	bl	409090 <_dtoa_r>
  407fac:	9d0a      	ldr	r5, [sp, #40]	; 0x28
  407fae:	4607      	mov	r7, r0
  407fb0:	e677      	b.n	407ca2 <_svfprintf_r+0x10a2>
  407fb2:	9c0a      	ldr	r4, [sp, #40]	; 0x28
  407fb4:	2003      	movs	r0, #3
  407fb6:	a925      	add	r1, sp, #148	; 0x94
  407fb8:	aa26      	add	r2, sp, #152	; 0x98
  407fba:	ab29      	add	r3, sp, #164	; 0xa4
  407fbc:	9401      	str	r4, [sp, #4]
  407fbe:	e7ec      	b.n	407f9a <_svfprintf_r+0x139a>
  407fc0:	9d25      	ldr	r5, [sp, #148]	; 0x94
  407fc2:	9c0a      	ldr	r4, [sp, #40]	; 0x28
  407fc4:	2d00      	cmp	r5, #0
  407fc6:	9514      	str	r5, [sp, #80]	; 0x50
  407fc8:	dd63      	ble.n	408092 <_svfprintf_r+0x1492>
  407fca:	bbb4      	cbnz	r4, 40803a <_svfprintf_r+0x143a>
  407fcc:	9d09      	ldr	r5, [sp, #36]	; 0x24
  407fce:	07e8      	lsls	r0, r5, #31
  407fd0:	d433      	bmi.n	40803a <_svfprintf_r+0x143a>
  407fd2:	9c14      	ldr	r4, [sp, #80]	; 0x50
  407fd4:	ea24 73e4 	bic.w	r3, r4, r4, asr #31
  407fd8:	e69c      	b.n	407d14 <_svfprintf_r+0x1114>
  407fda:	9b29      	ldr	r3, [sp, #164]	; 0xa4
  407fdc:	e67a      	b.n	407cd4 <_svfprintf_r+0x10d4>
  407fde:	f10d 02aa 	add.w	r2, sp, #170	; 0xaa
  407fe2:	4d3e      	ldr	r5, [pc, #248]	; (4080dc <_svfprintf_r+0x14dc>)
  407fe4:	17cb      	asrs	r3, r1, #31
  407fe6:	fb85 5001 	smull	r5, r0, r5, r1
  407fea:	ebc3 00a0 	rsb	r0, r3, r0, asr #2
  407fee:	eb00 0380 	add.w	r3, r0, r0, lsl #2
  407ff2:	eba1 0143 	sub.w	r1, r1, r3, lsl #1
  407ff6:	2809      	cmp	r0, #9
  407ff8:	4613      	mov	r3, r2
  407ffa:	f101 0230 	add.w	r2, r1, #48	; 0x30
  407ffe:	701a      	strb	r2, [r3, #0]
  408000:	4601      	mov	r1, r0
  408002:	f103 32ff 	add.w	r2, r3, #4294967295
  408006:	dcec      	bgt.n	407fe2 <_svfprintf_r+0x13e2>
  408008:	f100 0130 	add.w	r1, r0, #48	; 0x30
  40800c:	f10d 04ab 	add.w	r4, sp, #171	; 0xab
  408010:	b2c9      	uxtb	r1, r1
  408012:	4294      	cmp	r4, r2
  408014:	f803 1c01 	strb.w	r1, [r3, #-1]
  408018:	d95a      	bls.n	4080d0 <_svfprintf_r+0x14d0>
  40801a:	f10d 009d 	add.w	r0, sp, #157	; 0x9d
  40801e:	461a      	mov	r2, r3
  408020:	e001      	b.n	408026 <_svfprintf_r+0x1426>
  408022:	f812 1b01 	ldrb.w	r1, [r2], #1
  408026:	42a2      	cmp	r2, r4
  408028:	f800 1f01 	strb.w	r1, [r0, #1]!
  40802c:	d1f9      	bne.n	408022 <_svfprintf_r+0x1422>
  40802e:	f50d 7c90 	add.w	ip, sp, #288	; 0x120
  408032:	ebc3 034c 	rsb	r3, r3, ip, lsl #1
  408036:	3bf6      	subs	r3, #246	; 0xf6
  408038:	e772      	b.n	407f20 <_svfprintf_r+0x1320>
  40803a:	9d0a      	ldr	r5, [sp, #40]	; 0x28
  40803c:	1c6c      	adds	r4, r5, #1
  40803e:	9d14      	ldr	r5, [sp, #80]	; 0x50
  408040:	442c      	add	r4, r5
  408042:	ea24 73e4 	bic.w	r3, r4, r4, asr #31
  408046:	e665      	b.n	407d14 <_svfprintf_r+0x1114>
  408048:	e9dd 0120 	ldrd	r0, r1, [sp, #128]	; 0x80
  40804c:	2200      	movs	r2, #0
  40804e:	2300      	movs	r3, #0
  408050:	f7fd fd94 	bl	405b7c <__aeabi_dcmpeq>
  408054:	2800      	cmp	r0, #0
  408056:	f47f af4a 	bne.w	407eee <_svfprintf_r+0x12ee>
  40805a:	f1c5 0501 	rsb	r5, r5, #1
  40805e:	9525      	str	r5, [sp, #148]	; 0x94
  408060:	442c      	add	r4, r5
  408062:	e624      	b.n	407cae <_svfprintf_r+0x10ae>
  408064:	9d14      	ldr	r5, [sp, #80]	; 0x50
  408066:	f04f 0867 	mov.w	r8, #103	; 0x67
  40806a:	1c6c      	adds	r4, r5, #1
  40806c:	ea24 73e4 	bic.w	r3, r4, r4, asr #31
  408070:	e650      	b.n	407d14 <_svfprintf_r+0x1114>
  408072:	9d10      	ldr	r5, [sp, #64]	; 0x40
  408074:	f8dd c040 	ldr.w	ip, [sp, #64]	; 0x40
  408078:	682d      	ldr	r5, [r5, #0]
  40807a:	f10c 0304 	add.w	r3, ip, #4
  40807e:	2d00      	cmp	r5, #0
  408080:	f899 8001 	ldrb.w	r8, [r9, #1]
  408084:	950a      	str	r5, [sp, #40]	; 0x28
  408086:	9310      	str	r3, [sp, #64]	; 0x40
  408088:	4681      	mov	r9, r0
  40808a:	f6be ae15 	bge.w	406cb8 <_svfprintf_r+0xb8>
  40808e:	f7fe be10 	b.w	406cb2 <_svfprintf_r+0xb2>
  408092:	b97c      	cbnz	r4, 4080b4 <_svfprintf_r+0x14b4>
  408094:	9d09      	ldr	r5, [sp, #36]	; 0x24
  408096:	07e9      	lsls	r1, r5, #31
  408098:	d40c      	bmi.n	4080b4 <_svfprintf_r+0x14b4>
  40809a:	2301      	movs	r3, #1
  40809c:	461c      	mov	r4, r3
  40809e:	e639      	b.n	407d14 <_svfprintf_r+0x1114>
  4080a0:	f8dd c024 	ldr.w	ip, [sp, #36]	; 0x24
  4080a4:	f01c 0301 	ands.w	r3, ip, #1
  4080a8:	f47f af43 	bne.w	407f32 <_svfprintf_r+0x1332>
  4080ac:	9314      	str	r3, [sp, #80]	; 0x50
  4080ae:	ea24 73e4 	bic.w	r3, r4, r4, asr #31
  4080b2:	e62f      	b.n	407d14 <_svfprintf_r+0x1114>
  4080b4:	9d0a      	ldr	r5, [sp, #40]	; 0x28
  4080b6:	1cac      	adds	r4, r5, #2
  4080b8:	ea24 73e4 	bic.w	r3, r4, r4, asr #31
  4080bc:	e62a      	b.n	407d14 <_svfprintf_r+0x1114>
  4080be:	9d0d      	ldr	r5, [sp, #52]	; 0x34
  4080c0:	230c      	movs	r3, #12
  4080c2:	602b      	str	r3, [r5, #0]
  4080c4:	f04f 30ff 	mov.w	r0, #4294967295
  4080c8:	f7fe beba 	b.w	406e40 <_svfprintf_r+0x240>
  4080cc:	9b25      	ldr	r3, [sp, #148]	; 0x94
  4080ce:	e713      	b.n	407ef8 <_svfprintf_r+0x12f8>
  4080d0:	f10d 039e 	add.w	r3, sp, #158	; 0x9e
  4080d4:	e724      	b.n	407f20 <_svfprintf_r+0x1320>
  4080d6:	bf00      	nop
  4080d8:	0040c778 	.word	0x0040c778
  4080dc:	66666667 	.word	0x66666667

004080e0 <__sprint_r.part.0>:
  4080e0:	6e4b      	ldr	r3, [r1, #100]	; 0x64
  4080e2:	e92d 47f0 	stmdb	sp!, {r4, r5, r6, r7, r8, r9, sl, lr}
  4080e6:	049c      	lsls	r4, r3, #18
  4080e8:	460e      	mov	r6, r1
  4080ea:	4680      	mov	r8, r0
  4080ec:	4691      	mov	r9, r2
  4080ee:	d52a      	bpl.n	408146 <__sprint_r.part.0+0x66>
  4080f0:	6893      	ldr	r3, [r2, #8]
  4080f2:	6812      	ldr	r2, [r2, #0]
  4080f4:	f102 0a08 	add.w	sl, r2, #8
  4080f8:	b31b      	cbz	r3, 408142 <__sprint_r.part.0+0x62>
  4080fa:	e91a 00a0 	ldmdb	sl, {r5, r7}
  4080fe:	08bf      	lsrs	r7, r7, #2
  408100:	d017      	beq.n	408132 <__sprint_r.part.0+0x52>
  408102:	3d04      	subs	r5, #4
  408104:	2400      	movs	r4, #0
  408106:	e001      	b.n	40810c <__sprint_r.part.0+0x2c>
  408108:	42a7      	cmp	r7, r4
  40810a:	d010      	beq.n	40812e <__sprint_r.part.0+0x4e>
  40810c:	4640      	mov	r0, r8
  40810e:	f855 1f04 	ldr.w	r1, [r5, #4]!
  408112:	4632      	mov	r2, r6
  408114:	f002 f82e 	bl	40a174 <_fputwc_r>
  408118:	1c43      	adds	r3, r0, #1
  40811a:	f104 0401 	add.w	r4, r4, #1
  40811e:	d1f3      	bne.n	408108 <__sprint_r.part.0+0x28>
  408120:	2300      	movs	r3, #0
  408122:	f8c9 3008 	str.w	r3, [r9, #8]
  408126:	f8c9 3004 	str.w	r3, [r9, #4]
  40812a:	e8bd 87f0 	ldmia.w	sp!, {r4, r5, r6, r7, r8, r9, sl, pc}
  40812e:	f8d9 3008 	ldr.w	r3, [r9, #8]
  408132:	eba3 0387 	sub.w	r3, r3, r7, lsl #2
  408136:	f8c9 3008 	str.w	r3, [r9, #8]
  40813a:	f10a 0a08 	add.w	sl, sl, #8
  40813e:	2b00      	cmp	r3, #0
  408140:	d1db      	bne.n	4080fa <__sprint_r.part.0+0x1a>
  408142:	2000      	movs	r0, #0
  408144:	e7ec      	b.n	408120 <__sprint_r.part.0+0x40>
  408146:	f002 f98f 	bl	40a468 <__sfvwrite_r>
  40814a:	2300      	movs	r3, #0
  40814c:	f8c9 3008 	str.w	r3, [r9, #8]
  408150:	f8c9 3004 	str.w	r3, [r9, #4]
  408154:	e8bd 87f0 	ldmia.w	sp!, {r4, r5, r6, r7, r8, r9, sl, pc}

00408158 <_vfiprintf_r>:
  408158:	e92d 4ff0 	stmdb	sp!, {r4, r5, r6, r7, r8, r9, sl, fp, lr}
  40815c:	b0b1      	sub	sp, #196	; 0xc4
  40815e:	461c      	mov	r4, r3
  408160:	9102      	str	r1, [sp, #8]
  408162:	4690      	mov	r8, r2
  408164:	9308      	str	r3, [sp, #32]
  408166:	9006      	str	r0, [sp, #24]
  408168:	b118      	cbz	r0, 408172 <_vfiprintf_r+0x1a>
  40816a:	6b83      	ldr	r3, [r0, #56]	; 0x38
  40816c:	2b00      	cmp	r3, #0
  40816e:	f000 80e8 	beq.w	408342 <_vfiprintf_r+0x1ea>
  408172:	9d02      	ldr	r5, [sp, #8]
  408174:	89ab      	ldrh	r3, [r5, #12]
  408176:	b29a      	uxth	r2, r3
  408178:	0490      	lsls	r0, r2, #18
  40817a:	d407      	bmi.n	40818c <_vfiprintf_r+0x34>
  40817c:	6e6a      	ldr	r2, [r5, #100]	; 0x64
  40817e:	f443 5300 	orr.w	r3, r3, #8192	; 0x2000
  408182:	f422 5100 	bic.w	r1, r2, #8192	; 0x2000
  408186:	81ab      	strh	r3, [r5, #12]
  408188:	b29a      	uxth	r2, r3
  40818a:	6669      	str	r1, [r5, #100]	; 0x64
  40818c:	0711      	lsls	r1, r2, #28
  40818e:	f140 80b7 	bpl.w	408300 <_vfiprintf_r+0x1a8>
  408192:	f8dd b008 	ldr.w	fp, [sp, #8]
  408196:	f8db 3010 	ldr.w	r3, [fp, #16]
  40819a:	2b00      	cmp	r3, #0
  40819c:	f000 80b0 	beq.w	408300 <_vfiprintf_r+0x1a8>
  4081a0:	f002 021a 	and.w	r2, r2, #26
  4081a4:	2a0a      	cmp	r2, #10
  4081a6:	f000 80b7 	beq.w	408318 <_vfiprintf_r+0x1c0>
  4081aa:	2300      	movs	r3, #0
  4081ac:	f10d 0980 	add.w	r9, sp, #128	; 0x80
  4081b0:	930a      	str	r3, [sp, #40]	; 0x28
  4081b2:	9315      	str	r3, [sp, #84]	; 0x54
  4081b4:	9314      	str	r3, [sp, #80]	; 0x50
  4081b6:	9309      	str	r3, [sp, #36]	; 0x24
  4081b8:	f8cd 904c 	str.w	r9, [sp, #76]	; 0x4c
  4081bc:	464e      	mov	r6, r9
  4081be:	f898 3000 	ldrb.w	r3, [r8]
  4081c2:	2b00      	cmp	r3, #0
  4081c4:	f000 84c8 	beq.w	408b58 <_vfiprintf_r+0xa00>
  4081c8:	2b25      	cmp	r3, #37	; 0x25
  4081ca:	f000 84c5 	beq.w	408b58 <_vfiprintf_r+0xa00>
  4081ce:	f108 0201 	add.w	r2, r8, #1
  4081d2:	e001      	b.n	4081d8 <_vfiprintf_r+0x80>
  4081d4:	2b25      	cmp	r3, #37	; 0x25
  4081d6:	d004      	beq.n	4081e2 <_vfiprintf_r+0x8a>
  4081d8:	7813      	ldrb	r3, [r2, #0]
  4081da:	4614      	mov	r4, r2
  4081dc:	3201      	adds	r2, #1
  4081de:	2b00      	cmp	r3, #0
  4081e0:	d1f8      	bne.n	4081d4 <_vfiprintf_r+0x7c>
  4081e2:	ebc8 0504 	rsb	r5, r8, r4
  4081e6:	b195      	cbz	r5, 40820e <_vfiprintf_r+0xb6>
  4081e8:	9b14      	ldr	r3, [sp, #80]	; 0x50
  4081ea:	9a15      	ldr	r2, [sp, #84]	; 0x54
  4081ec:	3301      	adds	r3, #1
  4081ee:	442a      	add	r2, r5
  4081f0:	2b07      	cmp	r3, #7
  4081f2:	f8c6 8000 	str.w	r8, [r6]
  4081f6:	6075      	str	r5, [r6, #4]
  4081f8:	9215      	str	r2, [sp, #84]	; 0x54
  4081fa:	9314      	str	r3, [sp, #80]	; 0x50
  4081fc:	dd7b      	ble.n	4082f6 <_vfiprintf_r+0x19e>
  4081fe:	2a00      	cmp	r2, #0
  408200:	f040 84d5 	bne.w	408bae <_vfiprintf_r+0xa56>
  408204:	9809      	ldr	r0, [sp, #36]	; 0x24
  408206:	9214      	str	r2, [sp, #80]	; 0x50
  408208:	4428      	add	r0, r5
  40820a:	464e      	mov	r6, r9
  40820c:	9009      	str	r0, [sp, #36]	; 0x24
  40820e:	7823      	ldrb	r3, [r4, #0]
  408210:	2b00      	cmp	r3, #0
  408212:	f000 83ed 	beq.w	4089f0 <_vfiprintf_r+0x898>
  408216:	2100      	movs	r1, #0
  408218:	f04f 0200 	mov.w	r2, #0
  40821c:	f04f 3cff 	mov.w	ip, #4294967295
  408220:	7863      	ldrb	r3, [r4, #1]
  408222:	f88d 2047 	strb.w	r2, [sp, #71]	; 0x47
  408226:	9104      	str	r1, [sp, #16]
  408228:	468a      	mov	sl, r1
  40822a:	f104 0801 	add.w	r8, r4, #1
  40822e:	4608      	mov	r0, r1
  408230:	4665      	mov	r5, ip
  408232:	f108 0801 	add.w	r8, r8, #1
  408236:	f1a3 0220 	sub.w	r2, r3, #32
  40823a:	2a58      	cmp	r2, #88	; 0x58
  40823c:	f200 82d9 	bhi.w	4087f2 <_vfiprintf_r+0x69a>
  408240:	e8df f012 	tbh	[pc, r2, lsl #1]
  408244:	02d702cb 	.word	0x02d702cb
  408248:	02d202d7 	.word	0x02d202d7
  40824c:	02d702d7 	.word	0x02d702d7
  408250:	02d702d7 	.word	0x02d702d7
  408254:	02d702d7 	.word	0x02d702d7
  408258:	028f0282 	.word	0x028f0282
  40825c:	008402d7 	.word	0x008402d7
  408260:	02d70293 	.word	0x02d70293
  408264:	0196012b 	.word	0x0196012b
  408268:	01960196 	.word	0x01960196
  40826c:	01960196 	.word	0x01960196
  408270:	01960196 	.word	0x01960196
  408274:	01960196 	.word	0x01960196
  408278:	02d702d7 	.word	0x02d702d7
  40827c:	02d702d7 	.word	0x02d702d7
  408280:	02d702d7 	.word	0x02d702d7
  408284:	02d702d7 	.word	0x02d702d7
  408288:	02d702d7 	.word	0x02d702d7
  40828c:	02d70130 	.word	0x02d70130
  408290:	02d702d7 	.word	0x02d702d7
  408294:	02d702d7 	.word	0x02d702d7
  408298:	02d702d7 	.word	0x02d702d7
  40829c:	02d702d7 	.word	0x02d702d7
  4082a0:	017b02d7 	.word	0x017b02d7
  4082a4:	02d702d7 	.word	0x02d702d7
  4082a8:	02d702d7 	.word	0x02d702d7
  4082ac:	01a402d7 	.word	0x01a402d7
  4082b0:	02d702d7 	.word	0x02d702d7
  4082b4:	02d701bf 	.word	0x02d701bf
  4082b8:	02d702d7 	.word	0x02d702d7
  4082bc:	02d702d7 	.word	0x02d702d7
  4082c0:	02d702d7 	.word	0x02d702d7
  4082c4:	02d702d7 	.word	0x02d702d7
  4082c8:	01e402d7 	.word	0x01e402d7
  4082cc:	02d701fa 	.word	0x02d701fa
  4082d0:	02d702d7 	.word	0x02d702d7
  4082d4:	01fa0216 	.word	0x01fa0216
  4082d8:	02d702d7 	.word	0x02d702d7
  4082dc:	02d7021b 	.word	0x02d7021b
  4082e0:	00890228 	.word	0x00890228
  4082e4:	027d0266 	.word	0x027d0266
  4082e8:	023a02d7 	.word	0x023a02d7
  4082ec:	011902d7 	.word	0x011902d7
  4082f0:	02d702d7 	.word	0x02d702d7
  4082f4:	02af      	.short	0x02af
  4082f6:	3608      	adds	r6, #8
  4082f8:	9809      	ldr	r0, [sp, #36]	; 0x24
  4082fa:	4428      	add	r0, r5
  4082fc:	9009      	str	r0, [sp, #36]	; 0x24
  4082fe:	e786      	b.n	40820e <_vfiprintf_r+0xb6>
  408300:	9806      	ldr	r0, [sp, #24]
  408302:	9902      	ldr	r1, [sp, #8]
  408304:	f000 fdb6 	bl	408e74 <__swsetup_r>
  408308:	b9b0      	cbnz	r0, 408338 <_vfiprintf_r+0x1e0>
  40830a:	9d02      	ldr	r5, [sp, #8]
  40830c:	89aa      	ldrh	r2, [r5, #12]
  40830e:	f002 021a 	and.w	r2, r2, #26
  408312:	2a0a      	cmp	r2, #10
  408314:	f47f af49 	bne.w	4081aa <_vfiprintf_r+0x52>
  408318:	f8dd b008 	ldr.w	fp, [sp, #8]
  40831c:	f9bb 300e 	ldrsh.w	r3, [fp, #14]
  408320:	2b00      	cmp	r3, #0
  408322:	f6ff af42 	blt.w	4081aa <_vfiprintf_r+0x52>
  408326:	9806      	ldr	r0, [sp, #24]
  408328:	4659      	mov	r1, fp
  40832a:	4642      	mov	r2, r8
  40832c:	4623      	mov	r3, r4
  40832e:	f000 fd3d 	bl	408dac <__sbprintf>
  408332:	b031      	add	sp, #196	; 0xc4
  408334:	e8bd 8ff0 	ldmia.w	sp!, {r4, r5, r6, r7, r8, r9, sl, fp, pc}
  408338:	f04f 30ff 	mov.w	r0, #4294967295
  40833c:	b031      	add	sp, #196	; 0xc4
  40833e:	e8bd 8ff0 	ldmia.w	sp!, {r4, r5, r6, r7, r8, r9, sl, fp, pc}
  408342:	f001 fe81 	bl	40a048 <__sinit>
  408346:	e714      	b.n	408172 <_vfiprintf_r+0x1a>
  408348:	4240      	negs	r0, r0
  40834a:	9308      	str	r3, [sp, #32]
  40834c:	f04a 0a04 	orr.w	sl, sl, #4
  408350:	f898 3000 	ldrb.w	r3, [r8]
  408354:	e76d      	b.n	408232 <_vfiprintf_r+0xda>
  408356:	f01a 0320 	ands.w	r3, sl, #32
  40835a:	9004      	str	r0, [sp, #16]
  40835c:	46ac      	mov	ip, r5
  40835e:	f000 80f4 	beq.w	40854a <_vfiprintf_r+0x3f2>
  408362:	f8dd b020 	ldr.w	fp, [sp, #32]
  408366:	f10b 0307 	add.w	r3, fp, #7
  40836a:	f023 0307 	bic.w	r3, r3, #7
  40836e:	f103 0408 	add.w	r4, r3, #8
  408372:	9408      	str	r4, [sp, #32]
  408374:	e9d3 4500 	ldrd	r4, r5, [r3]
  408378:	2300      	movs	r3, #0
  40837a:	f04f 0000 	mov.w	r0, #0
  40837e:	2100      	movs	r1, #0
  408380:	f88d 0047 	strb.w	r0, [sp, #71]	; 0x47
  408384:	f8cd c014 	str.w	ip, [sp, #20]
  408388:	9107      	str	r1, [sp, #28]
  40838a:	f1bc 0f00 	cmp.w	ip, #0
  40838e:	bfa8      	it	ge
  408390:	f02a 0a80 	bicge.w	sl, sl, #128	; 0x80
  408394:	ea54 0205 	orrs.w	r2, r4, r5
  408398:	f040 80ad 	bne.w	4084f6 <_vfiprintf_r+0x39e>
  40839c:	f1bc 0f00 	cmp.w	ip, #0
  4083a0:	f040 80a9 	bne.w	4084f6 <_vfiprintf_r+0x39e>
  4083a4:	2b00      	cmp	r3, #0
  4083a6:	f040 83c0 	bne.w	408b2a <_vfiprintf_r+0x9d2>
  4083aa:	f01a 0f01 	tst.w	sl, #1
  4083ae:	f000 83bc 	beq.w	408b2a <_vfiprintf_r+0x9d2>
  4083b2:	2330      	movs	r3, #48	; 0x30
  4083b4:	af30      	add	r7, sp, #192	; 0xc0
  4083b6:	f807 3d41 	strb.w	r3, [r7, #-65]!
  4083ba:	ebc7 0409 	rsb	r4, r7, r9
  4083be:	9405      	str	r4, [sp, #20]
  4083c0:	f8dd b014 	ldr.w	fp, [sp, #20]
  4083c4:	9c07      	ldr	r4, [sp, #28]
  4083c6:	45e3      	cmp	fp, ip
  4083c8:	bfb8      	it	lt
  4083ca:	46e3      	movlt	fp, ip
  4083cc:	f8cd b00c 	str.w	fp, [sp, #12]
  4083d0:	b11c      	cbz	r4, 4083da <_vfiprintf_r+0x282>
  4083d2:	f10b 0b01 	add.w	fp, fp, #1
  4083d6:	f8cd b00c 	str.w	fp, [sp, #12]
  4083da:	f01a 0502 	ands.w	r5, sl, #2
  4083de:	9507      	str	r5, [sp, #28]
  4083e0:	d005      	beq.n	4083ee <_vfiprintf_r+0x296>
  4083e2:	f8dd b00c 	ldr.w	fp, [sp, #12]
  4083e6:	f10b 0b02 	add.w	fp, fp, #2
  4083ea:	f8cd b00c 	str.w	fp, [sp, #12]
  4083ee:	f01a 0384 	ands.w	r3, sl, #132	; 0x84
  4083f2:	930b      	str	r3, [sp, #44]	; 0x2c
  4083f4:	f040 821b 	bne.w	40882e <_vfiprintf_r+0x6d6>
  4083f8:	9d04      	ldr	r5, [sp, #16]
  4083fa:	f8dd b00c 	ldr.w	fp, [sp, #12]
  4083fe:	ebcb 0405 	rsb	r4, fp, r5
  408402:	2c00      	cmp	r4, #0
  408404:	f340 8213 	ble.w	40882e <_vfiprintf_r+0x6d6>
  408408:	2c10      	cmp	r4, #16
  40840a:	f340 8489 	ble.w	408d20 <_vfiprintf_r+0xbc8>
  40840e:	4dbe      	ldr	r5, [pc, #760]	; (408708 <_vfiprintf_r+0x5b0>)
  408410:	9a15      	ldr	r2, [sp, #84]	; 0x54
  408412:	462b      	mov	r3, r5
  408414:	9814      	ldr	r0, [sp, #80]	; 0x50
  408416:	4625      	mov	r5, r4
  408418:	f04f 0b10 	mov.w	fp, #16
  40841c:	4664      	mov	r4, ip
  40841e:	46b4      	mov	ip, r6
  408420:	461e      	mov	r6, r3
  408422:	e006      	b.n	408432 <_vfiprintf_r+0x2da>
  408424:	1c83      	adds	r3, r0, #2
  408426:	f10c 0c08 	add.w	ip, ip, #8
  40842a:	4608      	mov	r0, r1
  40842c:	3d10      	subs	r5, #16
  40842e:	2d10      	cmp	r5, #16
  408430:	dd11      	ble.n	408456 <_vfiprintf_r+0x2fe>
  408432:	1c41      	adds	r1, r0, #1
  408434:	3210      	adds	r2, #16
  408436:	2907      	cmp	r1, #7
  408438:	9215      	str	r2, [sp, #84]	; 0x54
  40843a:	e88c 0840 	stmia.w	ip, {r6, fp}
  40843e:	9114      	str	r1, [sp, #80]	; 0x50
  408440:	ddf0      	ble.n	408424 <_vfiprintf_r+0x2cc>
  408442:	2a00      	cmp	r2, #0
  408444:	f040 81e6 	bne.w	408814 <_vfiprintf_r+0x6bc>
  408448:	3d10      	subs	r5, #16
  40844a:	2d10      	cmp	r5, #16
  40844c:	f04f 0301 	mov.w	r3, #1
  408450:	4610      	mov	r0, r2
  408452:	46cc      	mov	ip, r9
  408454:	dced      	bgt.n	408432 <_vfiprintf_r+0x2da>
  408456:	4631      	mov	r1, r6
  408458:	4666      	mov	r6, ip
  40845a:	46a4      	mov	ip, r4
  40845c:	462c      	mov	r4, r5
  40845e:	460d      	mov	r5, r1
  408460:	4422      	add	r2, r4
  408462:	2b07      	cmp	r3, #7
  408464:	9215      	str	r2, [sp, #84]	; 0x54
  408466:	6035      	str	r5, [r6, #0]
  408468:	6074      	str	r4, [r6, #4]
  40846a:	9314      	str	r3, [sp, #80]	; 0x50
  40846c:	f300 836d 	bgt.w	408b4a <_vfiprintf_r+0x9f2>
  408470:	3608      	adds	r6, #8
  408472:	1c59      	adds	r1, r3, #1
  408474:	e1de      	b.n	408834 <_vfiprintf_r+0x6dc>
  408476:	f01a 0f20 	tst.w	sl, #32
  40847a:	9004      	str	r0, [sp, #16]
  40847c:	46ac      	mov	ip, r5
  40847e:	f000 808d 	beq.w	40859c <_vfiprintf_r+0x444>
  408482:	9d08      	ldr	r5, [sp, #32]
  408484:	1deb      	adds	r3, r5, #7
  408486:	f023 0307 	bic.w	r3, r3, #7
  40848a:	f103 0b08 	add.w	fp, r3, #8
  40848e:	e9d3 4500 	ldrd	r4, r5, [r3]
  408492:	f8cd b020 	str.w	fp, [sp, #32]
  408496:	2301      	movs	r3, #1
  408498:	e76f      	b.n	40837a <_vfiprintf_r+0x222>
  40849a:	f04a 0a80 	orr.w	sl, sl, #128	; 0x80
  40849e:	f898 3000 	ldrb.w	r3, [r8]
  4084a2:	e6c6      	b.n	408232 <_vfiprintf_r+0xda>
  4084a4:	f04a 0a10 	orr.w	sl, sl, #16
  4084a8:	f01a 0f20 	tst.w	sl, #32
  4084ac:	9004      	str	r0, [sp, #16]
  4084ae:	46ac      	mov	ip, r5
  4084b0:	f88d 1047 	strb.w	r1, [sp, #71]	; 0x47
  4084b4:	f000 80c8 	beq.w	408648 <_vfiprintf_r+0x4f0>
  4084b8:	9c08      	ldr	r4, [sp, #32]
  4084ba:	1de1      	adds	r1, r4, #7
  4084bc:	f021 0107 	bic.w	r1, r1, #7
  4084c0:	e9d1 2300 	ldrd	r2, r3, [r1]
  4084c4:	3108      	adds	r1, #8
  4084c6:	9108      	str	r1, [sp, #32]
  4084c8:	4614      	mov	r4, r2
  4084ca:	461d      	mov	r5, r3
  4084cc:	2a00      	cmp	r2, #0
  4084ce:	f173 0b00 	sbcs.w	fp, r3, #0
  4084d2:	f2c0 83ce 	blt.w	408c72 <_vfiprintf_r+0xb1a>
  4084d6:	f1bc 0f00 	cmp.w	ip, #0
  4084da:	f89d 0047 	ldrb.w	r0, [sp, #71]	; 0x47
  4084de:	bfa8      	it	ge
  4084e0:	f02a 0a80 	bicge.w	sl, sl, #128	; 0x80
  4084e4:	ea54 0205 	orrs.w	r2, r4, r5
  4084e8:	9007      	str	r0, [sp, #28]
  4084ea:	f8cd c014 	str.w	ip, [sp, #20]
  4084ee:	f04f 0301 	mov.w	r3, #1
  4084f2:	f43f af53 	beq.w	40839c <_vfiprintf_r+0x244>
  4084f6:	2b01      	cmp	r3, #1
  4084f8:	f000 8319 	beq.w	408b2e <_vfiprintf_r+0x9d6>
  4084fc:	2b02      	cmp	r3, #2
  4084fe:	f10d 037f 	add.w	r3, sp, #127	; 0x7f
  408502:	f040 824c 	bne.w	40899e <_vfiprintf_r+0x846>
  408506:	f8dd b028 	ldr.w	fp, [sp, #40]	; 0x28
  40850a:	4619      	mov	r1, r3
  40850c:	f004 000f 	and.w	r0, r4, #15
  408510:	0922      	lsrs	r2, r4, #4
  408512:	f81b 0000 	ldrb.w	r0, [fp, r0]
  408516:	ea42 7205 	orr.w	r2, r2, r5, lsl #28
  40851a:	092b      	lsrs	r3, r5, #4
  40851c:	7008      	strb	r0, [r1, #0]
  40851e:	ea52 0003 	orrs.w	r0, r2, r3
  408522:	460f      	mov	r7, r1
  408524:	4614      	mov	r4, r2
  408526:	461d      	mov	r5, r3
  408528:	f101 31ff 	add.w	r1, r1, #4294967295
  40852c:	d1ee      	bne.n	40850c <_vfiprintf_r+0x3b4>
  40852e:	e9cd 230e 	strd	r2, r3, [sp, #56]	; 0x38
  408532:	ebc7 0309 	rsb	r3, r7, r9
  408536:	9305      	str	r3, [sp, #20]
  408538:	e742      	b.n	4083c0 <_vfiprintf_r+0x268>
  40853a:	f04a 0a10 	orr.w	sl, sl, #16
  40853e:	f01a 0320 	ands.w	r3, sl, #32
  408542:	9004      	str	r0, [sp, #16]
  408544:	46ac      	mov	ip, r5
  408546:	f47f af0c 	bne.w	408362 <_vfiprintf_r+0x20a>
  40854a:	f01a 0210 	ands.w	r2, sl, #16
  40854e:	f040 8311 	bne.w	408b74 <_vfiprintf_r+0xa1c>
  408552:	f01a 0340 	ands.w	r3, sl, #64	; 0x40
  408556:	f000 830d 	beq.w	408b74 <_vfiprintf_r+0xa1c>
  40855a:	f8dd b020 	ldr.w	fp, [sp, #32]
  40855e:	4613      	mov	r3, r2
  408560:	f8bb 4000 	ldrh.w	r4, [fp]
  408564:	f10b 0b04 	add.w	fp, fp, #4
  408568:	2500      	movs	r5, #0
  40856a:	f8cd b020 	str.w	fp, [sp, #32]
  40856e:	e704      	b.n	40837a <_vfiprintf_r+0x222>
  408570:	f1a3 0230 	sub.w	r2, r3, #48	; 0x30
  408574:	2000      	movs	r0, #0
  408576:	f818 3b01 	ldrb.w	r3, [r8], #1
  40857a:	eb00 0080 	add.w	r0, r0, r0, lsl #2
  40857e:	eb02 0040 	add.w	r0, r2, r0, lsl #1
  408582:	f1a3 0230 	sub.w	r2, r3, #48	; 0x30
  408586:	2a09      	cmp	r2, #9
  408588:	d9f5      	bls.n	408576 <_vfiprintf_r+0x41e>
  40858a:	e654      	b.n	408236 <_vfiprintf_r+0xde>
  40858c:	f04a 0a10 	orr.w	sl, sl, #16
  408590:	f01a 0f20 	tst.w	sl, #32
  408594:	9004      	str	r0, [sp, #16]
  408596:	46ac      	mov	ip, r5
  408598:	f47f af73 	bne.w	408482 <_vfiprintf_r+0x32a>
  40859c:	f01a 0f10 	tst.w	sl, #16
  4085a0:	f040 82ef 	bne.w	408b82 <_vfiprintf_r+0xa2a>
  4085a4:	f01a 0f40 	tst.w	sl, #64	; 0x40
  4085a8:	f000 82eb 	beq.w	408b82 <_vfiprintf_r+0xa2a>
  4085ac:	f8dd b020 	ldr.w	fp, [sp, #32]
  4085b0:	2500      	movs	r5, #0
  4085b2:	f8bb 4000 	ldrh.w	r4, [fp]
  4085b6:	f10b 0b04 	add.w	fp, fp, #4
  4085ba:	2301      	movs	r3, #1
  4085bc:	f8cd b020 	str.w	fp, [sp, #32]
  4085c0:	e6db      	b.n	40837a <_vfiprintf_r+0x222>
  4085c2:	46ac      	mov	ip, r5
  4085c4:	4d51      	ldr	r5, [pc, #324]	; (40870c <_vfiprintf_r+0x5b4>)
  4085c6:	f01a 0f20 	tst.w	sl, #32
  4085ca:	9004      	str	r0, [sp, #16]
  4085cc:	f88d 1047 	strb.w	r1, [sp, #71]	; 0x47
  4085d0:	950a      	str	r5, [sp, #40]	; 0x28
  4085d2:	f000 80f0 	beq.w	4087b6 <_vfiprintf_r+0x65e>
  4085d6:	9d08      	ldr	r5, [sp, #32]
  4085d8:	1dea      	adds	r2, r5, #7
  4085da:	f022 0207 	bic.w	r2, r2, #7
  4085de:	f102 0b08 	add.w	fp, r2, #8
  4085e2:	f8cd b020 	str.w	fp, [sp, #32]
  4085e6:	e9d2 4500 	ldrd	r4, r5, [r2]
  4085ea:	f01a 0f01 	tst.w	sl, #1
  4085ee:	f000 82aa 	beq.w	408b46 <_vfiprintf_r+0x9ee>
  4085f2:	ea54 0b05 	orrs.w	fp, r4, r5
  4085f6:	f000 82a6 	beq.w	408b46 <_vfiprintf_r+0x9ee>
  4085fa:	2230      	movs	r2, #48	; 0x30
  4085fc:	f88d 3049 	strb.w	r3, [sp, #73]	; 0x49
  408600:	f04a 0a02 	orr.w	sl, sl, #2
  408604:	f88d 2048 	strb.w	r2, [sp, #72]	; 0x48
  408608:	2302      	movs	r3, #2
  40860a:	e6b6      	b.n	40837a <_vfiprintf_r+0x222>
  40860c:	9b08      	ldr	r3, [sp, #32]
  40860e:	f8dd b020 	ldr.w	fp, [sp, #32]
  408612:	681b      	ldr	r3, [r3, #0]
  408614:	2401      	movs	r4, #1
  408616:	f04f 0500 	mov.w	r5, #0
  40861a:	f10b 0b04 	add.w	fp, fp, #4
  40861e:	9004      	str	r0, [sp, #16]
  408620:	9403      	str	r4, [sp, #12]
  408622:	f88d 5047 	strb.w	r5, [sp, #71]	; 0x47
  408626:	f88d 3058 	strb.w	r3, [sp, #88]	; 0x58
  40862a:	f8cd b020 	str.w	fp, [sp, #32]
  40862e:	9405      	str	r4, [sp, #20]
  408630:	af16      	add	r7, sp, #88	; 0x58
  408632:	f04f 0c00 	mov.w	ip, #0
  408636:	e6d0      	b.n	4083da <_vfiprintf_r+0x282>
  408638:	f01a 0f20 	tst.w	sl, #32
  40863c:	9004      	str	r0, [sp, #16]
  40863e:	46ac      	mov	ip, r5
  408640:	f88d 1047 	strb.w	r1, [sp, #71]	; 0x47
  408644:	f47f af38 	bne.w	4084b8 <_vfiprintf_r+0x360>
  408648:	f01a 0f10 	tst.w	sl, #16
  40864c:	f040 82a7 	bne.w	408b9e <_vfiprintf_r+0xa46>
  408650:	f01a 0f40 	tst.w	sl, #64	; 0x40
  408654:	f000 82a3 	beq.w	408b9e <_vfiprintf_r+0xa46>
  408658:	f8dd b020 	ldr.w	fp, [sp, #32]
  40865c:	f9bb 4000 	ldrsh.w	r4, [fp]
  408660:	f10b 0b04 	add.w	fp, fp, #4
  408664:	17e5      	asrs	r5, r4, #31
  408666:	4622      	mov	r2, r4
  408668:	462b      	mov	r3, r5
  40866a:	f8cd b020 	str.w	fp, [sp, #32]
  40866e:	e72d      	b.n	4084cc <_vfiprintf_r+0x374>
  408670:	f04a 0a40 	orr.w	sl, sl, #64	; 0x40
  408674:	f898 3000 	ldrb.w	r3, [r8]
  408678:	e5db      	b.n	408232 <_vfiprintf_r+0xda>
  40867a:	f898 3000 	ldrb.w	r3, [r8]
  40867e:	4642      	mov	r2, r8
  408680:	2b6c      	cmp	r3, #108	; 0x6c
  408682:	bf03      	ittte	eq
  408684:	f108 0801 	addeq.w	r8, r8, #1
  408688:	f04a 0a20 	orreq.w	sl, sl, #32
  40868c:	7853      	ldrbeq	r3, [r2, #1]
  40868e:	f04a 0a10 	orrne.w	sl, sl, #16
  408692:	e5ce      	b.n	408232 <_vfiprintf_r+0xda>
  408694:	f01a 0f20 	tst.w	sl, #32
  408698:	f88d 1047 	strb.w	r1, [sp, #71]	; 0x47
  40869c:	f000 82f7 	beq.w	408c8e <_vfiprintf_r+0xb36>
  4086a0:	9c08      	ldr	r4, [sp, #32]
  4086a2:	6821      	ldr	r1, [r4, #0]
  4086a4:	9c09      	ldr	r4, [sp, #36]	; 0x24
  4086a6:	17e5      	asrs	r5, r4, #31
  4086a8:	462b      	mov	r3, r5
  4086aa:	9d08      	ldr	r5, [sp, #32]
  4086ac:	4622      	mov	r2, r4
  4086ae:	3504      	adds	r5, #4
  4086b0:	9508      	str	r5, [sp, #32]
  4086b2:	e9c1 2300 	strd	r2, r3, [r1]
  4086b6:	e582      	b.n	4081be <_vfiprintf_r+0x66>
  4086b8:	9c08      	ldr	r4, [sp, #32]
  4086ba:	46ac      	mov	ip, r5
  4086bc:	6827      	ldr	r7, [r4, #0]
  4086be:	f04f 0500 	mov.w	r5, #0
  4086c2:	9004      	str	r0, [sp, #16]
  4086c4:	f88d 5047 	strb.w	r5, [sp, #71]	; 0x47
  4086c8:	3404      	adds	r4, #4
  4086ca:	2f00      	cmp	r7, #0
  4086cc:	f000 8332 	beq.w	408d34 <_vfiprintf_r+0xbdc>
  4086d0:	f1bc 0f00 	cmp.w	ip, #0
  4086d4:	4638      	mov	r0, r7
  4086d6:	f2c0 8307 	blt.w	408ce8 <_vfiprintf_r+0xb90>
  4086da:	4662      	mov	r2, ip
  4086dc:	2100      	movs	r1, #0
  4086de:	f8cd c004 	str.w	ip, [sp, #4]
  4086e2:	f002 f8ef 	bl	40a8c4 <memchr>
  4086e6:	f8dd c004 	ldr.w	ip, [sp, #4]
  4086ea:	2800      	cmp	r0, #0
  4086ec:	f000 833a 	beq.w	408d64 <_vfiprintf_r+0xc0c>
  4086f0:	1bc0      	subs	r0, r0, r7
  4086f2:	f89d 5047 	ldrb.w	r5, [sp, #71]	; 0x47
  4086f6:	4560      	cmp	r0, ip
  4086f8:	bfa8      	it	ge
  4086fa:	4660      	movge	r0, ip
  4086fc:	9005      	str	r0, [sp, #20]
  4086fe:	9408      	str	r4, [sp, #32]
  408700:	9507      	str	r5, [sp, #28]
  408702:	f04f 0c00 	mov.w	ip, #0
  408706:	e65b      	b.n	4083c0 <_vfiprintf_r+0x268>
  408708:	0040c7a4 	.word	0x0040c7a4
  40870c:	0040c750 	.word	0x0040c750
  408710:	9b08      	ldr	r3, [sp, #32]
  408712:	f8dd b020 	ldr.w	fp, [sp, #32]
  408716:	9004      	str	r0, [sp, #16]
  408718:	48b2      	ldr	r0, [pc, #712]	; (4089e4 <_vfiprintf_r+0x88c>)
  40871a:	681c      	ldr	r4, [r3, #0]
  40871c:	2230      	movs	r2, #48	; 0x30
  40871e:	2378      	movs	r3, #120	; 0x78
  408720:	f10b 0b04 	add.w	fp, fp, #4
  408724:	46ac      	mov	ip, r5
  408726:	f88d 3049 	strb.w	r3, [sp, #73]	; 0x49
  40872a:	f04a 0a02 	orr.w	sl, sl, #2
  40872e:	f8cd b020 	str.w	fp, [sp, #32]
  408732:	2500      	movs	r5, #0
  408734:	f88d 2048 	strb.w	r2, [sp, #72]	; 0x48
  408738:	900a      	str	r0, [sp, #40]	; 0x28
  40873a:	2302      	movs	r3, #2
  40873c:	e61d      	b.n	40837a <_vfiprintf_r+0x222>
  40873e:	f04a 0a20 	orr.w	sl, sl, #32
  408742:	f898 3000 	ldrb.w	r3, [r8]
  408746:	e574      	b.n	408232 <_vfiprintf_r+0xda>
  408748:	f8dd b020 	ldr.w	fp, [sp, #32]
  40874c:	f8db 0000 	ldr.w	r0, [fp]
  408750:	f10b 0304 	add.w	r3, fp, #4
  408754:	2800      	cmp	r0, #0
  408756:	f6ff adf7 	blt.w	408348 <_vfiprintf_r+0x1f0>
  40875a:	9308      	str	r3, [sp, #32]
  40875c:	f898 3000 	ldrb.w	r3, [r8]
  408760:	e567      	b.n	408232 <_vfiprintf_r+0xda>
  408762:	f898 3000 	ldrb.w	r3, [r8]
  408766:	212b      	movs	r1, #43	; 0x2b
  408768:	e563      	b.n	408232 <_vfiprintf_r+0xda>
  40876a:	f898 3000 	ldrb.w	r3, [r8]
  40876e:	f108 0401 	add.w	r4, r8, #1
  408772:	2b2a      	cmp	r3, #42	; 0x2a
  408774:	f000 8305 	beq.w	408d82 <_vfiprintf_r+0xc2a>
  408778:	f1a3 0230 	sub.w	r2, r3, #48	; 0x30
  40877c:	2a09      	cmp	r2, #9
  40877e:	bf98      	it	ls
  408780:	2500      	movls	r5, #0
  408782:	f200 82fa 	bhi.w	408d7a <_vfiprintf_r+0xc22>
  408786:	f814 3b01 	ldrb.w	r3, [r4], #1
  40878a:	eb05 0585 	add.w	r5, r5, r5, lsl #2
  40878e:	eb02 0545 	add.w	r5, r2, r5, lsl #1
  408792:	f1a3 0230 	sub.w	r2, r3, #48	; 0x30
  408796:	2a09      	cmp	r2, #9
  408798:	d9f5      	bls.n	408786 <_vfiprintf_r+0x62e>
  40879a:	ea45 75e5 	orr.w	r5, r5, r5, asr #31
  40879e:	46a0      	mov	r8, r4
  4087a0:	e549      	b.n	408236 <_vfiprintf_r+0xde>
  4087a2:	4c90      	ldr	r4, [pc, #576]	; (4089e4 <_vfiprintf_r+0x88c>)
  4087a4:	f01a 0f20 	tst.w	sl, #32
  4087a8:	9004      	str	r0, [sp, #16]
  4087aa:	46ac      	mov	ip, r5
  4087ac:	940a      	str	r4, [sp, #40]	; 0x28
  4087ae:	f88d 1047 	strb.w	r1, [sp, #71]	; 0x47
  4087b2:	f47f af10 	bne.w	4085d6 <_vfiprintf_r+0x47e>
  4087b6:	f01a 0f10 	tst.w	sl, #16
  4087ba:	f040 81ea 	bne.w	408b92 <_vfiprintf_r+0xa3a>
  4087be:	f01a 0f40 	tst.w	sl, #64	; 0x40
  4087c2:	f000 81e6 	beq.w	408b92 <_vfiprintf_r+0xa3a>
  4087c6:	f8dd b020 	ldr.w	fp, [sp, #32]
  4087ca:	2500      	movs	r5, #0
  4087cc:	f8bb 4000 	ldrh.w	r4, [fp]
  4087d0:	f10b 0b04 	add.w	fp, fp, #4
  4087d4:	f8cd b020 	str.w	fp, [sp, #32]
  4087d8:	e707      	b.n	4085ea <_vfiprintf_r+0x492>
  4087da:	f898 3000 	ldrb.w	r3, [r8]
  4087de:	2900      	cmp	r1, #0
  4087e0:	f47f ad27 	bne.w	408232 <_vfiprintf_r+0xda>
  4087e4:	2120      	movs	r1, #32
  4087e6:	e524      	b.n	408232 <_vfiprintf_r+0xda>
  4087e8:	f04a 0a01 	orr.w	sl, sl, #1
  4087ec:	f898 3000 	ldrb.w	r3, [r8]
  4087f0:	e51f      	b.n	408232 <_vfiprintf_r+0xda>
  4087f2:	9004      	str	r0, [sp, #16]
  4087f4:	f88d 1047 	strb.w	r1, [sp, #71]	; 0x47
  4087f8:	2b00      	cmp	r3, #0
  4087fa:	f000 80f9 	beq.w	4089f0 <_vfiprintf_r+0x898>
  4087fe:	2501      	movs	r5, #1
  408800:	f04f 0b00 	mov.w	fp, #0
  408804:	9503      	str	r5, [sp, #12]
  408806:	f88d 3058 	strb.w	r3, [sp, #88]	; 0x58
  40880a:	f88d b047 	strb.w	fp, [sp, #71]	; 0x47
  40880e:	9505      	str	r5, [sp, #20]
  408810:	af16      	add	r7, sp, #88	; 0x58
  408812:	e70e      	b.n	408632 <_vfiprintf_r+0x4da>
  408814:	9806      	ldr	r0, [sp, #24]
  408816:	9902      	ldr	r1, [sp, #8]
  408818:	aa13      	add	r2, sp, #76	; 0x4c
  40881a:	f7ff fc61 	bl	4080e0 <__sprint_r.part.0>
  40881e:	2800      	cmp	r0, #0
  408820:	f040 80ed 	bne.w	4089fe <_vfiprintf_r+0x8a6>
  408824:	9814      	ldr	r0, [sp, #80]	; 0x50
  408826:	9a15      	ldr	r2, [sp, #84]	; 0x54
  408828:	1c43      	adds	r3, r0, #1
  40882a:	46cc      	mov	ip, r9
  40882c:	e5fe      	b.n	40842c <_vfiprintf_r+0x2d4>
  40882e:	9b14      	ldr	r3, [sp, #80]	; 0x50
  408830:	9a15      	ldr	r2, [sp, #84]	; 0x54
  408832:	1c59      	adds	r1, r3, #1
  408834:	f89d 0047 	ldrb.w	r0, [sp, #71]	; 0x47
  408838:	b168      	cbz	r0, 408856 <_vfiprintf_r+0x6fe>
  40883a:	3201      	adds	r2, #1
  40883c:	f10d 0047 	add.w	r0, sp, #71	; 0x47
  408840:	2301      	movs	r3, #1
  408842:	2907      	cmp	r1, #7
  408844:	9215      	str	r2, [sp, #84]	; 0x54
  408846:	9114      	str	r1, [sp, #80]	; 0x50
  408848:	e886 0009 	stmia.w	r6, {r0, r3}
  40884c:	f300 8160 	bgt.w	408b10 <_vfiprintf_r+0x9b8>
  408850:	460b      	mov	r3, r1
  408852:	3608      	adds	r6, #8
  408854:	3101      	adds	r1, #1
  408856:	9c07      	ldr	r4, [sp, #28]
  408858:	b164      	cbz	r4, 408874 <_vfiprintf_r+0x71c>
  40885a:	3202      	adds	r2, #2
  40885c:	a812      	add	r0, sp, #72	; 0x48
  40885e:	2302      	movs	r3, #2
  408860:	2907      	cmp	r1, #7
  408862:	9215      	str	r2, [sp, #84]	; 0x54
  408864:	9114      	str	r1, [sp, #80]	; 0x50
  408866:	e886 0009 	stmia.w	r6, {r0, r3}
  40886a:	f300 8157 	bgt.w	408b1c <_vfiprintf_r+0x9c4>
  40886e:	460b      	mov	r3, r1
  408870:	3608      	adds	r6, #8
  408872:	3101      	adds	r1, #1
  408874:	9d0b      	ldr	r5, [sp, #44]	; 0x2c
  408876:	2d80      	cmp	r5, #128	; 0x80
  408878:	f000 8101 	beq.w	408a7e <_vfiprintf_r+0x926>
  40887c:	9d05      	ldr	r5, [sp, #20]
  40887e:	ebc5 040c 	rsb	r4, r5, ip
  408882:	2c00      	cmp	r4, #0
  408884:	dd2f      	ble.n	4088e6 <_vfiprintf_r+0x78e>
  408886:	2c10      	cmp	r4, #16
  408888:	4d57      	ldr	r5, [pc, #348]	; (4089e8 <_vfiprintf_r+0x890>)
  40888a:	dd22      	ble.n	4088d2 <_vfiprintf_r+0x77a>
  40888c:	4630      	mov	r0, r6
  40888e:	f04f 0b10 	mov.w	fp, #16
  408892:	462e      	mov	r6, r5
  408894:	4625      	mov	r5, r4
  408896:	9c06      	ldr	r4, [sp, #24]
  408898:	e006      	b.n	4088a8 <_vfiprintf_r+0x750>
  40889a:	f103 0c02 	add.w	ip, r3, #2
  40889e:	3008      	adds	r0, #8
  4088a0:	460b      	mov	r3, r1
  4088a2:	3d10      	subs	r5, #16
  4088a4:	2d10      	cmp	r5, #16
  4088a6:	dd10      	ble.n	4088ca <_vfiprintf_r+0x772>
  4088a8:	1c59      	adds	r1, r3, #1
  4088aa:	3210      	adds	r2, #16
  4088ac:	2907      	cmp	r1, #7
  4088ae:	9215      	str	r2, [sp, #84]	; 0x54
  4088b0:	e880 0840 	stmia.w	r0, {r6, fp}
  4088b4:	9114      	str	r1, [sp, #80]	; 0x50
  4088b6:	ddf0      	ble.n	40889a <_vfiprintf_r+0x742>
  4088b8:	2a00      	cmp	r2, #0
  4088ba:	d163      	bne.n	408984 <_vfiprintf_r+0x82c>
  4088bc:	3d10      	subs	r5, #16
  4088be:	2d10      	cmp	r5, #16
  4088c0:	f04f 0c01 	mov.w	ip, #1
  4088c4:	4613      	mov	r3, r2
  4088c6:	4648      	mov	r0, r9
  4088c8:	dcee      	bgt.n	4088a8 <_vfiprintf_r+0x750>
  4088ca:	462c      	mov	r4, r5
  4088cc:	4661      	mov	r1, ip
  4088ce:	4635      	mov	r5, r6
  4088d0:	4606      	mov	r6, r0
  4088d2:	4422      	add	r2, r4
  4088d4:	2907      	cmp	r1, #7
  4088d6:	9215      	str	r2, [sp, #84]	; 0x54
  4088d8:	6035      	str	r5, [r6, #0]
  4088da:	6074      	str	r4, [r6, #4]
  4088dc:	9114      	str	r1, [sp, #80]	; 0x50
  4088de:	f300 80c1 	bgt.w	408a64 <_vfiprintf_r+0x90c>
  4088e2:	3608      	adds	r6, #8
  4088e4:	3101      	adds	r1, #1
  4088e6:	9d05      	ldr	r5, [sp, #20]
  4088e8:	2907      	cmp	r1, #7
  4088ea:	442a      	add	r2, r5
  4088ec:	9215      	str	r2, [sp, #84]	; 0x54
  4088ee:	6037      	str	r7, [r6, #0]
  4088f0:	6075      	str	r5, [r6, #4]
  4088f2:	9114      	str	r1, [sp, #80]	; 0x50
  4088f4:	f340 80c1 	ble.w	408a7a <_vfiprintf_r+0x922>
  4088f8:	2a00      	cmp	r2, #0
  4088fa:	f040 8130 	bne.w	408b5e <_vfiprintf_r+0xa06>
  4088fe:	9214      	str	r2, [sp, #80]	; 0x50
  408900:	464e      	mov	r6, r9
  408902:	f01a 0f04 	tst.w	sl, #4
  408906:	f000 808b 	beq.w	408a20 <_vfiprintf_r+0x8c8>
  40890a:	9d04      	ldr	r5, [sp, #16]
  40890c:	f8dd b00c 	ldr.w	fp, [sp, #12]
  408910:	ebcb 0405 	rsb	r4, fp, r5
  408914:	2c00      	cmp	r4, #0
  408916:	f340 8083 	ble.w	408a20 <_vfiprintf_r+0x8c8>
  40891a:	2c10      	cmp	r4, #16
  40891c:	f340 821e 	ble.w	408d5c <_vfiprintf_r+0xc04>
  408920:	9914      	ldr	r1, [sp, #80]	; 0x50
  408922:	4d32      	ldr	r5, [pc, #200]	; (4089ec <_vfiprintf_r+0x894>)
  408924:	2710      	movs	r7, #16
  408926:	f8dd a018 	ldr.w	sl, [sp, #24]
  40892a:	f8dd b008 	ldr.w	fp, [sp, #8]
  40892e:	e005      	b.n	40893c <_vfiprintf_r+0x7e4>
  408930:	1c88      	adds	r0, r1, #2
  408932:	3608      	adds	r6, #8
  408934:	4619      	mov	r1, r3
  408936:	3c10      	subs	r4, #16
  408938:	2c10      	cmp	r4, #16
  40893a:	dd10      	ble.n	40895e <_vfiprintf_r+0x806>
  40893c:	1c4b      	adds	r3, r1, #1
  40893e:	3210      	adds	r2, #16
  408940:	2b07      	cmp	r3, #7
  408942:	9215      	str	r2, [sp, #84]	; 0x54
  408944:	e886 00a0 	stmia.w	r6, {r5, r7}
  408948:	9314      	str	r3, [sp, #80]	; 0x50
  40894a:	ddf1      	ble.n	408930 <_vfiprintf_r+0x7d8>
  40894c:	2a00      	cmp	r2, #0
  40894e:	d17d      	bne.n	408a4c <_vfiprintf_r+0x8f4>
  408950:	3c10      	subs	r4, #16
  408952:	2c10      	cmp	r4, #16
  408954:	f04f 0001 	mov.w	r0, #1
  408958:	4611      	mov	r1, r2
  40895a:	464e      	mov	r6, r9
  40895c:	dcee      	bgt.n	40893c <_vfiprintf_r+0x7e4>
  40895e:	4422      	add	r2, r4
  408960:	2807      	cmp	r0, #7
  408962:	9215      	str	r2, [sp, #84]	; 0x54
  408964:	6035      	str	r5, [r6, #0]
  408966:	6074      	str	r4, [r6, #4]
  408968:	9014      	str	r0, [sp, #80]	; 0x50
  40896a:	dd59      	ble.n	408a20 <_vfiprintf_r+0x8c8>
  40896c:	2a00      	cmp	r2, #0
  40896e:	d14f      	bne.n	408a10 <_vfiprintf_r+0x8b8>
  408970:	9c09      	ldr	r4, [sp, #36]	; 0x24
  408972:	f8dd b00c 	ldr.w	fp, [sp, #12]
  408976:	9d04      	ldr	r5, [sp, #16]
  408978:	45ab      	cmp	fp, r5
  40897a:	bfac      	ite	ge
  40897c:	445c      	addge	r4, fp
  40897e:	1964      	addlt	r4, r4, r5
  408980:	9409      	str	r4, [sp, #36]	; 0x24
  408982:	e05e      	b.n	408a42 <_vfiprintf_r+0x8ea>
  408984:	4620      	mov	r0, r4
  408986:	9902      	ldr	r1, [sp, #8]
  408988:	aa13      	add	r2, sp, #76	; 0x4c
  40898a:	f7ff fba9 	bl	4080e0 <__sprint_r.part.0>
  40898e:	2800      	cmp	r0, #0
  408990:	d135      	bne.n	4089fe <_vfiprintf_r+0x8a6>
  408992:	9b14      	ldr	r3, [sp, #80]	; 0x50
  408994:	9a15      	ldr	r2, [sp, #84]	; 0x54
  408996:	f103 0c01 	add.w	ip, r3, #1
  40899a:	4648      	mov	r0, r9
  40899c:	e781      	b.n	4088a2 <_vfiprintf_r+0x74a>
  40899e:	08e0      	lsrs	r0, r4, #3
  4089a0:	ea40 7045 	orr.w	r0, r0, r5, lsl #29
  4089a4:	f004 0207 	and.w	r2, r4, #7
  4089a8:	08e9      	lsrs	r1, r5, #3
  4089aa:	3230      	adds	r2, #48	; 0x30
  4089ac:	ea50 0b01 	orrs.w	fp, r0, r1
  4089b0:	461f      	mov	r7, r3
  4089b2:	701a      	strb	r2, [r3, #0]
  4089b4:	4604      	mov	r4, r0
  4089b6:	460d      	mov	r5, r1
  4089b8:	f103 33ff 	add.w	r3, r3, #4294967295
  4089bc:	d1ef      	bne.n	40899e <_vfiprintf_r+0x846>
  4089be:	f01a 0f01 	tst.w	sl, #1
  4089c2:	e9cd 010c 	strd	r0, r1, [sp, #48]	; 0x30
  4089c6:	4639      	mov	r1, r7
  4089c8:	f000 80b9 	beq.w	408b3e <_vfiprintf_r+0x9e6>
  4089cc:	2a30      	cmp	r2, #48	; 0x30
  4089ce:	f43f acf4 	beq.w	4083ba <_vfiprintf_r+0x262>
  4089d2:	461f      	mov	r7, r3
  4089d4:	ebc7 0509 	rsb	r5, r7, r9
  4089d8:	2330      	movs	r3, #48	; 0x30
  4089da:	9505      	str	r5, [sp, #20]
  4089dc:	f801 3c01 	strb.w	r3, [r1, #-1]
  4089e0:	e4ee      	b.n	4083c0 <_vfiprintf_r+0x268>
  4089e2:	bf00      	nop
  4089e4:	0040c764 	.word	0x0040c764
  4089e8:	0040c794 	.word	0x0040c794
  4089ec:	0040c7a4 	.word	0x0040c7a4
  4089f0:	9b15      	ldr	r3, [sp, #84]	; 0x54
  4089f2:	b123      	cbz	r3, 4089fe <_vfiprintf_r+0x8a6>
  4089f4:	9806      	ldr	r0, [sp, #24]
  4089f6:	9902      	ldr	r1, [sp, #8]
  4089f8:	aa13      	add	r2, sp, #76	; 0x4c
  4089fa:	f7ff fb71 	bl	4080e0 <__sprint_r.part.0>
  4089fe:	9c02      	ldr	r4, [sp, #8]
  408a00:	89a3      	ldrh	r3, [r4, #12]
  408a02:	065b      	lsls	r3, r3, #25
  408a04:	f53f ac98 	bmi.w	408338 <_vfiprintf_r+0x1e0>
  408a08:	9809      	ldr	r0, [sp, #36]	; 0x24
  408a0a:	b031      	add	sp, #196	; 0xc4
  408a0c:	e8bd 8ff0 	ldmia.w	sp!, {r4, r5, r6, r7, r8, r9, sl, fp, pc}
  408a10:	9806      	ldr	r0, [sp, #24]
  408a12:	9902      	ldr	r1, [sp, #8]
  408a14:	aa13      	add	r2, sp, #76	; 0x4c
  408a16:	f7ff fb63 	bl	4080e0 <__sprint_r.part.0>
  408a1a:	2800      	cmp	r0, #0
  408a1c:	d1ef      	bne.n	4089fe <_vfiprintf_r+0x8a6>
  408a1e:	9a15      	ldr	r2, [sp, #84]	; 0x54
  408a20:	9c09      	ldr	r4, [sp, #36]	; 0x24
  408a22:	f8dd b00c 	ldr.w	fp, [sp, #12]
  408a26:	9d04      	ldr	r5, [sp, #16]
  408a28:	45ab      	cmp	fp, r5
  408a2a:	bfac      	ite	ge
  408a2c:	445c      	addge	r4, fp
  408a2e:	1964      	addlt	r4, r4, r5
  408a30:	9409      	str	r4, [sp, #36]	; 0x24
  408a32:	b132      	cbz	r2, 408a42 <_vfiprintf_r+0x8ea>
  408a34:	9806      	ldr	r0, [sp, #24]
  408a36:	9902      	ldr	r1, [sp, #8]
  408a38:	aa13      	add	r2, sp, #76	; 0x4c
  408a3a:	f7ff fb51 	bl	4080e0 <__sprint_r.part.0>
  408a3e:	2800      	cmp	r0, #0
  408a40:	d1dd      	bne.n	4089fe <_vfiprintf_r+0x8a6>
  408a42:	2000      	movs	r0, #0
  408a44:	9014      	str	r0, [sp, #80]	; 0x50
  408a46:	464e      	mov	r6, r9
  408a48:	f7ff bbb9 	b.w	4081be <_vfiprintf_r+0x66>
  408a4c:	4650      	mov	r0, sl
  408a4e:	4659      	mov	r1, fp
  408a50:	aa13      	add	r2, sp, #76	; 0x4c
  408a52:	f7ff fb45 	bl	4080e0 <__sprint_r.part.0>
  408a56:	2800      	cmp	r0, #0
  408a58:	d1d1      	bne.n	4089fe <_vfiprintf_r+0x8a6>
  408a5a:	9914      	ldr	r1, [sp, #80]	; 0x50
  408a5c:	9a15      	ldr	r2, [sp, #84]	; 0x54
  408a5e:	1c48      	adds	r0, r1, #1
  408a60:	464e      	mov	r6, r9
  408a62:	e768      	b.n	408936 <_vfiprintf_r+0x7de>
  408a64:	2a00      	cmp	r2, #0
  408a66:	f040 80f7 	bne.w	408c58 <_vfiprintf_r+0xb00>
  408a6a:	9c05      	ldr	r4, [sp, #20]
  408a6c:	2301      	movs	r3, #1
  408a6e:	9720      	str	r7, [sp, #128]	; 0x80
  408a70:	9421      	str	r4, [sp, #132]	; 0x84
  408a72:	9415      	str	r4, [sp, #84]	; 0x54
  408a74:	4622      	mov	r2, r4
  408a76:	9314      	str	r3, [sp, #80]	; 0x50
  408a78:	464e      	mov	r6, r9
  408a7a:	3608      	adds	r6, #8
  408a7c:	e741      	b.n	408902 <_vfiprintf_r+0x7aa>
  408a7e:	9d04      	ldr	r5, [sp, #16]
  408a80:	f8dd b00c 	ldr.w	fp, [sp, #12]
  408a84:	ebcb 0405 	rsb	r4, fp, r5
  408a88:	2c00      	cmp	r4, #0
  408a8a:	f77f aef7 	ble.w	40887c <_vfiprintf_r+0x724>
  408a8e:	2c10      	cmp	r4, #16
  408a90:	4da6      	ldr	r5, [pc, #664]	; (408d2c <_vfiprintf_r+0xbd4>)
  408a92:	f340 8170 	ble.w	408d76 <_vfiprintf_r+0xc1e>
  408a96:	4629      	mov	r1, r5
  408a98:	f04f 0b10 	mov.w	fp, #16
  408a9c:	4625      	mov	r5, r4
  408a9e:	4664      	mov	r4, ip
  408aa0:	46b4      	mov	ip, r6
  408aa2:	460e      	mov	r6, r1
  408aa4:	e006      	b.n	408ab4 <_vfiprintf_r+0x95c>
  408aa6:	1c98      	adds	r0, r3, #2
  408aa8:	f10c 0c08 	add.w	ip, ip, #8
  408aac:	460b      	mov	r3, r1
  408aae:	3d10      	subs	r5, #16
  408ab0:	2d10      	cmp	r5, #16
  408ab2:	dd0f      	ble.n	408ad4 <_vfiprintf_r+0x97c>
  408ab4:	1c59      	adds	r1, r3, #1
  408ab6:	3210      	adds	r2, #16
  408ab8:	2907      	cmp	r1, #7
  408aba:	9215      	str	r2, [sp, #84]	; 0x54
  408abc:	e88c 0840 	stmia.w	ip, {r6, fp}
  408ac0:	9114      	str	r1, [sp, #80]	; 0x50
  408ac2:	ddf0      	ble.n	408aa6 <_vfiprintf_r+0x94e>
  408ac4:	b9ba      	cbnz	r2, 408af6 <_vfiprintf_r+0x99e>
  408ac6:	3d10      	subs	r5, #16
  408ac8:	2d10      	cmp	r5, #16
  408aca:	f04f 0001 	mov.w	r0, #1
  408ace:	4613      	mov	r3, r2
  408ad0:	46cc      	mov	ip, r9
  408ad2:	dcef      	bgt.n	408ab4 <_vfiprintf_r+0x95c>
  408ad4:	4633      	mov	r3, r6
  408ad6:	4666      	mov	r6, ip
  408ad8:	46a4      	mov	ip, r4
  408ada:	462c      	mov	r4, r5
  408adc:	461d      	mov	r5, r3
  408ade:	4422      	add	r2, r4
  408ae0:	2807      	cmp	r0, #7
  408ae2:	9215      	str	r2, [sp, #84]	; 0x54
  408ae4:	6035      	str	r5, [r6, #0]
  408ae6:	6074      	str	r4, [r6, #4]
  408ae8:	9014      	str	r0, [sp, #80]	; 0x50
  408aea:	f300 80af 	bgt.w	408c4c <_vfiprintf_r+0xaf4>
  408aee:	3608      	adds	r6, #8
  408af0:	1c41      	adds	r1, r0, #1
  408af2:	4603      	mov	r3, r0
  408af4:	e6c2      	b.n	40887c <_vfiprintf_r+0x724>
  408af6:	9806      	ldr	r0, [sp, #24]
  408af8:	9902      	ldr	r1, [sp, #8]
  408afa:	aa13      	add	r2, sp, #76	; 0x4c
  408afc:	f7ff faf0 	bl	4080e0 <__sprint_r.part.0>
  408b00:	2800      	cmp	r0, #0
  408b02:	f47f af7c 	bne.w	4089fe <_vfiprintf_r+0x8a6>
  408b06:	9b14      	ldr	r3, [sp, #80]	; 0x50
  408b08:	9a15      	ldr	r2, [sp, #84]	; 0x54
  408b0a:	1c58      	adds	r0, r3, #1
  408b0c:	46cc      	mov	ip, r9
  408b0e:	e7ce      	b.n	408aae <_vfiprintf_r+0x956>
  408b10:	2a00      	cmp	r2, #0
  408b12:	d179      	bne.n	408c08 <_vfiprintf_r+0xab0>
  408b14:	4619      	mov	r1, r3
  408b16:	464e      	mov	r6, r9
  408b18:	4613      	mov	r3, r2
  408b1a:	e69c      	b.n	408856 <_vfiprintf_r+0x6fe>
  408b1c:	2a00      	cmp	r2, #0
  408b1e:	f040 8084 	bne.w	408c2a <_vfiprintf_r+0xad2>
  408b22:	2101      	movs	r1, #1
  408b24:	4613      	mov	r3, r2
  408b26:	464e      	mov	r6, r9
  408b28:	e6a4      	b.n	408874 <_vfiprintf_r+0x71c>
  408b2a:	464f      	mov	r7, r9
  408b2c:	e448      	b.n	4083c0 <_vfiprintf_r+0x268>
  408b2e:	2d00      	cmp	r5, #0
  408b30:	bf08      	it	eq
  408b32:	2c0a      	cmpeq	r4, #10
  408b34:	d246      	bcs.n	408bc4 <_vfiprintf_r+0xa6c>
  408b36:	3430      	adds	r4, #48	; 0x30
  408b38:	af30      	add	r7, sp, #192	; 0xc0
  408b3a:	f807 4d41 	strb.w	r4, [r7, #-65]!
  408b3e:	ebc7 0309 	rsb	r3, r7, r9
  408b42:	9305      	str	r3, [sp, #20]
  408b44:	e43c      	b.n	4083c0 <_vfiprintf_r+0x268>
  408b46:	2302      	movs	r3, #2
  408b48:	e417      	b.n	40837a <_vfiprintf_r+0x222>
  408b4a:	2a00      	cmp	r2, #0
  408b4c:	f040 80af 	bne.w	408cae <_vfiprintf_r+0xb56>
  408b50:	4613      	mov	r3, r2
  408b52:	2101      	movs	r1, #1
  408b54:	464e      	mov	r6, r9
  408b56:	e66d      	b.n	408834 <_vfiprintf_r+0x6dc>
  408b58:	4644      	mov	r4, r8
  408b5a:	f7ff bb58 	b.w	40820e <_vfiprintf_r+0xb6>
  408b5e:	9806      	ldr	r0, [sp, #24]
  408b60:	9902      	ldr	r1, [sp, #8]
  408b62:	aa13      	add	r2, sp, #76	; 0x4c
  408b64:	f7ff fabc 	bl	4080e0 <__sprint_r.part.0>
  408b68:	2800      	cmp	r0, #0
  408b6a:	f47f af48 	bne.w	4089fe <_vfiprintf_r+0x8a6>
  408b6e:	9a15      	ldr	r2, [sp, #84]	; 0x54
  408b70:	464e      	mov	r6, r9
  408b72:	e6c6      	b.n	408902 <_vfiprintf_r+0x7aa>
  408b74:	9d08      	ldr	r5, [sp, #32]
  408b76:	682c      	ldr	r4, [r5, #0]
  408b78:	3504      	adds	r5, #4
  408b7a:	9508      	str	r5, [sp, #32]
  408b7c:	2500      	movs	r5, #0
  408b7e:	f7ff bbfc 	b.w	40837a <_vfiprintf_r+0x222>
  408b82:	9d08      	ldr	r5, [sp, #32]
  408b84:	2301      	movs	r3, #1
  408b86:	682c      	ldr	r4, [r5, #0]
  408b88:	3504      	adds	r5, #4
  408b8a:	9508      	str	r5, [sp, #32]
  408b8c:	2500      	movs	r5, #0
  408b8e:	f7ff bbf4 	b.w	40837a <_vfiprintf_r+0x222>
  408b92:	9d08      	ldr	r5, [sp, #32]
  408b94:	682c      	ldr	r4, [r5, #0]
  408b96:	3504      	adds	r5, #4
  408b98:	9508      	str	r5, [sp, #32]
  408b9a:	2500      	movs	r5, #0
  408b9c:	e525      	b.n	4085ea <_vfiprintf_r+0x492>
  408b9e:	9d08      	ldr	r5, [sp, #32]
  408ba0:	682c      	ldr	r4, [r5, #0]
  408ba2:	3504      	adds	r5, #4
  408ba4:	9508      	str	r5, [sp, #32]
  408ba6:	17e5      	asrs	r5, r4, #31
  408ba8:	4622      	mov	r2, r4
  408baa:	462b      	mov	r3, r5
  408bac:	e48e      	b.n	4084cc <_vfiprintf_r+0x374>
  408bae:	9806      	ldr	r0, [sp, #24]
  408bb0:	9902      	ldr	r1, [sp, #8]
  408bb2:	aa13      	add	r2, sp, #76	; 0x4c
  408bb4:	f7ff fa94 	bl	4080e0 <__sprint_r.part.0>
  408bb8:	2800      	cmp	r0, #0
  408bba:	f47f af20 	bne.w	4089fe <_vfiprintf_r+0x8a6>
  408bbe:	464e      	mov	r6, r9
  408bc0:	f7ff bb9a 	b.w	4082f8 <_vfiprintf_r+0x1a0>
  408bc4:	f10d 0b7f 	add.w	fp, sp, #127	; 0x7f
  408bc8:	9603      	str	r6, [sp, #12]
  408bca:	465e      	mov	r6, fp
  408bcc:	46e3      	mov	fp, ip
  408bce:	4620      	mov	r0, r4
  408bd0:	4629      	mov	r1, r5
  408bd2:	220a      	movs	r2, #10
  408bd4:	2300      	movs	r3, #0
  408bd6:	f002 fce3 	bl	40b5a0 <__aeabi_uldivmod>
  408bda:	3230      	adds	r2, #48	; 0x30
  408bdc:	7032      	strb	r2, [r6, #0]
  408bde:	4620      	mov	r0, r4
  408be0:	4629      	mov	r1, r5
  408be2:	220a      	movs	r2, #10
  408be4:	2300      	movs	r3, #0
  408be6:	f002 fcdb 	bl	40b5a0 <__aeabi_uldivmod>
  408bea:	4604      	mov	r4, r0
  408bec:	460d      	mov	r5, r1
  408bee:	ea54 0005 	orrs.w	r0, r4, r5
  408bf2:	4637      	mov	r7, r6
  408bf4:	f106 36ff 	add.w	r6, r6, #4294967295
  408bf8:	d1e9      	bne.n	408bce <_vfiprintf_r+0xa76>
  408bfa:	ebc7 0309 	rsb	r3, r7, r9
  408bfe:	46dc      	mov	ip, fp
  408c00:	9e03      	ldr	r6, [sp, #12]
  408c02:	9305      	str	r3, [sp, #20]
  408c04:	f7ff bbdc 	b.w	4083c0 <_vfiprintf_r+0x268>
  408c08:	9806      	ldr	r0, [sp, #24]
  408c0a:	9902      	ldr	r1, [sp, #8]
  408c0c:	aa13      	add	r2, sp, #76	; 0x4c
  408c0e:	f8cd c004 	str.w	ip, [sp, #4]
  408c12:	f7ff fa65 	bl	4080e0 <__sprint_r.part.0>
  408c16:	f8dd c004 	ldr.w	ip, [sp, #4]
  408c1a:	2800      	cmp	r0, #0
  408c1c:	f47f aeef 	bne.w	4089fe <_vfiprintf_r+0x8a6>
  408c20:	9b14      	ldr	r3, [sp, #80]	; 0x50
  408c22:	9a15      	ldr	r2, [sp, #84]	; 0x54
  408c24:	1c59      	adds	r1, r3, #1
  408c26:	464e      	mov	r6, r9
  408c28:	e615      	b.n	408856 <_vfiprintf_r+0x6fe>
  408c2a:	9806      	ldr	r0, [sp, #24]
  408c2c:	9902      	ldr	r1, [sp, #8]
  408c2e:	aa13      	add	r2, sp, #76	; 0x4c
  408c30:	f8cd c004 	str.w	ip, [sp, #4]
  408c34:	f7ff fa54 	bl	4080e0 <__sprint_r.part.0>
  408c38:	f8dd c004 	ldr.w	ip, [sp, #4]
  408c3c:	2800      	cmp	r0, #0
  408c3e:	f47f aede 	bne.w	4089fe <_vfiprintf_r+0x8a6>
  408c42:	9b14      	ldr	r3, [sp, #80]	; 0x50
  408c44:	9a15      	ldr	r2, [sp, #84]	; 0x54
  408c46:	1c59      	adds	r1, r3, #1
  408c48:	464e      	mov	r6, r9
  408c4a:	e613      	b.n	408874 <_vfiprintf_r+0x71c>
  408c4c:	2a00      	cmp	r2, #0
  408c4e:	d156      	bne.n	408cfe <_vfiprintf_r+0xba6>
  408c50:	2101      	movs	r1, #1
  408c52:	4613      	mov	r3, r2
  408c54:	464e      	mov	r6, r9
  408c56:	e611      	b.n	40887c <_vfiprintf_r+0x724>
  408c58:	9806      	ldr	r0, [sp, #24]
  408c5a:	9902      	ldr	r1, [sp, #8]
  408c5c:	aa13      	add	r2, sp, #76	; 0x4c
  408c5e:	f7ff fa3f 	bl	4080e0 <__sprint_r.part.0>
  408c62:	2800      	cmp	r0, #0
  408c64:	f47f aecb 	bne.w	4089fe <_vfiprintf_r+0x8a6>
  408c68:	9914      	ldr	r1, [sp, #80]	; 0x50
  408c6a:	9a15      	ldr	r2, [sp, #84]	; 0x54
  408c6c:	3101      	adds	r1, #1
  408c6e:	464e      	mov	r6, r9
  408c70:	e639      	b.n	4088e6 <_vfiprintf_r+0x78e>
  408c72:	f04f 0b2d 	mov.w	fp, #45	; 0x2d
  408c76:	4264      	negs	r4, r4
  408c78:	eb65 0545 	sbc.w	r5, r5, r5, lsl #1
  408c7c:	f88d b047 	strb.w	fp, [sp, #71]	; 0x47
  408c80:	f8cd b01c 	str.w	fp, [sp, #28]
  408c84:	f8cd c014 	str.w	ip, [sp, #20]
  408c88:	2301      	movs	r3, #1
  408c8a:	f7ff bb7e 	b.w	40838a <_vfiprintf_r+0x232>
  408c8e:	f01a 0f10 	tst.w	sl, #16
  408c92:	d11d      	bne.n	408cd0 <_vfiprintf_r+0xb78>
  408c94:	f01a 0f40 	tst.w	sl, #64	; 0x40
  408c98:	d058      	beq.n	408d4c <_vfiprintf_r+0xbf4>
  408c9a:	9d08      	ldr	r5, [sp, #32]
  408c9c:	f8dd b024 	ldr.w	fp, [sp, #36]	; 0x24
  408ca0:	682b      	ldr	r3, [r5, #0]
  408ca2:	3504      	adds	r5, #4
  408ca4:	9508      	str	r5, [sp, #32]
  408ca6:	f8a3 b000 	strh.w	fp, [r3]
  408caa:	f7ff ba88 	b.w	4081be <_vfiprintf_r+0x66>
  408cae:	9806      	ldr	r0, [sp, #24]
  408cb0:	9902      	ldr	r1, [sp, #8]
  408cb2:	aa13      	add	r2, sp, #76	; 0x4c
  408cb4:	f8cd c004 	str.w	ip, [sp, #4]
  408cb8:	f7ff fa12 	bl	4080e0 <__sprint_r.part.0>
  408cbc:	f8dd c004 	ldr.w	ip, [sp, #4]
  408cc0:	2800      	cmp	r0, #0
  408cc2:	f47f ae9c 	bne.w	4089fe <_vfiprintf_r+0x8a6>
  408cc6:	9b14      	ldr	r3, [sp, #80]	; 0x50
  408cc8:	9a15      	ldr	r2, [sp, #84]	; 0x54
  408cca:	1c59      	adds	r1, r3, #1
  408ccc:	464e      	mov	r6, r9
  408cce:	e5b1      	b.n	408834 <_vfiprintf_r+0x6dc>
  408cd0:	f8dd b020 	ldr.w	fp, [sp, #32]
  408cd4:	9c09      	ldr	r4, [sp, #36]	; 0x24
  408cd6:	f8db 3000 	ldr.w	r3, [fp]
  408cda:	f10b 0b04 	add.w	fp, fp, #4
  408cde:	f8cd b020 	str.w	fp, [sp, #32]
  408ce2:	601c      	str	r4, [r3, #0]
  408ce4:	f7ff ba6b 	b.w	4081be <_vfiprintf_r+0x66>
  408ce8:	9408      	str	r4, [sp, #32]
  408cea:	f7fd ff27 	bl	406b3c <strlen>
  408cee:	f89d 4047 	ldrb.w	r4, [sp, #71]	; 0x47
  408cf2:	9005      	str	r0, [sp, #20]
  408cf4:	9407      	str	r4, [sp, #28]
  408cf6:	f04f 0c00 	mov.w	ip, #0
  408cfa:	f7ff bb61 	b.w	4083c0 <_vfiprintf_r+0x268>
  408cfe:	9806      	ldr	r0, [sp, #24]
  408d00:	9902      	ldr	r1, [sp, #8]
  408d02:	aa13      	add	r2, sp, #76	; 0x4c
  408d04:	f8cd c004 	str.w	ip, [sp, #4]
  408d08:	f7ff f9ea 	bl	4080e0 <__sprint_r.part.0>
  408d0c:	f8dd c004 	ldr.w	ip, [sp, #4]
  408d10:	2800      	cmp	r0, #0
  408d12:	f47f ae74 	bne.w	4089fe <_vfiprintf_r+0x8a6>
  408d16:	9b14      	ldr	r3, [sp, #80]	; 0x50
  408d18:	9a15      	ldr	r2, [sp, #84]	; 0x54
  408d1a:	1c59      	adds	r1, r3, #1
  408d1c:	464e      	mov	r6, r9
  408d1e:	e5ad      	b.n	40887c <_vfiprintf_r+0x724>
  408d20:	9b14      	ldr	r3, [sp, #80]	; 0x50
  408d22:	9a15      	ldr	r2, [sp, #84]	; 0x54
  408d24:	3301      	adds	r3, #1
  408d26:	4d02      	ldr	r5, [pc, #8]	; (408d30 <_vfiprintf_r+0xbd8>)
  408d28:	f7ff bb9a 	b.w	408460 <_vfiprintf_r+0x308>
  408d2c:	0040c794 	.word	0x0040c794
  408d30:	0040c7a4 	.word	0x0040c7a4
  408d34:	f1bc 0f06 	cmp.w	ip, #6
  408d38:	bf34      	ite	cc
  408d3a:	4663      	movcc	r3, ip
  408d3c:	2306      	movcs	r3, #6
  408d3e:	9408      	str	r4, [sp, #32]
  408d40:	ea23 74e3 	bic.w	r4, r3, r3, asr #31
  408d44:	9305      	str	r3, [sp, #20]
  408d46:	9403      	str	r4, [sp, #12]
  408d48:	4f16      	ldr	r7, [pc, #88]	; (408da4 <_vfiprintf_r+0xc4c>)
  408d4a:	e472      	b.n	408632 <_vfiprintf_r+0x4da>
  408d4c:	9c08      	ldr	r4, [sp, #32]
  408d4e:	9d09      	ldr	r5, [sp, #36]	; 0x24
  408d50:	6823      	ldr	r3, [r4, #0]
  408d52:	3404      	adds	r4, #4
  408d54:	9408      	str	r4, [sp, #32]
  408d56:	601d      	str	r5, [r3, #0]
  408d58:	f7ff ba31 	b.w	4081be <_vfiprintf_r+0x66>
  408d5c:	9814      	ldr	r0, [sp, #80]	; 0x50
  408d5e:	4d12      	ldr	r5, [pc, #72]	; (408da8 <_vfiprintf_r+0xc50>)
  408d60:	3001      	adds	r0, #1
  408d62:	e5fc      	b.n	40895e <_vfiprintf_r+0x806>
  408d64:	f89d 5047 	ldrb.w	r5, [sp, #71]	; 0x47
  408d68:	f8cd c014 	str.w	ip, [sp, #20]
  408d6c:	9507      	str	r5, [sp, #28]
  408d6e:	9408      	str	r4, [sp, #32]
  408d70:	4684      	mov	ip, r0
  408d72:	f7ff bb25 	b.w	4083c0 <_vfiprintf_r+0x268>
  408d76:	4608      	mov	r0, r1
  408d78:	e6b1      	b.n	408ade <_vfiprintf_r+0x986>
  408d7a:	46a0      	mov	r8, r4
  408d7c:	2500      	movs	r5, #0
  408d7e:	f7ff ba5a 	b.w	408236 <_vfiprintf_r+0xde>
  408d82:	f8dd b020 	ldr.w	fp, [sp, #32]
  408d86:	f898 3001 	ldrb.w	r3, [r8, #1]
  408d8a:	f8db 5000 	ldr.w	r5, [fp]
  408d8e:	f10b 0204 	add.w	r2, fp, #4
  408d92:	2d00      	cmp	r5, #0
  408d94:	9208      	str	r2, [sp, #32]
  408d96:	46a0      	mov	r8, r4
  408d98:	f6bf aa4b 	bge.w	408232 <_vfiprintf_r+0xda>
  408d9c:	f04f 35ff 	mov.w	r5, #4294967295
  408da0:	f7ff ba47 	b.w	408232 <_vfiprintf_r+0xda>
  408da4:	0040c778 	.word	0x0040c778
  408da8:	0040c7a4 	.word	0x0040c7a4

00408dac <__sbprintf>:
  408dac:	e92d 47f0 	stmdb	sp!, {r4, r5, r6, r7, r8, r9, sl, lr}
  408db0:	6e4f      	ldr	r7, [r1, #100]	; 0x64
  408db2:	f5ad 6d8d 	sub.w	sp, sp, #1128	; 0x468
  408db6:	4688      	mov	r8, r1
  408db8:	9719      	str	r7, [sp, #100]	; 0x64
  408dba:	f8d8 701c 	ldr.w	r7, [r8, #28]
  408dbe:	f8b1 a00c 	ldrh.w	sl, [r1, #12]
  408dc2:	f8b1 900e 	ldrh.w	r9, [r1, #14]
  408dc6:	9707      	str	r7, [sp, #28]
  408dc8:	f8d8 7024 	ldr.w	r7, [r8, #36]	; 0x24
  408dcc:	ac1a      	add	r4, sp, #104	; 0x68
  408dce:	f44f 6580 	mov.w	r5, #1024	; 0x400
  408dd2:	f02a 0a02 	bic.w	sl, sl, #2
  408dd6:	2600      	movs	r6, #0
  408dd8:	4669      	mov	r1, sp
  408dda:	9400      	str	r4, [sp, #0]
  408ddc:	9404      	str	r4, [sp, #16]
  408dde:	9502      	str	r5, [sp, #8]
  408de0:	9505      	str	r5, [sp, #20]
  408de2:	f8ad a00c 	strh.w	sl, [sp, #12]
  408de6:	f8ad 900e 	strh.w	r9, [sp, #14]
  408dea:	9709      	str	r7, [sp, #36]	; 0x24
  408dec:	9606      	str	r6, [sp, #24]
  408dee:	4605      	mov	r5, r0
  408df0:	f7ff f9b2 	bl	408158 <_vfiprintf_r>
  408df4:	1e04      	subs	r4, r0, #0
  408df6:	db07      	blt.n	408e08 <__sbprintf+0x5c>
  408df8:	4628      	mov	r0, r5
  408dfa:	4669      	mov	r1, sp
  408dfc:	f001 f908 	bl	40a010 <_fflush_r>
  408e00:	42b0      	cmp	r0, r6
  408e02:	bf18      	it	ne
  408e04:	f04f 34ff 	movne.w	r4, #4294967295
  408e08:	f8bd 300c 	ldrh.w	r3, [sp, #12]
  408e0c:	065b      	lsls	r3, r3, #25
  408e0e:	d505      	bpl.n	408e1c <__sbprintf+0x70>
  408e10:	f8b8 300c 	ldrh.w	r3, [r8, #12]
  408e14:	f043 0340 	orr.w	r3, r3, #64	; 0x40
  408e18:	f8a8 300c 	strh.w	r3, [r8, #12]
  408e1c:	4620      	mov	r0, r4
  408e1e:	f50d 6d8d 	add.w	sp, sp, #1128	; 0x468
  408e22:	e8bd 87f0 	ldmia.w	sp!, {r4, r5, r6, r7, r8, r9, sl, pc}
  408e26:	bf00      	nop

00408e28 <_vsprintf_r>:
  408e28:	b5f0      	push	{r4, r5, r6, r7, lr}
  408e2a:	b09b      	sub	sp, #108	; 0x6c
  408e2c:	460d      	mov	r5, r1
  408e2e:	f06f 4400 	mvn.w	r4, #2147483648	; 0x80000000
  408e32:	f44f 7702 	mov.w	r7, #520	; 0x208
  408e36:	f64f 76ff 	movw	r6, #65535	; 0xffff
  408e3a:	4669      	mov	r1, sp
  408e3c:	9500      	str	r5, [sp, #0]
  408e3e:	9504      	str	r5, [sp, #16]
  408e40:	f8ad 700c 	strh.w	r7, [sp, #12]
  408e44:	9402      	str	r4, [sp, #8]
  408e46:	9405      	str	r4, [sp, #20]
  408e48:	f8ad 600e 	strh.w	r6, [sp, #14]
  408e4c:	f7fd fed8 	bl	406c00 <_svfprintf_r>
  408e50:	9b00      	ldr	r3, [sp, #0]
  408e52:	2200      	movs	r2, #0
  408e54:	701a      	strb	r2, [r3, #0]
  408e56:	b01b      	add	sp, #108	; 0x6c
  408e58:	bdf0      	pop	{r4, r5, r6, r7, pc}
  408e5a:	bf00      	nop

00408e5c <vsprintf>:
  408e5c:	b430      	push	{r4, r5}
  408e5e:	4c04      	ldr	r4, [pc, #16]	; (408e70 <vsprintf+0x14>)
  408e60:	460d      	mov	r5, r1
  408e62:	4613      	mov	r3, r2
  408e64:	4601      	mov	r1, r0
  408e66:	462a      	mov	r2, r5
  408e68:	6820      	ldr	r0, [r4, #0]
  408e6a:	bc30      	pop	{r4, r5}
  408e6c:	f7ff bfdc 	b.w	408e28 <_vsprintf_r>
  408e70:	20000508 	.word	0x20000508

00408e74 <__swsetup_r>:
  408e74:	4b2f      	ldr	r3, [pc, #188]	; (408f34 <__swsetup_r+0xc0>)
  408e76:	b570      	push	{r4, r5, r6, lr}
  408e78:	4606      	mov	r6, r0
  408e7a:	6818      	ldr	r0, [r3, #0]
  408e7c:	460c      	mov	r4, r1
  408e7e:	b110      	cbz	r0, 408e86 <__swsetup_r+0x12>
  408e80:	6b82      	ldr	r2, [r0, #56]	; 0x38
  408e82:	2a00      	cmp	r2, #0
  408e84:	d036      	beq.n	408ef4 <__swsetup_r+0x80>
  408e86:	89a5      	ldrh	r5, [r4, #12]
  408e88:	b2ab      	uxth	r3, r5
  408e8a:	0719      	lsls	r1, r3, #28
  408e8c:	d50c      	bpl.n	408ea8 <__swsetup_r+0x34>
  408e8e:	6922      	ldr	r2, [r4, #16]
  408e90:	b1aa      	cbz	r2, 408ebe <__swsetup_r+0x4a>
  408e92:	f013 0101 	ands.w	r1, r3, #1
  408e96:	d01e      	beq.n	408ed6 <__swsetup_r+0x62>
  408e98:	6963      	ldr	r3, [r4, #20]
  408e9a:	2100      	movs	r1, #0
  408e9c:	425b      	negs	r3, r3
  408e9e:	61a3      	str	r3, [r4, #24]
  408ea0:	60a1      	str	r1, [r4, #8]
  408ea2:	b1f2      	cbz	r2, 408ee2 <__swsetup_r+0x6e>
  408ea4:	2000      	movs	r0, #0
  408ea6:	bd70      	pop	{r4, r5, r6, pc}
  408ea8:	06da      	lsls	r2, r3, #27
  408eaa:	d53a      	bpl.n	408f22 <__swsetup_r+0xae>
  408eac:	075b      	lsls	r3, r3, #29
  408eae:	d424      	bmi.n	408efa <__swsetup_r+0x86>
  408eb0:	6922      	ldr	r2, [r4, #16]
  408eb2:	f045 0308 	orr.w	r3, r5, #8
  408eb6:	81a3      	strh	r3, [r4, #12]
  408eb8:	b29b      	uxth	r3, r3
  408eba:	2a00      	cmp	r2, #0
  408ebc:	d1e9      	bne.n	408e92 <__swsetup_r+0x1e>
  408ebe:	f403 7120 	and.w	r1, r3, #640	; 0x280
  408ec2:	f5b1 7f00 	cmp.w	r1, #512	; 0x200
  408ec6:	d0e4      	beq.n	408e92 <__swsetup_r+0x1e>
  408ec8:	4630      	mov	r0, r6
  408eca:	4621      	mov	r1, r4
  408ecc:	f001 fc8a 	bl	40a7e4 <__smakebuf_r>
  408ed0:	89a3      	ldrh	r3, [r4, #12]
  408ed2:	6922      	ldr	r2, [r4, #16]
  408ed4:	e7dd      	b.n	408e92 <__swsetup_r+0x1e>
  408ed6:	0798      	lsls	r0, r3, #30
  408ed8:	bf58      	it	pl
  408eda:	6961      	ldrpl	r1, [r4, #20]
  408edc:	60a1      	str	r1, [r4, #8]
  408ede:	2a00      	cmp	r2, #0
  408ee0:	d1e0      	bne.n	408ea4 <__swsetup_r+0x30>
  408ee2:	89a3      	ldrh	r3, [r4, #12]
  408ee4:	061a      	lsls	r2, r3, #24
  408ee6:	d5dd      	bpl.n	408ea4 <__swsetup_r+0x30>
  408ee8:	f043 0340 	orr.w	r3, r3, #64	; 0x40
  408eec:	81a3      	strh	r3, [r4, #12]
  408eee:	f04f 30ff 	mov.w	r0, #4294967295
  408ef2:	bd70      	pop	{r4, r5, r6, pc}
  408ef4:	f001 f8a8 	bl	40a048 <__sinit>
  408ef8:	e7c5      	b.n	408e86 <__swsetup_r+0x12>
  408efa:	6b21      	ldr	r1, [r4, #48]	; 0x30
  408efc:	b149      	cbz	r1, 408f12 <__swsetup_r+0x9e>
  408efe:	f104 0340 	add.w	r3, r4, #64	; 0x40
  408f02:	4299      	cmp	r1, r3
  408f04:	d003      	beq.n	408f0e <__swsetup_r+0x9a>
  408f06:	4630      	mov	r0, r6
  408f08:	f001 f9e2 	bl	40a2d0 <_free_r>
  408f0c:	89a5      	ldrh	r5, [r4, #12]
  408f0e:	2300      	movs	r3, #0
  408f10:	6323      	str	r3, [r4, #48]	; 0x30
  408f12:	6922      	ldr	r2, [r4, #16]
  408f14:	f025 0524 	bic.w	r5, r5, #36	; 0x24
  408f18:	2100      	movs	r1, #0
  408f1a:	b2ad      	uxth	r5, r5
  408f1c:	6022      	str	r2, [r4, #0]
  408f1e:	6061      	str	r1, [r4, #4]
  408f20:	e7c7      	b.n	408eb2 <__swsetup_r+0x3e>
  408f22:	f045 0540 	orr.w	r5, r5, #64	; 0x40
  408f26:	2309      	movs	r3, #9
  408f28:	6033      	str	r3, [r6, #0]
  408f2a:	f04f 30ff 	mov.w	r0, #4294967295
  408f2e:	81a5      	strh	r5, [r4, #12]
  408f30:	bd70      	pop	{r4, r5, r6, pc}
  408f32:	bf00      	nop
  408f34:	20000508 	.word	0x20000508

00408f38 <register_fini>:
  408f38:	4b02      	ldr	r3, [pc, #8]	; (408f44 <register_fini+0xc>)
  408f3a:	b113      	cbz	r3, 408f42 <register_fini+0xa>
  408f3c:	4802      	ldr	r0, [pc, #8]	; (408f48 <register_fini+0x10>)
  408f3e:	f000 b805 	b.w	408f4c <atexit>
  408f42:	4770      	bx	lr
  408f44:	00000000 	.word	0x00000000
  408f48:	0040a145 	.word	0x0040a145

00408f4c <atexit>:
  408f4c:	4601      	mov	r1, r0
  408f4e:	2000      	movs	r0, #0
  408f50:	4602      	mov	r2, r0
  408f52:	4603      	mov	r3, r0
  408f54:	f002 b9f8 	b.w	40b348 <__register_exitproc>

00408f58 <quorem>:
  408f58:	e92d 4ff0 	stmdb	sp!, {r4, r5, r6, r7, r8, r9, sl, fp, lr}
  408f5c:	6903      	ldr	r3, [r0, #16]
  408f5e:	690d      	ldr	r5, [r1, #16]
  408f60:	b083      	sub	sp, #12
  408f62:	429d      	cmp	r5, r3
  408f64:	4683      	mov	fp, r0
  408f66:	f300 808c 	bgt.w	409082 <quorem+0x12a>
  408f6a:	3d01      	subs	r5, #1
  408f6c:	f101 0414 	add.w	r4, r1, #20
  408f70:	f100 0a14 	add.w	sl, r0, #20
  408f74:	f854 2025 	ldr.w	r2, [r4, r5, lsl #2]
  408f78:	f85a 3025 	ldr.w	r3, [sl, r5, lsl #2]
  408f7c:	3201      	adds	r2, #1
  408f7e:	fbb3 f8f2 	udiv	r8, r3, r2
  408f82:	00aa      	lsls	r2, r5, #2
  408f84:	4691      	mov	r9, r2
  408f86:	9200      	str	r2, [sp, #0]
  408f88:	4452      	add	r2, sl
  408f8a:	44a1      	add	r9, r4
  408f8c:	9201      	str	r2, [sp, #4]
  408f8e:	f1b8 0f00 	cmp.w	r8, #0
  408f92:	d03e      	beq.n	409012 <quorem+0xba>
  408f94:	2600      	movs	r6, #0
  408f96:	4630      	mov	r0, r6
  408f98:	4622      	mov	r2, r4
  408f9a:	4653      	mov	r3, sl
  408f9c:	468c      	mov	ip, r1
  408f9e:	f852 7b04 	ldr.w	r7, [r2], #4
  408fa2:	6819      	ldr	r1, [r3, #0]
  408fa4:	fa1f fe87 	uxth.w	lr, r7
  408fa8:	0c3f      	lsrs	r7, r7, #16
  408faa:	fb0e 6e08 	mla	lr, lr, r8, r6
  408fae:	fb07 f608 	mul.w	r6, r7, r8
  408fb2:	eb06 461e 	add.w	r6, r6, lr, lsr #16
  408fb6:	fa1f fe8e 	uxth.w	lr, lr
  408fba:	ebce 0e00 	rsb	lr, lr, r0
  408fbe:	b28f      	uxth	r7, r1
  408fc0:	b2b0      	uxth	r0, r6
  408fc2:	4477      	add	r7, lr
  408fc4:	ebc0 4011 	rsb	r0, r0, r1, lsr #16
  408fc8:	eb00 4027 	add.w	r0, r0, r7, asr #16
  408fcc:	b2bf      	uxth	r7, r7
  408fce:	ea47 4700 	orr.w	r7, r7, r0, lsl #16
  408fd2:	4591      	cmp	r9, r2
  408fd4:	f843 7b04 	str.w	r7, [r3], #4
  408fd8:	ea4f 4020 	mov.w	r0, r0, asr #16
  408fdc:	ea4f 4616 	mov.w	r6, r6, lsr #16
  408fe0:	d2dd      	bcs.n	408f9e <quorem+0x46>
  408fe2:	9a00      	ldr	r2, [sp, #0]
  408fe4:	4661      	mov	r1, ip
  408fe6:	f85a 3002 	ldr.w	r3, [sl, r2]
  408fea:	b993      	cbnz	r3, 409012 <quorem+0xba>
  408fec:	9a01      	ldr	r2, [sp, #4]
  408fee:	1f13      	subs	r3, r2, #4
  408ff0:	459a      	cmp	sl, r3
  408ff2:	d20c      	bcs.n	40900e <quorem+0xb6>
  408ff4:	f852 3c04 	ldr.w	r3, [r2, #-4]
  408ff8:	b94b      	cbnz	r3, 40900e <quorem+0xb6>
  408ffa:	f1a2 0308 	sub.w	r3, r2, #8
  408ffe:	e002      	b.n	409006 <quorem+0xae>
  409000:	681a      	ldr	r2, [r3, #0]
  409002:	3b04      	subs	r3, #4
  409004:	b91a      	cbnz	r2, 40900e <quorem+0xb6>
  409006:	459a      	cmp	sl, r3
  409008:	f105 35ff 	add.w	r5, r5, #4294967295
  40900c:	d3f8      	bcc.n	409000 <quorem+0xa8>
  40900e:	f8cb 5010 	str.w	r5, [fp, #16]
  409012:	4658      	mov	r0, fp
  409014:	f001 ff22 	bl	40ae5c <__mcmp>
  409018:	2800      	cmp	r0, #0
  40901a:	db2e      	blt.n	40907a <quorem+0x122>
  40901c:	f108 0801 	add.w	r8, r8, #1
  409020:	4653      	mov	r3, sl
  409022:	2200      	movs	r2, #0
  409024:	f854 6b04 	ldr.w	r6, [r4], #4
  409028:	6818      	ldr	r0, [r3, #0]
  40902a:	b2b1      	uxth	r1, r6
  40902c:	1a51      	subs	r1, r2, r1
  40902e:	b287      	uxth	r7, r0
  409030:	0c36      	lsrs	r6, r6, #16
  409032:	4439      	add	r1, r7
  409034:	ebc6 4010 	rsb	r0, r6, r0, lsr #16
  409038:	eb00 4221 	add.w	r2, r0, r1, asr #16
  40903c:	b289      	uxth	r1, r1
  40903e:	ea41 4102 	orr.w	r1, r1, r2, lsl #16
  409042:	45a1      	cmp	r9, r4
  409044:	f843 1b04 	str.w	r1, [r3], #4
  409048:	ea4f 4222 	mov.w	r2, r2, asr #16
  40904c:	d2ea      	bcs.n	409024 <quorem+0xcc>
  40904e:	f85a 2025 	ldr.w	r2, [sl, r5, lsl #2]
  409052:	eb0a 0385 	add.w	r3, sl, r5, lsl #2
  409056:	b982      	cbnz	r2, 40907a <quorem+0x122>
  409058:	1f1a      	subs	r2, r3, #4
  40905a:	4592      	cmp	sl, r2
  40905c:	d20b      	bcs.n	409076 <quorem+0x11e>
  40905e:	f853 2c04 	ldr.w	r2, [r3, #-4]
  409062:	b942      	cbnz	r2, 409076 <quorem+0x11e>
  409064:	3b08      	subs	r3, #8
  409066:	e002      	b.n	40906e <quorem+0x116>
  409068:	681a      	ldr	r2, [r3, #0]
  40906a:	3b04      	subs	r3, #4
  40906c:	b91a      	cbnz	r2, 409076 <quorem+0x11e>
  40906e:	459a      	cmp	sl, r3
  409070:	f105 35ff 	add.w	r5, r5, #4294967295
  409074:	d3f8      	bcc.n	409068 <quorem+0x110>
  409076:	f8cb 5010 	str.w	r5, [fp, #16]
  40907a:	4640      	mov	r0, r8
  40907c:	b003      	add	sp, #12
  40907e:	e8bd 8ff0 	ldmia.w	sp!, {r4, r5, r6, r7, r8, r9, sl, fp, pc}
  409082:	2000      	movs	r0, #0
  409084:	b003      	add	sp, #12
  409086:	e8bd 8ff0 	ldmia.w	sp!, {r4, r5, r6, r7, r8, r9, sl, fp, pc}
  40908a:	bf00      	nop
  40908c:	0000      	movs	r0, r0
	...

00409090 <_dtoa_r>:
  409090:	e92d 4ff0 	stmdb	sp!, {r4, r5, r6, r7, r8, r9, sl, fp, lr}
  409094:	6c01      	ldr	r1, [r0, #64]	; 0x40
  409096:	b09b      	sub	sp, #108	; 0x6c
  409098:	4604      	mov	r4, r0
  40909a:	4692      	mov	sl, r2
  40909c:	469b      	mov	fp, r3
  40909e:	9d27      	ldr	r5, [sp, #156]	; 0x9c
  4090a0:	b141      	cbz	r1, 4090b4 <_dtoa_r+0x24>
  4090a2:	6c43      	ldr	r3, [r0, #68]	; 0x44
  4090a4:	2201      	movs	r2, #1
  4090a6:	409a      	lsls	r2, r3
  4090a8:	604b      	str	r3, [r1, #4]
  4090aa:	608a      	str	r2, [r1, #8]
  4090ac:	f001 fce0 	bl	40aa70 <_Bfree>
  4090b0:	2300      	movs	r3, #0
  4090b2:	6423      	str	r3, [r4, #64]	; 0x40
  4090b4:	f1bb 0f00 	cmp.w	fp, #0
  4090b8:	46d9      	mov	r9, fp
  4090ba:	db33      	blt.n	409124 <_dtoa_r+0x94>
  4090bc:	2300      	movs	r3, #0
  4090be:	602b      	str	r3, [r5, #0]
  4090c0:	4ba5      	ldr	r3, [pc, #660]	; (409358 <_dtoa_r+0x2c8>)
  4090c2:	461a      	mov	r2, r3
  4090c4:	ea09 0303 	and.w	r3, r9, r3
  4090c8:	4293      	cmp	r3, r2
  4090ca:	d014      	beq.n	4090f6 <_dtoa_r+0x66>
  4090cc:	4650      	mov	r0, sl
  4090ce:	4659      	mov	r1, fp
  4090d0:	2200      	movs	r2, #0
  4090d2:	2300      	movs	r3, #0
  4090d4:	f7fc fd52 	bl	405b7c <__aeabi_dcmpeq>
  4090d8:	4680      	mov	r8, r0
  4090da:	b348      	cbz	r0, 409130 <_dtoa_r+0xa0>
  4090dc:	9e26      	ldr	r6, [sp, #152]	; 0x98
  4090de:	9d28      	ldr	r5, [sp, #160]	; 0xa0
  4090e0:	2301      	movs	r3, #1
  4090e2:	6033      	str	r3, [r6, #0]
  4090e4:	2d00      	cmp	r5, #0
  4090e6:	f000 80ca 	beq.w	40927e <_dtoa_r+0x1ee>
  4090ea:	489c      	ldr	r0, [pc, #624]	; (40935c <_dtoa_r+0x2cc>)
  4090ec:	6028      	str	r0, [r5, #0]
  4090ee:	3801      	subs	r0, #1
  4090f0:	b01b      	add	sp, #108	; 0x6c
  4090f2:	e8bd 8ff0 	ldmia.w	sp!, {r4, r5, r6, r7, r8, r9, sl, fp, pc}
  4090f6:	9d26      	ldr	r5, [sp, #152]	; 0x98
  4090f8:	f242 730f 	movw	r3, #9999	; 0x270f
  4090fc:	602b      	str	r3, [r5, #0]
  4090fe:	f1ba 0f00 	cmp.w	sl, #0
  409102:	f000 80a5 	beq.w	409250 <_dtoa_r+0x1c0>
  409106:	4896      	ldr	r0, [pc, #600]	; (409360 <_dtoa_r+0x2d0>)
  409108:	9e28      	ldr	r6, [sp, #160]	; 0xa0
  40910a:	2e00      	cmp	r6, #0
  40910c:	d0f0      	beq.n	4090f0 <_dtoa_r+0x60>
  40910e:	78c3      	ldrb	r3, [r0, #3]
  409110:	2b00      	cmp	r3, #0
  409112:	f000 80b6 	beq.w	409282 <_dtoa_r+0x1f2>
  409116:	f100 0308 	add.w	r3, r0, #8
  40911a:	9d28      	ldr	r5, [sp, #160]	; 0xa0
  40911c:	602b      	str	r3, [r5, #0]
  40911e:	b01b      	add	sp, #108	; 0x6c
  409120:	e8bd 8ff0 	ldmia.w	sp!, {r4, r5, r6, r7, r8, r9, sl, fp, pc}
  409124:	2301      	movs	r3, #1
  409126:	f02b 4900 	bic.w	r9, fp, #2147483648	; 0x80000000
  40912a:	602b      	str	r3, [r5, #0]
  40912c:	46cb      	mov	fp, r9
  40912e:	e7c7      	b.n	4090c0 <_dtoa_r+0x30>
  409130:	aa19      	add	r2, sp, #100	; 0x64
  409132:	ab18      	add	r3, sp, #96	; 0x60
  409134:	e88d 000c 	stmia.w	sp, {r2, r3}
  409138:	4620      	mov	r0, r4
  40913a:	4652      	mov	r2, sl
  40913c:	465b      	mov	r3, fp
  40913e:	f001 ff1d 	bl	40af7c <__d2b>
  409142:	ea5f 5519 	movs.w	r5, r9, lsr #20
  409146:	900a      	str	r0, [sp, #40]	; 0x28
  409148:	f040 808b 	bne.w	409262 <_dtoa_r+0x1d2>
  40914c:	9f18      	ldr	r7, [sp, #96]	; 0x60
  40914e:	9d19      	ldr	r5, [sp, #100]	; 0x64
  409150:	f46f 6382 	mvn.w	r3, #1040	; 0x410
  409154:	443d      	add	r5, r7
  409156:	429d      	cmp	r5, r3
  409158:	f2c0 8295 	blt.w	409686 <_dtoa_r+0x5f6>
  40915c:	331f      	adds	r3, #31
  40915e:	f205 4212 	addw	r2, r5, #1042	; 0x412
  409162:	1b5b      	subs	r3, r3, r5
  409164:	fa09 f303 	lsl.w	r3, r9, r3
  409168:	fa2a f202 	lsr.w	r2, sl, r2
  40916c:	ea43 0002 	orr.w	r0, r3, r2
  409170:	f7fc fa26 	bl	4055c0 <__aeabi_ui2d>
  409174:	2601      	movs	r6, #1
  409176:	3d01      	subs	r5, #1
  409178:	46b8      	mov	r8, r7
  40917a:	f1a1 71f8 	sub.w	r1, r1, #32505856	; 0x1f00000
  40917e:	9616      	str	r6, [sp, #88]	; 0x58
  409180:	2200      	movs	r2, #0
  409182:	4b78      	ldr	r3, [pc, #480]	; (409364 <_dtoa_r+0x2d4>)
  409184:	f7fc f8de 	bl	405344 <__aeabi_dsub>
  409188:	a36d      	add	r3, pc, #436	; (adr r3, 409340 <_dtoa_r+0x2b0>)
  40918a:	e9d3 2300 	ldrd	r2, r3, [r3]
  40918e:	f7fc fa8d 	bl	4056ac <__aeabi_dmul>
  409192:	a36d      	add	r3, pc, #436	; (adr r3, 409348 <_dtoa_r+0x2b8>)
  409194:	e9d3 2300 	ldrd	r2, r3, [r3]
  409198:	f7fc f8d6 	bl	405348 <__adddf3>
  40919c:	4606      	mov	r6, r0
  40919e:	4628      	mov	r0, r5
  4091a0:	460f      	mov	r7, r1
  4091a2:	f7fc fa1d 	bl	4055e0 <__aeabi_i2d>
  4091a6:	a36a      	add	r3, pc, #424	; (adr r3, 409350 <_dtoa_r+0x2c0>)
  4091a8:	e9d3 2300 	ldrd	r2, r3, [r3]
  4091ac:	f7fc fa7e 	bl	4056ac <__aeabi_dmul>
  4091b0:	4602      	mov	r2, r0
  4091b2:	460b      	mov	r3, r1
  4091b4:	4630      	mov	r0, r6
  4091b6:	4639      	mov	r1, r7
  4091b8:	f7fc f8c6 	bl	405348 <__adddf3>
  4091bc:	4606      	mov	r6, r0
  4091be:	460f      	mov	r7, r1
  4091c0:	f7fc fd0e 	bl	405be0 <__aeabi_d2iz>
  4091c4:	4639      	mov	r1, r7
  4091c6:	9007      	str	r0, [sp, #28]
  4091c8:	2200      	movs	r2, #0
  4091ca:	4630      	mov	r0, r6
  4091cc:	2300      	movs	r3, #0
  4091ce:	f7fc fcdf 	bl	405b90 <__aeabi_dcmplt>
  4091d2:	2800      	cmp	r0, #0
  4091d4:	f040 8229 	bne.w	40962a <_dtoa_r+0x59a>
  4091d8:	9e07      	ldr	r6, [sp, #28]
  4091da:	2e16      	cmp	r6, #22
  4091dc:	f200 8222 	bhi.w	409624 <_dtoa_r+0x594>
  4091e0:	4961      	ldr	r1, [pc, #388]	; (409368 <_dtoa_r+0x2d8>)
  4091e2:	4652      	mov	r2, sl
  4091e4:	eb01 01c6 	add.w	r1, r1, r6, lsl #3
  4091e8:	465b      	mov	r3, fp
  4091ea:	e9d1 0100 	ldrd	r0, r1, [r1]
  4091ee:	f7fc fced 	bl	405bcc <__aeabi_dcmpgt>
  4091f2:	2800      	cmp	r0, #0
  4091f4:	f000 824c 	beq.w	409690 <_dtoa_r+0x600>
  4091f8:	3e01      	subs	r6, #1
  4091fa:	9607      	str	r6, [sp, #28]
  4091fc:	2600      	movs	r6, #0
  4091fe:	960e      	str	r6, [sp, #56]	; 0x38
  409200:	ebc5 0508 	rsb	r5, r5, r8
  409204:	3d01      	subs	r5, #1
  409206:	9506      	str	r5, [sp, #24]
  409208:	f100 8226 	bmi.w	409658 <_dtoa_r+0x5c8>
  40920c:	2500      	movs	r5, #0
  40920e:	9508      	str	r5, [sp, #32]
  409210:	9e07      	ldr	r6, [sp, #28]
  409212:	2e00      	cmp	r6, #0
  409214:	f2c0 8217 	blt.w	409646 <_dtoa_r+0x5b6>
  409218:	9d06      	ldr	r5, [sp, #24]
  40921a:	960d      	str	r6, [sp, #52]	; 0x34
  40921c:	4435      	add	r5, r6
  40921e:	2600      	movs	r6, #0
  409220:	9506      	str	r5, [sp, #24]
  409222:	960c      	str	r6, [sp, #48]	; 0x30
  409224:	9d24      	ldr	r5, [sp, #144]	; 0x90
  409226:	2d09      	cmp	r5, #9
  409228:	d82d      	bhi.n	409286 <_dtoa_r+0x1f6>
  40922a:	2d05      	cmp	r5, #5
  40922c:	bfc4      	itt	gt
  40922e:	3d04      	subgt	r5, #4
  409230:	9524      	strgt	r5, [sp, #144]	; 0x90
  409232:	9e24      	ldr	r6, [sp, #144]	; 0x90
  409234:	bfc8      	it	gt
  409236:	2500      	movgt	r5, #0
  409238:	f1a6 0302 	sub.w	r3, r6, #2
  40923c:	bfd8      	it	le
  40923e:	2501      	movle	r5, #1
  409240:	2b03      	cmp	r3, #3
  409242:	d822      	bhi.n	40928a <_dtoa_r+0x1fa>
  409244:	e8df f013 	tbh	[pc, r3, lsl #1]
  409248:	029e03b7 	.word	0x029e03b7
  40924c:	049a03c0 	.word	0x049a03c0
  409250:	4a46      	ldr	r2, [pc, #280]	; (40936c <_dtoa_r+0x2dc>)
  409252:	4b43      	ldr	r3, [pc, #268]	; (409360 <_dtoa_r+0x2d0>)
  409254:	f3c9 0013 	ubfx	r0, r9, #0, #20
  409258:	2800      	cmp	r0, #0
  40925a:	bf0c      	ite	eq
  40925c:	4610      	moveq	r0, r2
  40925e:	4618      	movne	r0, r3
  409260:	e752      	b.n	409108 <_dtoa_r+0x78>
  409262:	f3cb 0313 	ubfx	r3, fp, #0, #20
  409266:	f043 517f 	orr.w	r1, r3, #1069547520	; 0x3fc00000
  40926a:	f8cd 8058 	str.w	r8, [sp, #88]	; 0x58
  40926e:	4650      	mov	r0, sl
  409270:	f2a5 35ff 	subw	r5, r5, #1023	; 0x3ff
  409274:	f441 1140 	orr.w	r1, r1, #3145728	; 0x300000
  409278:	f8dd 8060 	ldr.w	r8, [sp, #96]	; 0x60
  40927c:	e780      	b.n	409180 <_dtoa_r+0xf0>
  40927e:	483c      	ldr	r0, [pc, #240]	; (409370 <_dtoa_r+0x2e0>)
  409280:	e736      	b.n	4090f0 <_dtoa_r+0x60>
  409282:	1cc3      	adds	r3, r0, #3
  409284:	e749      	b.n	40911a <_dtoa_r+0x8a>
  409286:	2500      	movs	r5, #0
  409288:	9524      	str	r5, [sp, #144]	; 0x90
  40928a:	2500      	movs	r5, #0
  40928c:	6465      	str	r5, [r4, #68]	; 0x44
  40928e:	4629      	mov	r1, r5
  409290:	4620      	mov	r0, r4
  409292:	f001 fbc7 	bl	40aa24 <_Balloc>
  409296:	f04f 39ff 	mov.w	r9, #4294967295
  40929a:	2601      	movs	r6, #1
  40929c:	9009      	str	r0, [sp, #36]	; 0x24
  40929e:	9525      	str	r5, [sp, #148]	; 0x94
  4092a0:	6420      	str	r0, [r4, #64]	; 0x40
  4092a2:	f8cd 903c 	str.w	r9, [sp, #60]	; 0x3c
  4092a6:	960b      	str	r6, [sp, #44]	; 0x2c
  4092a8:	9b19      	ldr	r3, [sp, #100]	; 0x64
  4092aa:	2b00      	cmp	r3, #0
  4092ac:	f2c0 80d2 	blt.w	409454 <_dtoa_r+0x3c4>
  4092b0:	9e07      	ldr	r6, [sp, #28]
  4092b2:	2e0e      	cmp	r6, #14
  4092b4:	f300 80ce 	bgt.w	409454 <_dtoa_r+0x3c4>
  4092b8:	4b2b      	ldr	r3, [pc, #172]	; (409368 <_dtoa_r+0x2d8>)
  4092ba:	eb03 03c6 	add.w	r3, r3, r6, lsl #3
  4092be:	e9d3 0100 	ldrd	r0, r1, [r3]
  4092c2:	e9cd 0104 	strd	r0, r1, [sp, #16]
  4092c6:	9925      	ldr	r1, [sp, #148]	; 0x94
  4092c8:	2900      	cmp	r1, #0
  4092ca:	f2c0 8380 	blt.w	4099ce <_dtoa_r+0x93e>
  4092ce:	e9dd 2304 	ldrd	r2, r3, [sp, #16]
  4092d2:	4659      	mov	r1, fp
  4092d4:	4650      	mov	r0, sl
  4092d6:	f7fc fb13 	bl	405900 <__aeabi_ddiv>
  4092da:	f7fc fc81 	bl	405be0 <__aeabi_d2iz>
  4092de:	4605      	mov	r5, r0
  4092e0:	f7fc f97e 	bl	4055e0 <__aeabi_i2d>
  4092e4:	e9dd 2304 	ldrd	r2, r3, [sp, #16]
  4092e8:	f7fc f9e0 	bl	4056ac <__aeabi_dmul>
  4092ec:	4602      	mov	r2, r0
  4092ee:	460b      	mov	r3, r1
  4092f0:	4650      	mov	r0, sl
  4092f2:	4659      	mov	r1, fp
  4092f4:	f7fc f826 	bl	405344 <__aeabi_dsub>
  4092f8:	9a09      	ldr	r2, [sp, #36]	; 0x24
  4092fa:	f105 0330 	add.w	r3, r5, #48	; 0x30
  4092fe:	f1b9 0f01 	cmp.w	r9, #1
  409302:	4606      	mov	r6, r0
  409304:	460f      	mov	r7, r1
  409306:	7013      	strb	r3, [r2, #0]
  409308:	f102 0b01 	add.w	fp, r2, #1
  40930c:	d064      	beq.n	4093d8 <_dtoa_r+0x348>
  40930e:	2200      	movs	r2, #0
  409310:	4b18      	ldr	r3, [pc, #96]	; (409374 <_dtoa_r+0x2e4>)
  409312:	f7fc f9cb 	bl	4056ac <__aeabi_dmul>
  409316:	2200      	movs	r2, #0
  409318:	2300      	movs	r3, #0
  40931a:	4606      	mov	r6, r0
  40931c:	460f      	mov	r7, r1
  40931e:	f7fc fc2d 	bl	405b7c <__aeabi_dcmpeq>
  409322:	2800      	cmp	r0, #0
  409324:	f040 8081 	bne.w	40942a <_dtoa_r+0x39a>
  409328:	f8dd 8024 	ldr.w	r8, [sp, #36]	; 0x24
  40932c:	9d09      	ldr	r5, [sp, #36]	; 0x24
  40932e:	44c8      	add	r8, r9
  409330:	e9dd ab04 	ldrd	sl, fp, [sp, #16]
  409334:	f105 0902 	add.w	r9, r5, #2
  409338:	9403      	str	r4, [sp, #12]
  40933a:	e028      	b.n	40938e <_dtoa_r+0x2fe>
  40933c:	f3af 8000 	nop.w
  409340:	636f4361 	.word	0x636f4361
  409344:	3fd287a7 	.word	0x3fd287a7
  409348:	8b60c8b3 	.word	0x8b60c8b3
  40934c:	3fc68a28 	.word	0x3fc68a28
  409350:	509f79fb 	.word	0x509f79fb
  409354:	3fd34413 	.word	0x3fd34413
  409358:	7ff00000 	.word	0x7ff00000
  40935c:	0040c781 	.word	0x0040c781
  409360:	0040c7c0 	.word	0x0040c7c0
  409364:	3ff80000 	.word	0x3ff80000
  409368:	0040c7d0 	.word	0x0040c7d0
  40936c:	0040c7b4 	.word	0x0040c7b4
  409370:	0040c780 	.word	0x0040c780
  409374:	40240000 	.word	0x40240000
  409378:	f7fc f998 	bl	4056ac <__aeabi_dmul>
  40937c:	2200      	movs	r2, #0
  40937e:	2300      	movs	r3, #0
  409380:	4606      	mov	r6, r0
  409382:	460f      	mov	r7, r1
  409384:	f7fc fbfa 	bl	405b7c <__aeabi_dcmpeq>
  409388:	2800      	cmp	r0, #0
  40938a:	f040 83c1 	bne.w	409b10 <_dtoa_r+0xa80>
  40938e:	4652      	mov	r2, sl
  409390:	465b      	mov	r3, fp
  409392:	4630      	mov	r0, r6
  409394:	4639      	mov	r1, r7
  409396:	f7fc fab3 	bl	405900 <__aeabi_ddiv>
  40939a:	f7fc fc21 	bl	405be0 <__aeabi_d2iz>
  40939e:	4605      	mov	r5, r0
  4093a0:	f7fc f91e 	bl	4055e0 <__aeabi_i2d>
  4093a4:	4652      	mov	r2, sl
  4093a6:	465b      	mov	r3, fp
  4093a8:	f7fc f980 	bl	4056ac <__aeabi_dmul>
  4093ac:	4602      	mov	r2, r0
  4093ae:	460b      	mov	r3, r1
  4093b0:	4630      	mov	r0, r6
  4093b2:	4639      	mov	r1, r7
  4093b4:	f7fb ffc6 	bl	405344 <__aeabi_dsub>
  4093b8:	f105 0e30 	add.w	lr, r5, #48	; 0x30
  4093bc:	45c1      	cmp	r9, r8
  4093be:	f809 ec01 	strb.w	lr, [r9, #-1]
  4093c2:	464c      	mov	r4, r9
  4093c4:	4606      	mov	r6, r0
  4093c6:	460f      	mov	r7, r1
  4093c8:	f04f 0200 	mov.w	r2, #0
  4093cc:	4ba7      	ldr	r3, [pc, #668]	; (40966c <_dtoa_r+0x5dc>)
  4093ce:	f109 0901 	add.w	r9, r9, #1
  4093d2:	d1d1      	bne.n	409378 <_dtoa_r+0x2e8>
  4093d4:	46a3      	mov	fp, r4
  4093d6:	9c03      	ldr	r4, [sp, #12]
  4093d8:	4632      	mov	r2, r6
  4093da:	463b      	mov	r3, r7
  4093dc:	4630      	mov	r0, r6
  4093de:	4639      	mov	r1, r7
  4093e0:	f7fb ffb2 	bl	405348 <__adddf3>
  4093e4:	4606      	mov	r6, r0
  4093e6:	460f      	mov	r7, r1
  4093e8:	4632      	mov	r2, r6
  4093ea:	e9dd 0104 	ldrd	r0, r1, [sp, #16]
  4093ee:	463b      	mov	r3, r7
  4093f0:	f7fc fbce 	bl	405b90 <__aeabi_dcmplt>
  4093f4:	b940      	cbnz	r0, 409408 <_dtoa_r+0x378>
  4093f6:	e9dd 0104 	ldrd	r0, r1, [sp, #16]
  4093fa:	4632      	mov	r2, r6
  4093fc:	463b      	mov	r3, r7
  4093fe:	f7fc fbbd 	bl	405b7c <__aeabi_dcmpeq>
  409402:	b190      	cbz	r0, 40942a <_dtoa_r+0x39a>
  409404:	07eb      	lsls	r3, r5, #31
  409406:	d510      	bpl.n	40942a <_dtoa_r+0x39a>
  409408:	f81b 5c01 	ldrb.w	r5, [fp, #-1]
  40940c:	9a09      	ldr	r2, [sp, #36]	; 0x24
  40940e:	e005      	b.n	40941c <_dtoa_r+0x38c>
  409410:	429a      	cmp	r2, r3
  409412:	f000 8429 	beq.w	409c68 <_dtoa_r+0xbd8>
  409416:	f813 5c01 	ldrb.w	r5, [r3, #-1]
  40941a:	469b      	mov	fp, r3
  40941c:	2d39      	cmp	r5, #57	; 0x39
  40941e:	f10b 33ff 	add.w	r3, fp, #4294967295
  409422:	d0f5      	beq.n	409410 <_dtoa_r+0x380>
  409424:	1c6a      	adds	r2, r5, #1
  409426:	b2d2      	uxtb	r2, r2
  409428:	701a      	strb	r2, [r3, #0]
  40942a:	4620      	mov	r0, r4
  40942c:	990a      	ldr	r1, [sp, #40]	; 0x28
  40942e:	f001 fb1f 	bl	40aa70 <_Bfree>
  409432:	9e07      	ldr	r6, [sp, #28]
  409434:	9d26      	ldr	r5, [sp, #152]	; 0x98
  409436:	1c73      	adds	r3, r6, #1
  409438:	9e28      	ldr	r6, [sp, #160]	; 0xa0
  40943a:	2200      	movs	r2, #0
  40943c:	f88b 2000 	strb.w	r2, [fp]
  409440:	602b      	str	r3, [r5, #0]
  409442:	2e00      	cmp	r6, #0
  409444:	f000 8325 	beq.w	409a92 <_dtoa_r+0xa02>
  409448:	9809      	ldr	r0, [sp, #36]	; 0x24
  40944a:	f8c6 b000 	str.w	fp, [r6]
  40944e:	b01b      	add	sp, #108	; 0x6c
  409450:	e8bd 8ff0 	ldmia.w	sp!, {r4, r5, r6, r7, r8, r9, sl, fp, pc}
  409454:	9d0b      	ldr	r5, [sp, #44]	; 0x2c
  409456:	2d00      	cmp	r5, #0
  409458:	f000 8103 	beq.w	409662 <_dtoa_r+0x5d2>
  40945c:	9e24      	ldr	r6, [sp, #144]	; 0x90
  40945e:	2e01      	cmp	r6, #1
  409460:	f340 82dc 	ble.w	409a1c <_dtoa_r+0x98c>
  409464:	9e0c      	ldr	r6, [sp, #48]	; 0x30
  409466:	f109 37ff 	add.w	r7, r9, #4294967295
  40946a:	42be      	cmp	r6, r7
  40946c:	f2c0 8389 	blt.w	409b82 <_dtoa_r+0xaf2>
  409470:	1bf7      	subs	r7, r6, r7
  409472:	f1b9 0f00 	cmp.w	r9, #0
  409476:	f2c0 8487 	blt.w	409d88 <_dtoa_r+0xcf8>
  40947a:	9d08      	ldr	r5, [sp, #32]
  40947c:	464b      	mov	r3, r9
  40947e:	9e08      	ldr	r6, [sp, #32]
  409480:	4620      	mov	r0, r4
  409482:	441e      	add	r6, r3
  409484:	9608      	str	r6, [sp, #32]
  409486:	9e06      	ldr	r6, [sp, #24]
  409488:	2101      	movs	r1, #1
  40948a:	441e      	add	r6, r3
  40948c:	9606      	str	r6, [sp, #24]
  40948e:	f001 fb91 	bl	40abb4 <__i2b>
  409492:	4606      	mov	r6, r0
  409494:	b165      	cbz	r5, 4094b0 <_dtoa_r+0x420>
  409496:	9806      	ldr	r0, [sp, #24]
  409498:	2800      	cmp	r0, #0
  40949a:	dd09      	ble.n	4094b0 <_dtoa_r+0x420>
  40949c:	4603      	mov	r3, r0
  40949e:	9908      	ldr	r1, [sp, #32]
  4094a0:	42ab      	cmp	r3, r5
  4094a2:	bfa8      	it	ge
  4094a4:	462b      	movge	r3, r5
  4094a6:	1ac9      	subs	r1, r1, r3
  4094a8:	1ac0      	subs	r0, r0, r3
  4094aa:	9108      	str	r1, [sp, #32]
  4094ac:	1aed      	subs	r5, r5, r3
  4094ae:	9006      	str	r0, [sp, #24]
  4094b0:	9a0c      	ldr	r2, [sp, #48]	; 0x30
  4094b2:	2a00      	cmp	r2, #0
  4094b4:	dd1d      	ble.n	4094f2 <_dtoa_r+0x462>
  4094b6:	9b0b      	ldr	r3, [sp, #44]	; 0x2c
  4094b8:	2b00      	cmp	r3, #0
  4094ba:	f000 8358 	beq.w	409b6e <_dtoa_r+0xade>
  4094be:	2f00      	cmp	r7, #0
  4094c0:	dd11      	ble.n	4094e6 <_dtoa_r+0x456>
  4094c2:	4631      	mov	r1, r6
  4094c4:	463a      	mov	r2, r7
  4094c6:	4620      	mov	r0, r4
  4094c8:	f001 fc1c 	bl	40ad04 <__pow5mult>
  4094cc:	4606      	mov	r6, r0
  4094ce:	4631      	mov	r1, r6
  4094d0:	9a0a      	ldr	r2, [sp, #40]	; 0x28
  4094d2:	4620      	mov	r0, r4
  4094d4:	f001 fb78 	bl	40abc8 <__multiply>
  4094d8:	990a      	ldr	r1, [sp, #40]	; 0x28
  4094da:	4680      	mov	r8, r0
  4094dc:	4620      	mov	r0, r4
  4094de:	f001 fac7 	bl	40aa70 <_Bfree>
  4094e2:	f8cd 8028 	str.w	r8, [sp, #40]	; 0x28
  4094e6:	f8dd e030 	ldr.w	lr, [sp, #48]	; 0x30
  4094ea:	ebbe 0207 	subs.w	r2, lr, r7
  4094ee:	f040 828f 	bne.w	409a10 <_dtoa_r+0x980>
  4094f2:	4620      	mov	r0, r4
  4094f4:	2101      	movs	r1, #1
  4094f6:	f001 fb5d 	bl	40abb4 <__i2b>
  4094fa:	4680      	mov	r8, r0
  4094fc:	980d      	ldr	r0, [sp, #52]	; 0x34
  4094fe:	2800      	cmp	r0, #0
  409500:	dd05      	ble.n	40950e <_dtoa_r+0x47e>
  409502:	4641      	mov	r1, r8
  409504:	4620      	mov	r0, r4
  409506:	9a0d      	ldr	r2, [sp, #52]	; 0x34
  409508:	f001 fbfc 	bl	40ad04 <__pow5mult>
  40950c:	4680      	mov	r8, r0
  40950e:	9924      	ldr	r1, [sp, #144]	; 0x90
  409510:	2901      	cmp	r1, #1
  409512:	f340 82c1 	ble.w	409a98 <_dtoa_r+0xa08>
  409516:	2700      	movs	r7, #0
  409518:	980d      	ldr	r0, [sp, #52]	; 0x34
  40951a:	2800      	cmp	r0, #0
  40951c:	f040 82af 	bne.w	409a7e <_dtoa_r+0x9ee>
  409520:	2001      	movs	r0, #1
  409522:	9b06      	ldr	r3, [sp, #24]
  409524:	4403      	add	r3, r0
  409526:	f013 031f 	ands.w	r3, r3, #31
  40952a:	f000 80a1 	beq.w	409670 <_dtoa_r+0x5e0>
  40952e:	f1c3 0220 	rsb	r2, r3, #32
  409532:	2a04      	cmp	r2, #4
  409534:	f340 84b7 	ble.w	409ea6 <_dtoa_r+0xe16>
  409538:	9908      	ldr	r1, [sp, #32]
  40953a:	9a06      	ldr	r2, [sp, #24]
  40953c:	f1c3 031c 	rsb	r3, r3, #28
  409540:	4419      	add	r1, r3
  409542:	441a      	add	r2, r3
  409544:	9108      	str	r1, [sp, #32]
  409546:	441d      	add	r5, r3
  409548:	9206      	str	r2, [sp, #24]
  40954a:	9908      	ldr	r1, [sp, #32]
  40954c:	2900      	cmp	r1, #0
  40954e:	dd05      	ble.n	40955c <_dtoa_r+0x4cc>
  409550:	990a      	ldr	r1, [sp, #40]	; 0x28
  409552:	9a08      	ldr	r2, [sp, #32]
  409554:	4620      	mov	r0, r4
  409556:	f001 fc23 	bl	40ada0 <__lshift>
  40955a:	900a      	str	r0, [sp, #40]	; 0x28
  40955c:	9a06      	ldr	r2, [sp, #24]
  40955e:	2a00      	cmp	r2, #0
  409560:	dd04      	ble.n	40956c <_dtoa_r+0x4dc>
  409562:	4641      	mov	r1, r8
  409564:	4620      	mov	r0, r4
  409566:	f001 fc1b 	bl	40ada0 <__lshift>
  40956a:	4680      	mov	r8, r0
  40956c:	9b0e      	ldr	r3, [sp, #56]	; 0x38
  40956e:	2b00      	cmp	r3, #0
  409570:	f040 826a 	bne.w	409a48 <_dtoa_r+0x9b8>
  409574:	f1b9 0f00 	cmp.w	r9, #0
  409578:	f340 82a6 	ble.w	409ac8 <_dtoa_r+0xa38>
  40957c:	980b      	ldr	r0, [sp, #44]	; 0x2c
  40957e:	2800      	cmp	r0, #0
  409580:	f040 8088 	bne.w	409694 <_dtoa_r+0x604>
  409584:	9d0b      	ldr	r5, [sp, #44]	; 0x2c
  409586:	9f0a      	ldr	r7, [sp, #40]	; 0x28
  409588:	f8dd b024 	ldr.w	fp, [sp, #36]	; 0x24
  40958c:	e006      	b.n	40959c <_dtoa_r+0x50c>
  40958e:	4639      	mov	r1, r7
  409590:	4620      	mov	r0, r4
  409592:	220a      	movs	r2, #10
  409594:	2300      	movs	r3, #0
  409596:	f001 fa75 	bl	40aa84 <__multadd>
  40959a:	4607      	mov	r7, r0
  40959c:	4638      	mov	r0, r7
  40959e:	4641      	mov	r1, r8
  4095a0:	f7ff fcda 	bl	408f58 <quorem>
  4095a4:	3030      	adds	r0, #48	; 0x30
  4095a6:	f80b 0005 	strb.w	r0, [fp, r5]
  4095aa:	3501      	adds	r5, #1
  4095ac:	45a9      	cmp	r9, r5
  4095ae:	dcee      	bgt.n	40958e <_dtoa_r+0x4fe>
  4095b0:	f8dd b024 	ldr.w	fp, [sp, #36]	; 0x24
  4095b4:	4682      	mov	sl, r0
  4095b6:	970a      	str	r7, [sp, #40]	; 0x28
  4095b8:	f1b9 0f01 	cmp.w	r9, #1
  4095bc:	bfac      	ite	ge
  4095be:	44cb      	addge	fp, r9
  4095c0:	f10b 0b01 	addlt.w	fp, fp, #1
  4095c4:	2500      	movs	r5, #0
  4095c6:	990a      	ldr	r1, [sp, #40]	; 0x28
  4095c8:	2201      	movs	r2, #1
  4095ca:	4620      	mov	r0, r4
  4095cc:	f001 fbe8 	bl	40ada0 <__lshift>
  4095d0:	4641      	mov	r1, r8
  4095d2:	900a      	str	r0, [sp, #40]	; 0x28
  4095d4:	f001 fc42 	bl	40ae5c <__mcmp>
  4095d8:	2800      	cmp	r0, #0
  4095da:	f340 8309 	ble.w	409bf0 <_dtoa_r+0xb60>
  4095de:	f81b 2c01 	ldrb.w	r2, [fp, #-1]
  4095e2:	9909      	ldr	r1, [sp, #36]	; 0x24
  4095e4:	e005      	b.n	4095f2 <_dtoa_r+0x562>
  4095e6:	4299      	cmp	r1, r3
  4095e8:	f000 828b 	beq.w	409b02 <_dtoa_r+0xa72>
  4095ec:	f813 2c01 	ldrb.w	r2, [r3, #-1]
  4095f0:	469b      	mov	fp, r3
  4095f2:	2a39      	cmp	r2, #57	; 0x39
  4095f4:	f10b 33ff 	add.w	r3, fp, #4294967295
  4095f8:	d0f5      	beq.n	4095e6 <_dtoa_r+0x556>
  4095fa:	3201      	adds	r2, #1
  4095fc:	701a      	strb	r2, [r3, #0]
  4095fe:	4641      	mov	r1, r8
  409600:	4620      	mov	r0, r4
  409602:	f001 fa35 	bl	40aa70 <_Bfree>
  409606:	2e00      	cmp	r6, #0
  409608:	f43f af0f 	beq.w	40942a <_dtoa_r+0x39a>
  40960c:	b12d      	cbz	r5, 40961a <_dtoa_r+0x58a>
  40960e:	42b5      	cmp	r5, r6
  409610:	d003      	beq.n	40961a <_dtoa_r+0x58a>
  409612:	4629      	mov	r1, r5
  409614:	4620      	mov	r0, r4
  409616:	f001 fa2b 	bl	40aa70 <_Bfree>
  40961a:	4631      	mov	r1, r6
  40961c:	4620      	mov	r0, r4
  40961e:	f001 fa27 	bl	40aa70 <_Bfree>
  409622:	e702      	b.n	40942a <_dtoa_r+0x39a>
  409624:	2601      	movs	r6, #1
  409626:	960e      	str	r6, [sp, #56]	; 0x38
  409628:	e5ea      	b.n	409200 <_dtoa_r+0x170>
  40962a:	9807      	ldr	r0, [sp, #28]
  40962c:	f7fb ffd8 	bl	4055e0 <__aeabi_i2d>
  409630:	4632      	mov	r2, r6
  409632:	463b      	mov	r3, r7
  409634:	f7fc faa2 	bl	405b7c <__aeabi_dcmpeq>
  409638:	2800      	cmp	r0, #0
  40963a:	f47f adcd 	bne.w	4091d8 <_dtoa_r+0x148>
  40963e:	9e07      	ldr	r6, [sp, #28]
  409640:	3e01      	subs	r6, #1
  409642:	9607      	str	r6, [sp, #28]
  409644:	e5c8      	b.n	4091d8 <_dtoa_r+0x148>
  409646:	9e07      	ldr	r6, [sp, #28]
  409648:	9d08      	ldr	r5, [sp, #32]
  40964a:	1bad      	subs	r5, r5, r6
  40964c:	9508      	str	r5, [sp, #32]
  40964e:	4275      	negs	r5, r6
  409650:	2600      	movs	r6, #0
  409652:	950c      	str	r5, [sp, #48]	; 0x30
  409654:	960d      	str	r6, [sp, #52]	; 0x34
  409656:	e5e5      	b.n	409224 <_dtoa_r+0x194>
  409658:	426d      	negs	r5, r5
  40965a:	2600      	movs	r6, #0
  40965c:	9508      	str	r5, [sp, #32]
  40965e:	9606      	str	r6, [sp, #24]
  409660:	e5d6      	b.n	409210 <_dtoa_r+0x180>
  409662:	9f0c      	ldr	r7, [sp, #48]	; 0x30
  409664:	9d08      	ldr	r5, [sp, #32]
  409666:	9e0b      	ldr	r6, [sp, #44]	; 0x2c
  409668:	e714      	b.n	409494 <_dtoa_r+0x404>
  40966a:	bf00      	nop
  40966c:	40240000 	.word	0x40240000
  409670:	231c      	movs	r3, #28
  409672:	f8dd e020 	ldr.w	lr, [sp, #32]
  409676:	9806      	ldr	r0, [sp, #24]
  409678:	449e      	add	lr, r3
  40967a:	4418      	add	r0, r3
  40967c:	f8cd e020 	str.w	lr, [sp, #32]
  409680:	441d      	add	r5, r3
  409682:	9006      	str	r0, [sp, #24]
  409684:	e761      	b.n	40954a <_dtoa_r+0x4ba>
  409686:	48a7      	ldr	r0, [pc, #668]	; (409924 <_dtoa_r+0x894>)
  409688:	1b40      	subs	r0, r0, r5
  40968a:	fa0a f000 	lsl.w	r0, sl, r0
  40968e:	e56f      	b.n	409170 <_dtoa_r+0xe0>
  409690:	900e      	str	r0, [sp, #56]	; 0x38
  409692:	e5b5      	b.n	409200 <_dtoa_r+0x170>
  409694:	2d00      	cmp	r5, #0
  409696:	dd05      	ble.n	4096a4 <_dtoa_r+0x614>
  409698:	4631      	mov	r1, r6
  40969a:	462a      	mov	r2, r5
  40969c:	4620      	mov	r0, r4
  40969e:	f001 fb7f 	bl	40ada0 <__lshift>
  4096a2:	4606      	mov	r6, r0
  4096a4:	2f00      	cmp	r7, #0
  4096a6:	f040 82e9 	bne.w	409c7c <_dtoa_r+0xbec>
  4096aa:	4637      	mov	r7, r6
  4096ac:	9d09      	ldr	r5, [sp, #36]	; 0x24
  4096ae:	9809      	ldr	r0, [sp, #36]	; 0x24
  4096b0:	444d      	add	r5, r9
  4096b2:	9508      	str	r5, [sp, #32]
  4096b4:	f00a 0501 	and.w	r5, sl, #1
  4096b8:	950b      	str	r5, [sp, #44]	; 0x2c
  4096ba:	f8dd 9028 	ldr.w	r9, [sp, #40]	; 0x28
  4096be:	1c45      	adds	r5, r0, #1
  4096c0:	e00a      	b.n	4096d8 <_dtoa_r+0x648>
  4096c2:	f001 f9df 	bl	40aa84 <__multadd>
  4096c6:	4639      	mov	r1, r7
  4096c8:	4606      	mov	r6, r0
  4096ca:	220a      	movs	r2, #10
  4096cc:	4620      	mov	r0, r4
  4096ce:	2300      	movs	r3, #0
  4096d0:	f001 f9d8 	bl	40aa84 <__multadd>
  4096d4:	4607      	mov	r7, r0
  4096d6:	3501      	adds	r5, #1
  4096d8:	4641      	mov	r1, r8
  4096da:	4648      	mov	r0, r9
  4096dc:	f7ff fc3c 	bl	408f58 <quorem>
  4096e0:	4631      	mov	r1, r6
  4096e2:	4683      	mov	fp, r0
  4096e4:	4648      	mov	r0, r9
  4096e6:	f001 fbb9 	bl	40ae5c <__mcmp>
  4096ea:	4641      	mov	r1, r8
  4096ec:	9003      	str	r0, [sp, #12]
  4096ee:	463a      	mov	r2, r7
  4096f0:	4620      	mov	r0, r4
  4096f2:	f001 fbd7 	bl	40aea4 <__mdiff>
  4096f6:	68c2      	ldr	r2, [r0, #12]
  4096f8:	1e69      	subs	r1, r5, #1
  4096fa:	4603      	mov	r3, r0
  4096fc:	f10b 0a30 	add.w	sl, fp, #48	; 0x30
  409700:	9106      	str	r1, [sp, #24]
  409702:	2a00      	cmp	r2, #0
  409704:	f040 8193 	bne.w	409a2e <_dtoa_r+0x99e>
  409708:	4619      	mov	r1, r3
  40970a:	4648      	mov	r0, r9
  40970c:	9302      	str	r3, [sp, #8]
  40970e:	f001 fba5 	bl	40ae5c <__mcmp>
  409712:	9b02      	ldr	r3, [sp, #8]
  409714:	4602      	mov	r2, r0
  409716:	4619      	mov	r1, r3
  409718:	4620      	mov	r0, r4
  40971a:	9202      	str	r2, [sp, #8]
  40971c:	f001 f9a8 	bl	40aa70 <_Bfree>
  409720:	9a02      	ldr	r2, [sp, #8]
  409722:	b92a      	cbnz	r2, 409730 <_dtoa_r+0x6a0>
  409724:	9b24      	ldr	r3, [sp, #144]	; 0x90
  409726:	b91b      	cbnz	r3, 409730 <_dtoa_r+0x6a0>
  409728:	980b      	ldr	r0, [sp, #44]	; 0x2c
  40972a:	2800      	cmp	r0, #0
  40972c:	f000 8393 	beq.w	409e56 <_dtoa_r+0xdc6>
  409730:	9b03      	ldr	r3, [sp, #12]
  409732:	2b00      	cmp	r3, #0
  409734:	f2c0 8234 	blt.w	409ba0 <_dtoa_r+0xb10>
  409738:	d105      	bne.n	409746 <_dtoa_r+0x6b6>
  40973a:	9824      	ldr	r0, [sp, #144]	; 0x90
  40973c:	b918      	cbnz	r0, 409746 <_dtoa_r+0x6b6>
  40973e:	990b      	ldr	r1, [sp, #44]	; 0x2c
  409740:	2900      	cmp	r1, #0
  409742:	f000 822d 	beq.w	409ba0 <_dtoa_r+0xb10>
  409746:	2a00      	cmp	r2, #0
  409748:	f300 82ac 	bgt.w	409ca4 <_dtoa_r+0xc14>
  40974c:	f8dd e020 	ldr.w	lr, [sp, #32]
  409750:	f805 ac01 	strb.w	sl, [r5, #-1]
  409754:	4575      	cmp	r5, lr
  409756:	46ab      	mov	fp, r5
  409758:	f000 82b4 	beq.w	409cc4 <_dtoa_r+0xc34>
  40975c:	4649      	mov	r1, r9
  40975e:	220a      	movs	r2, #10
  409760:	2300      	movs	r3, #0
  409762:	4620      	mov	r0, r4
  409764:	f001 f98e 	bl	40aa84 <__multadd>
  409768:	42be      	cmp	r6, r7
  40976a:	4681      	mov	r9, r0
  40976c:	4631      	mov	r1, r6
  40976e:	4620      	mov	r0, r4
  409770:	f04f 020a 	mov.w	r2, #10
  409774:	f04f 0300 	mov.w	r3, #0
  409778:	d1a3      	bne.n	4096c2 <_dtoa_r+0x632>
  40977a:	f001 f983 	bl	40aa84 <__multadd>
  40977e:	4606      	mov	r6, r0
  409780:	4607      	mov	r7, r0
  409782:	e7a8      	b.n	4096d6 <_dtoa_r+0x646>
  409784:	2600      	movs	r6, #0
  409786:	960b      	str	r6, [sp, #44]	; 0x2c
  409788:	9e07      	ldr	r6, [sp, #28]
  40978a:	f8dd e094 	ldr.w	lr, [sp, #148]	; 0x94
  40978e:	44b6      	add	lr, r6
  409790:	f10e 0901 	add.w	r9, lr, #1
  409794:	f1b9 0f00 	cmp.w	r9, #0
  409798:	f8cd e03c 	str.w	lr, [sp, #60]	; 0x3c
  40979c:	464e      	mov	r6, r9
  40979e:	f340 8150 	ble.w	409a42 <_dtoa_r+0x9b2>
  4097a2:	2100      	movs	r1, #0
  4097a4:	2e17      	cmp	r6, #23
  4097a6:	6461      	str	r1, [r4, #68]	; 0x44
  4097a8:	d90a      	bls.n	4097c0 <_dtoa_r+0x730>
  4097aa:	2201      	movs	r2, #1
  4097ac:	2304      	movs	r3, #4
  4097ae:	005b      	lsls	r3, r3, #1
  4097b0:	f103 0014 	add.w	r0, r3, #20
  4097b4:	42b0      	cmp	r0, r6
  4097b6:	4611      	mov	r1, r2
  4097b8:	f102 0201 	add.w	r2, r2, #1
  4097bc:	d9f7      	bls.n	4097ae <_dtoa_r+0x71e>
  4097be:	6461      	str	r1, [r4, #68]	; 0x44
  4097c0:	4620      	mov	r0, r4
  4097c2:	f001 f92f 	bl	40aa24 <_Balloc>
  4097c6:	2e0e      	cmp	r6, #14
  4097c8:	9009      	str	r0, [sp, #36]	; 0x24
  4097ca:	6420      	str	r0, [r4, #64]	; 0x40
  4097cc:	f63f ad6c 	bhi.w	4092a8 <_dtoa_r+0x218>
  4097d0:	2d00      	cmp	r5, #0
  4097d2:	f43f ad69 	beq.w	4092a8 <_dtoa_r+0x218>
  4097d6:	9d07      	ldr	r5, [sp, #28]
  4097d8:	e9cd ab12 	strd	sl, fp, [sp, #72]	; 0x48
  4097dc:	2d00      	cmp	r5, #0
  4097de:	f340 821c 	ble.w	409c1a <_dtoa_r+0xb8a>
  4097e2:	4b51      	ldr	r3, [pc, #324]	; (409928 <_dtoa_r+0x898>)
  4097e4:	f005 020f 	and.w	r2, r5, #15
  4097e8:	eb03 03c2 	add.w	r3, r3, r2, lsl #3
  4097ec:	112d      	asrs	r5, r5, #4
  4097ee:	e9d3 6700 	ldrd	r6, r7, [r3]
  4097f2:	06eb      	lsls	r3, r5, #27
  4097f4:	f140 81cd 	bpl.w	409b92 <_dtoa_r+0xb02>
  4097f8:	4b4c      	ldr	r3, [pc, #304]	; (40992c <_dtoa_r+0x89c>)
  4097fa:	4650      	mov	r0, sl
  4097fc:	4659      	mov	r1, fp
  4097fe:	e9d3 2308 	ldrd	r2, r3, [r3, #32]
  409802:	f7fc f87d 	bl	405900 <__aeabi_ddiv>
  409806:	e9cd 0110 	strd	r0, r1, [sp, #64]	; 0x40
  40980a:	f005 050f 	and.w	r5, r5, #15
  40980e:	f04f 0803 	mov.w	r8, #3
  409812:	b18d      	cbz	r5, 409838 <_dtoa_r+0x7a8>
  409814:	f8df a114 	ldr.w	sl, [pc, #276]	; 40992c <_dtoa_r+0x89c>
  409818:	4630      	mov	r0, r6
  40981a:	4639      	mov	r1, r7
  40981c:	07ee      	lsls	r6, r5, #31
  40981e:	d505      	bpl.n	40982c <_dtoa_r+0x79c>
  409820:	e9da 2300 	ldrd	r2, r3, [sl]
  409824:	f108 0801 	add.w	r8, r8, #1
  409828:	f7fb ff40 	bl	4056ac <__aeabi_dmul>
  40982c:	106d      	asrs	r5, r5, #1
  40982e:	f10a 0a08 	add.w	sl, sl, #8
  409832:	d1f3      	bne.n	40981c <_dtoa_r+0x78c>
  409834:	4606      	mov	r6, r0
  409836:	460f      	mov	r7, r1
  409838:	e9dd 0110 	ldrd	r0, r1, [sp, #64]	; 0x40
  40983c:	4632      	mov	r2, r6
  40983e:	463b      	mov	r3, r7
  409840:	f7fc f85e 	bl	405900 <__aeabi_ddiv>
  409844:	4682      	mov	sl, r0
  409846:	468b      	mov	fp, r1
  409848:	9d0e      	ldr	r5, [sp, #56]	; 0x38
  40984a:	b145      	cbz	r5, 40985e <_dtoa_r+0x7ce>
  40984c:	4650      	mov	r0, sl
  40984e:	4659      	mov	r1, fp
  409850:	2200      	movs	r2, #0
  409852:	4b37      	ldr	r3, [pc, #220]	; (409930 <_dtoa_r+0x8a0>)
  409854:	f7fc f99c 	bl	405b90 <__aeabi_dcmplt>
  409858:	2800      	cmp	r0, #0
  40985a:	f040 82aa 	bne.w	409db2 <_dtoa_r+0xd22>
  40985e:	4640      	mov	r0, r8
  409860:	f7fb febe 	bl	4055e0 <__aeabi_i2d>
  409864:	4652      	mov	r2, sl
  409866:	465b      	mov	r3, fp
  409868:	f7fb ff20 	bl	4056ac <__aeabi_dmul>
  40986c:	2200      	movs	r2, #0
  40986e:	4b31      	ldr	r3, [pc, #196]	; (409934 <_dtoa_r+0x8a4>)
  409870:	f7fb fd6a 	bl	405348 <__adddf3>
  409874:	4606      	mov	r6, r0
  409876:	f1a1 7750 	sub.w	r7, r1, #54525952	; 0x3400000
  40987a:	f1b9 0f00 	cmp.w	r9, #0
  40987e:	f000 815a 	beq.w	409b36 <_dtoa_r+0xaa6>
  409882:	9d07      	ldr	r5, [sp, #28]
  409884:	46c8      	mov	r8, r9
  409886:	9517      	str	r5, [sp, #92]	; 0x5c
  409888:	9d0b      	ldr	r5, [sp, #44]	; 0x2c
  40988a:	2d00      	cmp	r5, #0
  40988c:	f000 8223 	beq.w	409cd6 <_dtoa_r+0xc46>
  409890:	4b25      	ldr	r3, [pc, #148]	; (409928 <_dtoa_r+0x898>)
  409892:	2000      	movs	r0, #0
  409894:	eb03 03c8 	add.w	r3, r3, r8, lsl #3
  409898:	e953 2302 	ldrd	r2, r3, [r3, #-8]
  40989c:	4926      	ldr	r1, [pc, #152]	; (409938 <_dtoa_r+0x8a8>)
  40989e:	f7fc f82f 	bl	405900 <__aeabi_ddiv>
  4098a2:	4632      	mov	r2, r6
  4098a4:	463b      	mov	r3, r7
  4098a6:	f7fb fd4d 	bl	405344 <__aeabi_dsub>
  4098aa:	e9cd 0110 	strd	r0, r1, [sp, #64]	; 0x40
  4098ae:	4659      	mov	r1, fp
  4098b0:	4650      	mov	r0, sl
  4098b2:	f7fc f995 	bl	405be0 <__aeabi_d2iz>
  4098b6:	4605      	mov	r5, r0
  4098b8:	f7fb fe92 	bl	4055e0 <__aeabi_i2d>
  4098bc:	4602      	mov	r2, r0
  4098be:	460b      	mov	r3, r1
  4098c0:	4650      	mov	r0, sl
  4098c2:	4659      	mov	r1, fp
  4098c4:	f7fb fd3e 	bl	405344 <__aeabi_dsub>
  4098c8:	3530      	adds	r5, #48	; 0x30
  4098ca:	9e09      	ldr	r6, [sp, #36]	; 0x24
  4098cc:	e9cd 0104 	strd	r0, r1, [sp, #16]
  4098d0:	e9dd 2304 	ldrd	r2, r3, [sp, #16]
  4098d4:	e9dd 0110 	ldrd	r0, r1, [sp, #64]	; 0x40
  4098d8:	b2ed      	uxtb	r5, r5
  4098da:	7035      	strb	r5, [r6, #0]
  4098dc:	f106 0b01 	add.w	fp, r6, #1
  4098e0:	f7fc f974 	bl	405bcc <__aeabi_dcmpgt>
  4098e4:	2800      	cmp	r0, #0
  4098e6:	f040 82ab 	bne.w	409e40 <_dtoa_r+0xdb0>
  4098ea:	e9dd 2304 	ldrd	r2, r3, [sp, #16]
  4098ee:	2000      	movs	r0, #0
  4098f0:	490f      	ldr	r1, [pc, #60]	; (409930 <_dtoa_r+0x8a0>)
  4098f2:	f7fb fd27 	bl	405344 <__aeabi_dsub>
  4098f6:	4602      	mov	r2, r0
  4098f8:	460b      	mov	r3, r1
  4098fa:	e9dd 0110 	ldrd	r0, r1, [sp, #64]	; 0x40
  4098fe:	f7fc f965 	bl	405bcc <__aeabi_dcmpgt>
  409902:	2800      	cmp	r0, #0
  409904:	f040 82a2 	bne.w	409e4c <_dtoa_r+0xdbc>
  409908:	f1b8 0f01 	cmp.w	r8, #1
  40990c:	f340 8181 	ble.w	409c12 <_dtoa_r+0xb82>
  409910:	44b0      	add	r8, r6
  409912:	f8cd 9050 	str.w	r9, [sp, #80]	; 0x50
  409916:	46a2      	mov	sl, r4
  409918:	46c1      	mov	r9, r8
  40991a:	e9dd 6704 	ldrd	r6, r7, [sp, #16]
  40991e:	e9dd 4510 	ldrd	r4, r5, [sp, #64]	; 0x40
  409922:	e019      	b.n	409958 <_dtoa_r+0x8c8>
  409924:	fffffbee 	.word	0xfffffbee
  409928:	0040c7d0 	.word	0x0040c7d0
  40992c:	0040c898 	.word	0x0040c898
  409930:	3ff00000 	.word	0x3ff00000
  409934:	401c0000 	.word	0x401c0000
  409938:	3fe00000 	.word	0x3fe00000
  40993c:	2000      	movs	r0, #0
  40993e:	49a8      	ldr	r1, [pc, #672]	; (409be0 <_dtoa_r+0xb50>)
  409940:	f7fb fd00 	bl	405344 <__aeabi_dsub>
  409944:	4622      	mov	r2, r4
  409946:	462b      	mov	r3, r5
  409948:	f7fc f922 	bl	405b90 <__aeabi_dcmplt>
  40994c:	2800      	cmp	r0, #0
  40994e:	f040 827b 	bne.w	409e48 <_dtoa_r+0xdb8>
  409952:	45cb      	cmp	fp, r9
  409954:	f000 815a 	beq.w	409c0c <_dtoa_r+0xb7c>
  409958:	4620      	mov	r0, r4
  40995a:	4629      	mov	r1, r5
  40995c:	2200      	movs	r2, #0
  40995e:	4ba1      	ldr	r3, [pc, #644]	; (409be4 <_dtoa_r+0xb54>)
  409960:	f7fb fea4 	bl	4056ac <__aeabi_dmul>
  409964:	2200      	movs	r2, #0
  409966:	4b9f      	ldr	r3, [pc, #636]	; (409be4 <_dtoa_r+0xb54>)
  409968:	4604      	mov	r4, r0
  40996a:	460d      	mov	r5, r1
  40996c:	4630      	mov	r0, r6
  40996e:	4639      	mov	r1, r7
  409970:	f7fb fe9c 	bl	4056ac <__aeabi_dmul>
  409974:	460f      	mov	r7, r1
  409976:	4606      	mov	r6, r0
  409978:	f7fc f932 	bl	405be0 <__aeabi_d2iz>
  40997c:	4680      	mov	r8, r0
  40997e:	f7fb fe2f 	bl	4055e0 <__aeabi_i2d>
  409982:	4602      	mov	r2, r0
  409984:	460b      	mov	r3, r1
  409986:	4630      	mov	r0, r6
  409988:	4639      	mov	r1, r7
  40998a:	f7fb fcdb 	bl	405344 <__aeabi_dsub>
  40998e:	f108 0830 	add.w	r8, r8, #48	; 0x30
  409992:	fa5f f888 	uxtb.w	r8, r8
  409996:	4622      	mov	r2, r4
  409998:	462b      	mov	r3, r5
  40999a:	f80b 8b01 	strb.w	r8, [fp], #1
  40999e:	4606      	mov	r6, r0
  4099a0:	460f      	mov	r7, r1
  4099a2:	f7fc f8f5 	bl	405b90 <__aeabi_dcmplt>
  4099a6:	4632      	mov	r2, r6
  4099a8:	463b      	mov	r3, r7
  4099aa:	2800      	cmp	r0, #0
  4099ac:	d0c6      	beq.n	40993c <_dtoa_r+0x8ac>
  4099ae:	9e17      	ldr	r6, [sp, #92]	; 0x5c
  4099b0:	4654      	mov	r4, sl
  4099b2:	9607      	str	r6, [sp, #28]
  4099b4:	e539      	b.n	40942a <_dtoa_r+0x39a>
  4099b6:	2600      	movs	r6, #0
  4099b8:	960b      	str	r6, [sp, #44]	; 0x2c
  4099ba:	9825      	ldr	r0, [sp, #148]	; 0x94
  4099bc:	2800      	cmp	r0, #0
  4099be:	dd3c      	ble.n	409a3a <_dtoa_r+0x9aa>
  4099c0:	4606      	mov	r6, r0
  4099c2:	900f      	str	r0, [sp, #60]	; 0x3c
  4099c4:	4681      	mov	r9, r0
  4099c6:	e6ec      	b.n	4097a2 <_dtoa_r+0x712>
  4099c8:	2601      	movs	r6, #1
  4099ca:	960b      	str	r6, [sp, #44]	; 0x2c
  4099cc:	e7f5      	b.n	4099ba <_dtoa_r+0x92a>
  4099ce:	f1b9 0f00 	cmp.w	r9, #0
  4099d2:	f73f ac7c 	bgt.w	4092ce <_dtoa_r+0x23e>
  4099d6:	f040 80c6 	bne.w	409b66 <_dtoa_r+0xad6>
  4099da:	e9dd 0104 	ldrd	r0, r1, [sp, #16]
  4099de:	2200      	movs	r2, #0
  4099e0:	4b81      	ldr	r3, [pc, #516]	; (409be8 <_dtoa_r+0xb58>)
  4099e2:	f7fb fe63 	bl	4056ac <__aeabi_dmul>
  4099e6:	4652      	mov	r2, sl
  4099e8:	465b      	mov	r3, fp
  4099ea:	f7fc f8e5 	bl	405bb8 <__aeabi_dcmpge>
  4099ee:	46c8      	mov	r8, r9
  4099f0:	464e      	mov	r6, r9
  4099f2:	2800      	cmp	r0, #0
  4099f4:	d07c      	beq.n	409af0 <_dtoa_r+0xa60>
  4099f6:	9d25      	ldr	r5, [sp, #148]	; 0x94
  4099f8:	f8dd b024 	ldr.w	fp, [sp, #36]	; 0x24
  4099fc:	43ed      	mvns	r5, r5
  4099fe:	9507      	str	r5, [sp, #28]
  409a00:	4641      	mov	r1, r8
  409a02:	4620      	mov	r0, r4
  409a04:	f001 f834 	bl	40aa70 <_Bfree>
  409a08:	2e00      	cmp	r6, #0
  409a0a:	f47f ae06 	bne.w	40961a <_dtoa_r+0x58a>
  409a0e:	e50c      	b.n	40942a <_dtoa_r+0x39a>
  409a10:	990a      	ldr	r1, [sp, #40]	; 0x28
  409a12:	4620      	mov	r0, r4
  409a14:	f001 f976 	bl	40ad04 <__pow5mult>
  409a18:	900a      	str	r0, [sp, #40]	; 0x28
  409a1a:	e56a      	b.n	4094f2 <_dtoa_r+0x462>
  409a1c:	9d16      	ldr	r5, [sp, #88]	; 0x58
  409a1e:	2d00      	cmp	r5, #0
  409a20:	f000 81b8 	beq.w	409d94 <_dtoa_r+0xd04>
  409a24:	f203 4333 	addw	r3, r3, #1075	; 0x433
  409a28:	9f0c      	ldr	r7, [sp, #48]	; 0x30
  409a2a:	9d08      	ldr	r5, [sp, #32]
  409a2c:	e527      	b.n	40947e <_dtoa_r+0x3ee>
  409a2e:	4601      	mov	r1, r0
  409a30:	4620      	mov	r0, r4
  409a32:	f001 f81d 	bl	40aa70 <_Bfree>
  409a36:	2201      	movs	r2, #1
  409a38:	e67a      	b.n	409730 <_dtoa_r+0x6a0>
  409a3a:	2601      	movs	r6, #1
  409a3c:	9625      	str	r6, [sp, #148]	; 0x94
  409a3e:	960f      	str	r6, [sp, #60]	; 0x3c
  409a40:	46b1      	mov	r9, r6
  409a42:	2100      	movs	r1, #0
  409a44:	6461      	str	r1, [r4, #68]	; 0x44
  409a46:	e6bb      	b.n	4097c0 <_dtoa_r+0x730>
  409a48:	980a      	ldr	r0, [sp, #40]	; 0x28
  409a4a:	4641      	mov	r1, r8
  409a4c:	f001 fa06 	bl	40ae5c <__mcmp>
  409a50:	2800      	cmp	r0, #0
  409a52:	f6bf ad8f 	bge.w	409574 <_dtoa_r+0x4e4>
  409a56:	f8dd e01c 	ldr.w	lr, [sp, #28]
  409a5a:	990a      	ldr	r1, [sp, #40]	; 0x28
  409a5c:	f10e 3eff 	add.w	lr, lr, #4294967295
  409a60:	4620      	mov	r0, r4
  409a62:	220a      	movs	r2, #10
  409a64:	2300      	movs	r3, #0
  409a66:	f8cd e01c 	str.w	lr, [sp, #28]
  409a6a:	f001 f80b 	bl	40aa84 <__multadd>
  409a6e:	900a      	str	r0, [sp, #40]	; 0x28
  409a70:	980b      	ldr	r0, [sp, #44]	; 0x2c
  409a72:	2800      	cmp	r0, #0
  409a74:	f040 8209 	bne.w	409e8a <_dtoa_r+0xdfa>
  409a78:	f8dd 903c 	ldr.w	r9, [sp, #60]	; 0x3c
  409a7c:	e57a      	b.n	409574 <_dtoa_r+0x4e4>
  409a7e:	f8d8 3010 	ldr.w	r3, [r8, #16]
  409a82:	eb08 0383 	add.w	r3, r8, r3, lsl #2
  409a86:	6918      	ldr	r0, [r3, #16]
  409a88:	f001 f846 	bl	40ab18 <__hi0bits>
  409a8c:	f1c0 0020 	rsb	r0, r0, #32
  409a90:	e547      	b.n	409522 <_dtoa_r+0x492>
  409a92:	9809      	ldr	r0, [sp, #36]	; 0x24
  409a94:	f7ff bb2c 	b.w	4090f0 <_dtoa_r+0x60>
  409a98:	f1ba 0f00 	cmp.w	sl, #0
  409a9c:	f47f ad3b 	bne.w	409516 <_dtoa_r+0x486>
  409aa0:	f3cb 0313 	ubfx	r3, fp, #0, #20
  409aa4:	2b00      	cmp	r3, #0
  409aa6:	f040 817c 	bne.w	409da2 <_dtoa_r+0xd12>
  409aaa:	f02b 4700 	bic.w	r7, fp, #2147483648	; 0x80000000
  409aae:	0d3f      	lsrs	r7, r7, #20
  409ab0:	053f      	lsls	r7, r7, #20
  409ab2:	2f00      	cmp	r7, #0
  409ab4:	f43f ad30 	beq.w	409518 <_dtoa_r+0x488>
  409ab8:	9a08      	ldr	r2, [sp, #32]
  409aba:	9b06      	ldr	r3, [sp, #24]
  409abc:	3201      	adds	r2, #1
  409abe:	3301      	adds	r3, #1
  409ac0:	9208      	str	r2, [sp, #32]
  409ac2:	9306      	str	r3, [sp, #24]
  409ac4:	2701      	movs	r7, #1
  409ac6:	e527      	b.n	409518 <_dtoa_r+0x488>
  409ac8:	9924      	ldr	r1, [sp, #144]	; 0x90
  409aca:	2902      	cmp	r1, #2
  409acc:	f77f ad56 	ble.w	40957c <_dtoa_r+0x4ec>
  409ad0:	f1b9 0f00 	cmp.w	r9, #0
  409ad4:	d18f      	bne.n	4099f6 <_dtoa_r+0x966>
  409ad6:	4641      	mov	r1, r8
  409ad8:	464b      	mov	r3, r9
  409ada:	2205      	movs	r2, #5
  409adc:	4620      	mov	r0, r4
  409ade:	f000 ffd1 	bl	40aa84 <__multadd>
  409ae2:	4680      	mov	r8, r0
  409ae4:	4641      	mov	r1, r8
  409ae6:	980a      	ldr	r0, [sp, #40]	; 0x28
  409ae8:	f001 f9b8 	bl	40ae5c <__mcmp>
  409aec:	2800      	cmp	r0, #0
  409aee:	dd82      	ble.n	4099f6 <_dtoa_r+0x966>
  409af0:	9d07      	ldr	r5, [sp, #28]
  409af2:	2331      	movs	r3, #49	; 0x31
  409af4:	3501      	adds	r5, #1
  409af6:	9507      	str	r5, [sp, #28]
  409af8:	9d09      	ldr	r5, [sp, #36]	; 0x24
  409afa:	702b      	strb	r3, [r5, #0]
  409afc:	f105 0b01 	add.w	fp, r5, #1
  409b00:	e77e      	b.n	409a00 <_dtoa_r+0x970>
  409b02:	9807      	ldr	r0, [sp, #28]
  409b04:	9909      	ldr	r1, [sp, #36]	; 0x24
  409b06:	2331      	movs	r3, #49	; 0x31
  409b08:	3001      	adds	r0, #1
  409b0a:	9007      	str	r0, [sp, #28]
  409b0c:	700b      	strb	r3, [r1, #0]
  409b0e:	e576      	b.n	4095fe <_dtoa_r+0x56e>
  409b10:	46a3      	mov	fp, r4
  409b12:	9c03      	ldr	r4, [sp, #12]
  409b14:	e489      	b.n	40942a <_dtoa_r+0x39a>
  409b16:	4640      	mov	r0, r8
  409b18:	f7fb fd62 	bl	4055e0 <__aeabi_i2d>
  409b1c:	4602      	mov	r2, r0
  409b1e:	460b      	mov	r3, r1
  409b20:	4650      	mov	r0, sl
  409b22:	4659      	mov	r1, fp
  409b24:	f7fb fdc2 	bl	4056ac <__aeabi_dmul>
  409b28:	2200      	movs	r2, #0
  409b2a:	4b30      	ldr	r3, [pc, #192]	; (409bec <_dtoa_r+0xb5c>)
  409b2c:	f7fb fc0c 	bl	405348 <__adddf3>
  409b30:	4606      	mov	r6, r0
  409b32:	f1a1 7750 	sub.w	r7, r1, #54525952	; 0x3400000
  409b36:	4650      	mov	r0, sl
  409b38:	4659      	mov	r1, fp
  409b3a:	2200      	movs	r2, #0
  409b3c:	4b2a      	ldr	r3, [pc, #168]	; (409be8 <_dtoa_r+0xb58>)
  409b3e:	f7fb fc01 	bl	405344 <__aeabi_dsub>
  409b42:	4632      	mov	r2, r6
  409b44:	463b      	mov	r3, r7
  409b46:	4682      	mov	sl, r0
  409b48:	468b      	mov	fp, r1
  409b4a:	f7fc f83f 	bl	405bcc <__aeabi_dcmpgt>
  409b4e:	2800      	cmp	r0, #0
  409b50:	f040 80bd 	bne.w	409cce <_dtoa_r+0xc3e>
  409b54:	4632      	mov	r2, r6
  409b56:	f107 4300 	add.w	r3, r7, #2147483648	; 0x80000000
  409b5a:	4650      	mov	r0, sl
  409b5c:	4659      	mov	r1, fp
  409b5e:	f7fc f817 	bl	405b90 <__aeabi_dcmplt>
  409b62:	2800      	cmp	r0, #0
  409b64:	d055      	beq.n	409c12 <_dtoa_r+0xb82>
  409b66:	f04f 0800 	mov.w	r8, #0
  409b6a:	4646      	mov	r6, r8
  409b6c:	e743      	b.n	4099f6 <_dtoa_r+0x966>
  409b6e:	990a      	ldr	r1, [sp, #40]	; 0x28
  409b70:	9a0c      	ldr	r2, [sp, #48]	; 0x30
  409b72:	4620      	mov	r0, r4
  409b74:	f001 f8c6 	bl	40ad04 <__pow5mult>
  409b78:	900a      	str	r0, [sp, #40]	; 0x28
  409b7a:	e4ba      	b.n	4094f2 <_dtoa_r+0x462>
  409b7c:	2601      	movs	r6, #1
  409b7e:	960b      	str	r6, [sp, #44]	; 0x2c
  409b80:	e602      	b.n	409788 <_dtoa_r+0x6f8>
  409b82:	9d0c      	ldr	r5, [sp, #48]	; 0x30
  409b84:	9e0d      	ldr	r6, [sp, #52]	; 0x34
  409b86:	1b7b      	subs	r3, r7, r5
  409b88:	441e      	add	r6, r3
  409b8a:	970c      	str	r7, [sp, #48]	; 0x30
  409b8c:	960d      	str	r6, [sp, #52]	; 0x34
  409b8e:	2700      	movs	r7, #0
  409b90:	e46f      	b.n	409472 <_dtoa_r+0x3e2>
  409b92:	e9dd 0112 	ldrd	r0, r1, [sp, #72]	; 0x48
  409b96:	f04f 0802 	mov.w	r8, #2
  409b9a:	e9cd 0110 	strd	r0, r1, [sp, #64]	; 0x40
  409b9e:	e638      	b.n	409812 <_dtoa_r+0x782>
  409ba0:	2a00      	cmp	r2, #0
  409ba2:	f8cd 9028 	str.w	r9, [sp, #40]	; 0x28
  409ba6:	46d9      	mov	r9, fp
  409ba8:	dd11      	ble.n	409bce <_dtoa_r+0xb3e>
  409baa:	990a      	ldr	r1, [sp, #40]	; 0x28
  409bac:	2201      	movs	r2, #1
  409bae:	4620      	mov	r0, r4
  409bb0:	f001 f8f6 	bl	40ada0 <__lshift>
  409bb4:	4641      	mov	r1, r8
  409bb6:	900a      	str	r0, [sp, #40]	; 0x28
  409bb8:	f001 f950 	bl	40ae5c <__mcmp>
  409bbc:	2800      	cmp	r0, #0
  409bbe:	f340 815d 	ble.w	409e7c <_dtoa_r+0xdec>
  409bc2:	f1ba 0f39 	cmp.w	sl, #57	; 0x39
  409bc6:	f000 811b 	beq.w	409e00 <_dtoa_r+0xd70>
  409bca:	f109 0a31 	add.w	sl, r9, #49	; 0x31
  409bce:	9b06      	ldr	r3, [sp, #24]
  409bd0:	4635      	mov	r5, r6
  409bd2:	f883 a000 	strb.w	sl, [r3]
  409bd6:	f103 0b01 	add.w	fp, r3, #1
  409bda:	463e      	mov	r6, r7
  409bdc:	e50f      	b.n	4095fe <_dtoa_r+0x56e>
  409bde:	bf00      	nop
  409be0:	3ff00000 	.word	0x3ff00000
  409be4:	40240000 	.word	0x40240000
  409be8:	40140000 	.word	0x40140000
  409bec:	401c0000 	.word	0x401c0000
  409bf0:	d103      	bne.n	409bfa <_dtoa_r+0xb6a>
  409bf2:	f01a 0f01 	tst.w	sl, #1
  409bf6:	f47f acf2 	bne.w	4095de <_dtoa_r+0x54e>
  409bfa:	465b      	mov	r3, fp
  409bfc:	f813 2c01 	ldrb.w	r2, [r3, #-1]
  409c00:	469b      	mov	fp, r3
  409c02:	2a30      	cmp	r2, #48	; 0x30
  409c04:	f103 33ff 	add.w	r3, r3, #4294967295
  409c08:	d0f8      	beq.n	409bfc <_dtoa_r+0xb6c>
  409c0a:	e4f8      	b.n	4095fe <_dtoa_r+0x56e>
  409c0c:	f8dd 9050 	ldr.w	r9, [sp, #80]	; 0x50
  409c10:	4654      	mov	r4, sl
  409c12:	e9dd ab12 	ldrd	sl, fp, [sp, #72]	; 0x48
  409c16:	f7ff bb47 	b.w	4092a8 <_dtoa_r+0x218>
  409c1a:	9e07      	ldr	r6, [sp, #28]
  409c1c:	4275      	negs	r5, r6
  409c1e:	2d00      	cmp	r5, #0
  409c20:	f000 80c2 	beq.w	409da8 <_dtoa_r+0xd18>
  409c24:	4ba3      	ldr	r3, [pc, #652]	; (409eb4 <_dtoa_r+0xe24>)
  409c26:	f005 020f 	and.w	r2, r5, #15
  409c2a:	eb03 03c2 	add.w	r3, r3, r2, lsl #3
  409c2e:	e9d3 2300 	ldrd	r2, r3, [r3]
  409c32:	e9dd 0112 	ldrd	r0, r1, [sp, #72]	; 0x48
  409c36:	f7fb fd39 	bl	4056ac <__aeabi_dmul>
  409c3a:	112d      	asrs	r5, r5, #4
  409c3c:	4682      	mov	sl, r0
  409c3e:	468b      	mov	fp, r1
  409c40:	f000 812e 	beq.w	409ea0 <_dtoa_r+0xe10>
  409c44:	4e9c      	ldr	r6, [pc, #624]	; (409eb8 <_dtoa_r+0xe28>)
  409c46:	f04f 0802 	mov.w	r8, #2
  409c4a:	07ea      	lsls	r2, r5, #31
  409c4c:	d505      	bpl.n	409c5a <_dtoa_r+0xbca>
  409c4e:	e9d6 2300 	ldrd	r2, r3, [r6]
  409c52:	f108 0801 	add.w	r8, r8, #1
  409c56:	f7fb fd29 	bl	4056ac <__aeabi_dmul>
  409c5a:	106d      	asrs	r5, r5, #1
  409c5c:	f106 0608 	add.w	r6, r6, #8
  409c60:	d1f3      	bne.n	409c4a <_dtoa_r+0xbba>
  409c62:	4682      	mov	sl, r0
  409c64:	468b      	mov	fp, r1
  409c66:	e5ef      	b.n	409848 <_dtoa_r+0x7b8>
  409c68:	9e07      	ldr	r6, [sp, #28]
  409c6a:	9d09      	ldr	r5, [sp, #36]	; 0x24
  409c6c:	2230      	movs	r2, #48	; 0x30
  409c6e:	702a      	strb	r2, [r5, #0]
  409c70:	3601      	adds	r6, #1
  409c72:	2231      	movs	r2, #49	; 0x31
  409c74:	9607      	str	r6, [sp, #28]
  409c76:	701a      	strb	r2, [r3, #0]
  409c78:	f7ff bbd7 	b.w	40942a <_dtoa_r+0x39a>
  409c7c:	6871      	ldr	r1, [r6, #4]
  409c7e:	4620      	mov	r0, r4
  409c80:	f000 fed0 	bl	40aa24 <_Balloc>
  409c84:	6933      	ldr	r3, [r6, #16]
  409c86:	4605      	mov	r5, r0
  409c88:	1c9a      	adds	r2, r3, #2
  409c8a:	0092      	lsls	r2, r2, #2
  409c8c:	f106 010c 	add.w	r1, r6, #12
  409c90:	300c      	adds	r0, #12
  409c92:	f7fc fbef 	bl	406474 <memcpy>
  409c96:	4620      	mov	r0, r4
  409c98:	4629      	mov	r1, r5
  409c9a:	2201      	movs	r2, #1
  409c9c:	f001 f880 	bl	40ada0 <__lshift>
  409ca0:	4607      	mov	r7, r0
  409ca2:	e503      	b.n	4096ac <_dtoa_r+0x61c>
  409ca4:	f1ba 0f39 	cmp.w	sl, #57	; 0x39
  409ca8:	f8cd 9028 	str.w	r9, [sp, #40]	; 0x28
  409cac:	f000 80a8 	beq.w	409e00 <_dtoa_r+0xd70>
  409cb0:	9d06      	ldr	r5, [sp, #24]
  409cb2:	f10a 0301 	add.w	r3, sl, #1
  409cb6:	702b      	strb	r3, [r5, #0]
  409cb8:	4635      	mov	r5, r6
  409cba:	9e06      	ldr	r6, [sp, #24]
  409cbc:	f106 0b01 	add.w	fp, r6, #1
  409cc0:	463e      	mov	r6, r7
  409cc2:	e49c      	b.n	4095fe <_dtoa_r+0x56e>
  409cc4:	4635      	mov	r5, r6
  409cc6:	f8cd 9028 	str.w	r9, [sp, #40]	; 0x28
  409cca:	463e      	mov	r6, r7
  409ccc:	e47b      	b.n	4095c6 <_dtoa_r+0x536>
  409cce:	f04f 0800 	mov.w	r8, #0
  409cd2:	4646      	mov	r6, r8
  409cd4:	e70c      	b.n	409af0 <_dtoa_r+0xa60>
  409cd6:	4977      	ldr	r1, [pc, #476]	; (409eb4 <_dtoa_r+0xe24>)
  409cd8:	f108 35ff 	add.w	r5, r8, #4294967295
  409cdc:	eb01 01c5 	add.w	r1, r1, r5, lsl #3
  409ce0:	4632      	mov	r2, r6
  409ce2:	463b      	mov	r3, r7
  409ce4:	e9d1 0100 	ldrd	r0, r1, [r1]
  409ce8:	9510      	str	r5, [sp, #64]	; 0x40
  409cea:	f7fb fcdf 	bl	4056ac <__aeabi_dmul>
  409cee:	e9cd 0114 	strd	r0, r1, [sp, #80]	; 0x50
  409cf2:	4659      	mov	r1, fp
  409cf4:	4650      	mov	r0, sl
  409cf6:	f7fb ff73 	bl	405be0 <__aeabi_d2iz>
  409cfa:	4605      	mov	r5, r0
  409cfc:	f7fb fc70 	bl	4055e0 <__aeabi_i2d>
  409d00:	4602      	mov	r2, r0
  409d02:	460b      	mov	r3, r1
  409d04:	4650      	mov	r0, sl
  409d06:	4659      	mov	r1, fp
  409d08:	f7fb fb1c 	bl	405344 <__aeabi_dsub>
  409d0c:	f8dd e024 	ldr.w	lr, [sp, #36]	; 0x24
  409d10:	3530      	adds	r5, #48	; 0x30
  409d12:	f1b8 0f01 	cmp.w	r8, #1
  409d16:	4606      	mov	r6, r0
  409d18:	460f      	mov	r7, r1
  409d1a:	f88e 5000 	strb.w	r5, [lr]
  409d1e:	f10e 0b01 	add.w	fp, lr, #1
  409d22:	d01e      	beq.n	409d62 <_dtoa_r+0xcd2>
  409d24:	9d09      	ldr	r5, [sp, #36]	; 0x24
  409d26:	1e6b      	subs	r3, r5, #1
  409d28:	eb03 0a08 	add.w	sl, r3, r8
  409d2c:	2200      	movs	r2, #0
  409d2e:	4b63      	ldr	r3, [pc, #396]	; (409ebc <_dtoa_r+0xe2c>)
  409d30:	f7fb fcbc 	bl	4056ac <__aeabi_dmul>
  409d34:	460f      	mov	r7, r1
  409d36:	4606      	mov	r6, r0
  409d38:	f7fb ff52 	bl	405be0 <__aeabi_d2iz>
  409d3c:	4680      	mov	r8, r0
  409d3e:	f7fb fc4f 	bl	4055e0 <__aeabi_i2d>
  409d42:	f108 0830 	add.w	r8, r8, #48	; 0x30
  409d46:	4602      	mov	r2, r0
  409d48:	460b      	mov	r3, r1
  409d4a:	4630      	mov	r0, r6
  409d4c:	4639      	mov	r1, r7
  409d4e:	f7fb faf9 	bl	405344 <__aeabi_dsub>
  409d52:	f805 8f01 	strb.w	r8, [r5, #1]!
  409d56:	4555      	cmp	r5, sl
  409d58:	d1e8      	bne.n	409d2c <_dtoa_r+0xc9c>
  409d5a:	9d10      	ldr	r5, [sp, #64]	; 0x40
  409d5c:	4606      	mov	r6, r0
  409d5e:	460f      	mov	r7, r1
  409d60:	44ab      	add	fp, r5
  409d62:	2200      	movs	r2, #0
  409d64:	4b56      	ldr	r3, [pc, #344]	; (409ec0 <_dtoa_r+0xe30>)
  409d66:	e9dd 0114 	ldrd	r0, r1, [sp, #80]	; 0x50
  409d6a:	f7fb faed 	bl	405348 <__adddf3>
  409d6e:	4632      	mov	r2, r6
  409d70:	463b      	mov	r3, r7
  409d72:	f7fb ff0d 	bl	405b90 <__aeabi_dcmplt>
  409d76:	2800      	cmp	r0, #0
  409d78:	d04d      	beq.n	409e16 <_dtoa_r+0xd86>
  409d7a:	9e17      	ldr	r6, [sp, #92]	; 0x5c
  409d7c:	9a09      	ldr	r2, [sp, #36]	; 0x24
  409d7e:	9607      	str	r6, [sp, #28]
  409d80:	f81b 5c01 	ldrb.w	r5, [fp, #-1]
  409d84:	f7ff bb4a 	b.w	40941c <_dtoa_r+0x38c>
  409d88:	9e08      	ldr	r6, [sp, #32]
  409d8a:	2300      	movs	r3, #0
  409d8c:	ebc9 0506 	rsb	r5, r9, r6
  409d90:	f7ff bb75 	b.w	40947e <_dtoa_r+0x3ee>
  409d94:	9b18      	ldr	r3, [sp, #96]	; 0x60
  409d96:	9f0c      	ldr	r7, [sp, #48]	; 0x30
  409d98:	f1c3 0336 	rsb	r3, r3, #54	; 0x36
  409d9c:	9d08      	ldr	r5, [sp, #32]
  409d9e:	f7ff bb6e 	b.w	40947e <_dtoa_r+0x3ee>
  409da2:	4657      	mov	r7, sl
  409da4:	f7ff bbb8 	b.w	409518 <_dtoa_r+0x488>
  409da8:	e9dd ab12 	ldrd	sl, fp, [sp, #72]	; 0x48
  409dac:	f04f 0802 	mov.w	r8, #2
  409db0:	e54a      	b.n	409848 <_dtoa_r+0x7b8>
  409db2:	f1b9 0f00 	cmp.w	r9, #0
  409db6:	f43f aeae 	beq.w	409b16 <_dtoa_r+0xa86>
  409dba:	9e0f      	ldr	r6, [sp, #60]	; 0x3c
  409dbc:	2e00      	cmp	r6, #0
  409dbe:	f77f af28 	ble.w	409c12 <_dtoa_r+0xb82>
  409dc2:	2200      	movs	r2, #0
  409dc4:	4b3d      	ldr	r3, [pc, #244]	; (409ebc <_dtoa_r+0xe2c>)
  409dc6:	4650      	mov	r0, sl
  409dc8:	4659      	mov	r1, fp
  409dca:	f7fb fc6f 	bl	4056ac <__aeabi_dmul>
  409dce:	4682      	mov	sl, r0
  409dd0:	f108 0001 	add.w	r0, r8, #1
  409dd4:	468b      	mov	fp, r1
  409dd6:	f7fb fc03 	bl	4055e0 <__aeabi_i2d>
  409dda:	4602      	mov	r2, r0
  409ddc:	460b      	mov	r3, r1
  409dde:	4650      	mov	r0, sl
  409de0:	4659      	mov	r1, fp
  409de2:	f7fb fc63 	bl	4056ac <__aeabi_dmul>
  409de6:	2200      	movs	r2, #0
  409de8:	4b36      	ldr	r3, [pc, #216]	; (409ec4 <_dtoa_r+0xe34>)
  409dea:	f7fb faad 	bl	405348 <__adddf3>
  409dee:	9d07      	ldr	r5, [sp, #28]
  409df0:	4606      	mov	r6, r0
  409df2:	3d01      	subs	r5, #1
  409df4:	f1a1 7750 	sub.w	r7, r1, #54525952	; 0x3400000
  409df8:	9517      	str	r5, [sp, #92]	; 0x5c
  409dfa:	f8dd 803c 	ldr.w	r8, [sp, #60]	; 0x3c
  409dfe:	e543      	b.n	409888 <_dtoa_r+0x7f8>
  409e00:	4635      	mov	r5, r6
  409e02:	9b06      	ldr	r3, [sp, #24]
  409e04:	9e06      	ldr	r6, [sp, #24]
  409e06:	2239      	movs	r2, #57	; 0x39
  409e08:	7032      	strb	r2, [r6, #0]
  409e0a:	f103 0b01 	add.w	fp, r3, #1
  409e0e:	463e      	mov	r6, r7
  409e10:	9909      	ldr	r1, [sp, #36]	; 0x24
  409e12:	f7ff bbee 	b.w	4095f2 <_dtoa_r+0x562>
  409e16:	e9dd 2314 	ldrd	r2, r3, [sp, #80]	; 0x50
  409e1a:	2000      	movs	r0, #0
  409e1c:	4928      	ldr	r1, [pc, #160]	; (409ec0 <_dtoa_r+0xe30>)
  409e1e:	f7fb fa91 	bl	405344 <__aeabi_dsub>
  409e22:	4632      	mov	r2, r6
  409e24:	463b      	mov	r3, r7
  409e26:	f7fb fed1 	bl	405bcc <__aeabi_dcmpgt>
  409e2a:	2800      	cmp	r0, #0
  409e2c:	f43f aef1 	beq.w	409c12 <_dtoa_r+0xb82>
  409e30:	465b      	mov	r3, fp
  409e32:	f813 2c01 	ldrb.w	r2, [r3, #-1]
  409e36:	469b      	mov	fp, r3
  409e38:	2a30      	cmp	r2, #48	; 0x30
  409e3a:	f103 33ff 	add.w	r3, r3, #4294967295
  409e3e:	d0f8      	beq.n	409e32 <_dtoa_r+0xda2>
  409e40:	9d17      	ldr	r5, [sp, #92]	; 0x5c
  409e42:	9507      	str	r5, [sp, #28]
  409e44:	f7ff baf1 	b.w	40942a <_dtoa_r+0x39a>
  409e48:	4645      	mov	r5, r8
  409e4a:	4654      	mov	r4, sl
  409e4c:	9e17      	ldr	r6, [sp, #92]	; 0x5c
  409e4e:	9a09      	ldr	r2, [sp, #36]	; 0x24
  409e50:	9607      	str	r6, [sp, #28]
  409e52:	f7ff bae3 	b.w	40941c <_dtoa_r+0x38c>
  409e56:	f1ba 0f39 	cmp.w	sl, #57	; 0x39
  409e5a:	f8cd 9028 	str.w	r9, [sp, #40]	; 0x28
  409e5e:	d0cf      	beq.n	409e00 <_dtoa_r+0xd70>
  409e60:	9b03      	ldr	r3, [sp, #12]
  409e62:	4635      	mov	r5, r6
  409e64:	2b00      	cmp	r3, #0
  409e66:	9e06      	ldr	r6, [sp, #24]
  409e68:	bfc8      	it	gt
  409e6a:	f10b 0a31 	addgt.w	sl, fp, #49	; 0x31
  409e6e:	f886 a000 	strb.w	sl, [r6]
  409e72:	f106 0b01 	add.w	fp, r6, #1
  409e76:	463e      	mov	r6, r7
  409e78:	f7ff bbc1 	b.w	4095fe <_dtoa_r+0x56e>
  409e7c:	f47f aea7 	bne.w	409bce <_dtoa_r+0xb3e>
  409e80:	f01a 0f01 	tst.w	sl, #1
  409e84:	f43f aea3 	beq.w	409bce <_dtoa_r+0xb3e>
  409e88:	e69b      	b.n	409bc2 <_dtoa_r+0xb32>
  409e8a:	4631      	mov	r1, r6
  409e8c:	4620      	mov	r0, r4
  409e8e:	220a      	movs	r2, #10
  409e90:	2300      	movs	r3, #0
  409e92:	f8dd 903c 	ldr.w	r9, [sp, #60]	; 0x3c
  409e96:	f000 fdf5 	bl	40aa84 <__multadd>
  409e9a:	4606      	mov	r6, r0
  409e9c:	f7ff bb6a 	b.w	409574 <_dtoa_r+0x4e4>
  409ea0:	f04f 0802 	mov.w	r8, #2
  409ea4:	e4d0      	b.n	409848 <_dtoa_r+0x7b8>
  409ea6:	f43f ab50 	beq.w	40954a <_dtoa_r+0x4ba>
  409eaa:	f1c3 033c 	rsb	r3, r3, #60	; 0x3c
  409eae:	f7ff bbe0 	b.w	409672 <_dtoa_r+0x5e2>
  409eb2:	bf00      	nop
  409eb4:	0040c7d0 	.word	0x0040c7d0
  409eb8:	0040c898 	.word	0x0040c898
  409ebc:	40240000 	.word	0x40240000
  409ec0:	3fe00000 	.word	0x3fe00000
  409ec4:	401c0000 	.word	0x401c0000

00409ec8 <__sflush_r>:
  409ec8:	898b      	ldrh	r3, [r1, #12]
  409eca:	e92d 41f0 	stmdb	sp!, {r4, r5, r6, r7, r8, lr}
  409ece:	b29a      	uxth	r2, r3
  409ed0:	460d      	mov	r5, r1
  409ed2:	0711      	lsls	r1, r2, #28
  409ed4:	4680      	mov	r8, r0
  409ed6:	d43c      	bmi.n	409f52 <__sflush_r+0x8a>
  409ed8:	686a      	ldr	r2, [r5, #4]
  409eda:	f443 6300 	orr.w	r3, r3, #2048	; 0x800
  409ede:	2a00      	cmp	r2, #0
  409ee0:	81ab      	strh	r3, [r5, #12]
  409ee2:	dd59      	ble.n	409f98 <__sflush_r+0xd0>
  409ee4:	6aac      	ldr	r4, [r5, #40]	; 0x28
  409ee6:	2c00      	cmp	r4, #0
  409ee8:	d04b      	beq.n	409f82 <__sflush_r+0xba>
  409eea:	b29b      	uxth	r3, r3
  409eec:	f403 5280 	and.w	r2, r3, #4096	; 0x1000
  409ef0:	2100      	movs	r1, #0
  409ef2:	b292      	uxth	r2, r2
  409ef4:	f8d8 6000 	ldr.w	r6, [r8]
  409ef8:	f8c8 1000 	str.w	r1, [r8]
  409efc:	2a00      	cmp	r2, #0
  409efe:	d04f      	beq.n	409fa0 <__sflush_r+0xd8>
  409f00:	6d2a      	ldr	r2, [r5, #80]	; 0x50
  409f02:	075f      	lsls	r7, r3, #29
  409f04:	d505      	bpl.n	409f12 <__sflush_r+0x4a>
  409f06:	6869      	ldr	r1, [r5, #4]
  409f08:	6b2b      	ldr	r3, [r5, #48]	; 0x30
  409f0a:	1a52      	subs	r2, r2, r1
  409f0c:	b10b      	cbz	r3, 409f12 <__sflush_r+0x4a>
  409f0e:	6beb      	ldr	r3, [r5, #60]	; 0x3c
  409f10:	1ad2      	subs	r2, r2, r3
  409f12:	4640      	mov	r0, r8
  409f14:	69e9      	ldr	r1, [r5, #28]
  409f16:	2300      	movs	r3, #0
  409f18:	47a0      	blx	r4
  409f1a:	1c44      	adds	r4, r0, #1
  409f1c:	d04a      	beq.n	409fb4 <__sflush_r+0xec>
  409f1e:	89ab      	ldrh	r3, [r5, #12]
  409f20:	692a      	ldr	r2, [r5, #16]
  409f22:	f423 6300 	bic.w	r3, r3, #2048	; 0x800
  409f26:	b29b      	uxth	r3, r3
  409f28:	2100      	movs	r1, #0
  409f2a:	602a      	str	r2, [r5, #0]
  409f2c:	04da      	lsls	r2, r3, #19
  409f2e:	81ab      	strh	r3, [r5, #12]
  409f30:	6069      	str	r1, [r5, #4]
  409f32:	d44c      	bmi.n	409fce <__sflush_r+0x106>
  409f34:	6b29      	ldr	r1, [r5, #48]	; 0x30
  409f36:	f8c8 6000 	str.w	r6, [r8]
  409f3a:	b311      	cbz	r1, 409f82 <__sflush_r+0xba>
  409f3c:	f105 0340 	add.w	r3, r5, #64	; 0x40
  409f40:	4299      	cmp	r1, r3
  409f42:	d002      	beq.n	409f4a <__sflush_r+0x82>
  409f44:	4640      	mov	r0, r8
  409f46:	f000 f9c3 	bl	40a2d0 <_free_r>
  409f4a:	2000      	movs	r0, #0
  409f4c:	6328      	str	r0, [r5, #48]	; 0x30
  409f4e:	e8bd 81f0 	ldmia.w	sp!, {r4, r5, r6, r7, r8, pc}
  409f52:	692e      	ldr	r6, [r5, #16]
  409f54:	b1ae      	cbz	r6, 409f82 <__sflush_r+0xba>
  409f56:	0791      	lsls	r1, r2, #30
  409f58:	682c      	ldr	r4, [r5, #0]
  409f5a:	bf0c      	ite	eq
  409f5c:	696b      	ldreq	r3, [r5, #20]
  409f5e:	2300      	movne	r3, #0
  409f60:	602e      	str	r6, [r5, #0]
  409f62:	1ba4      	subs	r4, r4, r6
  409f64:	60ab      	str	r3, [r5, #8]
  409f66:	e00a      	b.n	409f7e <__sflush_r+0xb6>
  409f68:	4632      	mov	r2, r6
  409f6a:	4623      	mov	r3, r4
  409f6c:	6a6f      	ldr	r7, [r5, #36]	; 0x24
  409f6e:	4640      	mov	r0, r8
  409f70:	69e9      	ldr	r1, [r5, #28]
  409f72:	47b8      	blx	r7
  409f74:	2800      	cmp	r0, #0
  409f76:	ebc0 0404 	rsb	r4, r0, r4
  409f7a:	4406      	add	r6, r0
  409f7c:	dd04      	ble.n	409f88 <__sflush_r+0xc0>
  409f7e:	2c00      	cmp	r4, #0
  409f80:	dcf2      	bgt.n	409f68 <__sflush_r+0xa0>
  409f82:	2000      	movs	r0, #0
  409f84:	e8bd 81f0 	ldmia.w	sp!, {r4, r5, r6, r7, r8, pc}
  409f88:	89ab      	ldrh	r3, [r5, #12]
  409f8a:	f04f 30ff 	mov.w	r0, #4294967295
  409f8e:	f043 0340 	orr.w	r3, r3, #64	; 0x40
  409f92:	81ab      	strh	r3, [r5, #12]
  409f94:	e8bd 81f0 	ldmia.w	sp!, {r4, r5, r6, r7, r8, pc}
  409f98:	6bea      	ldr	r2, [r5, #60]	; 0x3c
  409f9a:	2a00      	cmp	r2, #0
  409f9c:	dca2      	bgt.n	409ee4 <__sflush_r+0x1c>
  409f9e:	e7f0      	b.n	409f82 <__sflush_r+0xba>
  409fa0:	2301      	movs	r3, #1
  409fa2:	4640      	mov	r0, r8
  409fa4:	69e9      	ldr	r1, [r5, #28]
  409fa6:	47a0      	blx	r4
  409fa8:	1c43      	adds	r3, r0, #1
  409faa:	4602      	mov	r2, r0
  409fac:	d01e      	beq.n	409fec <__sflush_r+0x124>
  409fae:	89ab      	ldrh	r3, [r5, #12]
  409fb0:	6aac      	ldr	r4, [r5, #40]	; 0x28
  409fb2:	e7a6      	b.n	409f02 <__sflush_r+0x3a>
  409fb4:	f8d8 3000 	ldr.w	r3, [r8]
  409fb8:	b95b      	cbnz	r3, 409fd2 <__sflush_r+0x10a>
  409fba:	89aa      	ldrh	r2, [r5, #12]
  409fbc:	6929      	ldr	r1, [r5, #16]
  409fbe:	f422 6200 	bic.w	r2, r2, #2048	; 0x800
  409fc2:	b292      	uxth	r2, r2
  409fc4:	606b      	str	r3, [r5, #4]
  409fc6:	04d3      	lsls	r3, r2, #19
  409fc8:	81aa      	strh	r2, [r5, #12]
  409fca:	6029      	str	r1, [r5, #0]
  409fcc:	d5b2      	bpl.n	409f34 <__sflush_r+0x6c>
  409fce:	6528      	str	r0, [r5, #80]	; 0x50
  409fd0:	e7b0      	b.n	409f34 <__sflush_r+0x6c>
  409fd2:	2b1d      	cmp	r3, #29
  409fd4:	d001      	beq.n	409fda <__sflush_r+0x112>
  409fd6:	2b16      	cmp	r3, #22
  409fd8:	d113      	bne.n	40a002 <__sflush_r+0x13a>
  409fda:	89a9      	ldrh	r1, [r5, #12]
  409fdc:	692b      	ldr	r3, [r5, #16]
  409fde:	f421 6100 	bic.w	r1, r1, #2048	; 0x800
  409fe2:	2200      	movs	r2, #0
  409fe4:	81a9      	strh	r1, [r5, #12]
  409fe6:	602b      	str	r3, [r5, #0]
  409fe8:	606a      	str	r2, [r5, #4]
  409fea:	e7a3      	b.n	409f34 <__sflush_r+0x6c>
  409fec:	f8d8 3000 	ldr.w	r3, [r8]
  409ff0:	2b00      	cmp	r3, #0
  409ff2:	d0dc      	beq.n	409fae <__sflush_r+0xe6>
  409ff4:	2b1d      	cmp	r3, #29
  409ff6:	d001      	beq.n	409ffc <__sflush_r+0x134>
  409ff8:	2b16      	cmp	r3, #22
  409ffa:	d1c5      	bne.n	409f88 <__sflush_r+0xc0>
  409ffc:	f8c8 6000 	str.w	r6, [r8]
  40a000:	e7bf      	b.n	409f82 <__sflush_r+0xba>
  40a002:	89ab      	ldrh	r3, [r5, #12]
  40a004:	f043 0340 	orr.w	r3, r3, #64	; 0x40
  40a008:	81ab      	strh	r3, [r5, #12]
  40a00a:	e8bd 81f0 	ldmia.w	sp!, {r4, r5, r6, r7, r8, pc}
  40a00e:	bf00      	nop

0040a010 <_fflush_r>:
  40a010:	b510      	push	{r4, lr}
  40a012:	4604      	mov	r4, r0
  40a014:	b082      	sub	sp, #8
  40a016:	b108      	cbz	r0, 40a01c <_fflush_r+0xc>
  40a018:	6b83      	ldr	r3, [r0, #56]	; 0x38
  40a01a:	b153      	cbz	r3, 40a032 <_fflush_r+0x22>
  40a01c:	f9b1 000c 	ldrsh.w	r0, [r1, #12]
  40a020:	b908      	cbnz	r0, 40a026 <_fflush_r+0x16>
  40a022:	b002      	add	sp, #8
  40a024:	bd10      	pop	{r4, pc}
  40a026:	4620      	mov	r0, r4
  40a028:	b002      	add	sp, #8
  40a02a:	e8bd 4010 	ldmia.w	sp!, {r4, lr}
  40a02e:	f7ff bf4b 	b.w	409ec8 <__sflush_r>
  40a032:	9101      	str	r1, [sp, #4]
  40a034:	f000 f808 	bl	40a048 <__sinit>
  40a038:	9901      	ldr	r1, [sp, #4]
  40a03a:	e7ef      	b.n	40a01c <_fflush_r+0xc>

0040a03c <_cleanup_r>:
  40a03c:	4901      	ldr	r1, [pc, #4]	; (40a044 <_cleanup_r+0x8>)
  40a03e:	f000 bb9f 	b.w	40a780 <_fwalk>
  40a042:	bf00      	nop
  40a044:	0040b4f5 	.word	0x0040b4f5

0040a048 <__sinit>:
  40a048:	e92d 4ff0 	stmdb	sp!, {r4, r5, r6, r7, r8, r9, sl, fp, lr}
  40a04c:	6b84      	ldr	r4, [r0, #56]	; 0x38
  40a04e:	b083      	sub	sp, #12
  40a050:	4607      	mov	r7, r0
  40a052:	2c00      	cmp	r4, #0
  40a054:	d165      	bne.n	40a122 <__sinit+0xda>
  40a056:	687d      	ldr	r5, [r7, #4]
  40a058:	4833      	ldr	r0, [pc, #204]	; (40a128 <__sinit+0xe0>)
  40a05a:	2304      	movs	r3, #4
  40a05c:	2103      	movs	r1, #3
  40a05e:	f507 723b 	add.w	r2, r7, #748	; 0x2ec
  40a062:	63f8      	str	r0, [r7, #60]	; 0x3c
  40a064:	f8c7 12e4 	str.w	r1, [r7, #740]	; 0x2e4
  40a068:	f8c7 22e8 	str.w	r2, [r7, #744]	; 0x2e8
  40a06c:	f8c7 42e0 	str.w	r4, [r7, #736]	; 0x2e0
  40a070:	f105 005c 	add.w	r0, r5, #92	; 0x5c
  40a074:	81ab      	strh	r3, [r5, #12]
  40a076:	602c      	str	r4, [r5, #0]
  40a078:	606c      	str	r4, [r5, #4]
  40a07a:	60ac      	str	r4, [r5, #8]
  40a07c:	666c      	str	r4, [r5, #100]	; 0x64
  40a07e:	81ec      	strh	r4, [r5, #14]
  40a080:	612c      	str	r4, [r5, #16]
  40a082:	616c      	str	r4, [r5, #20]
  40a084:	61ac      	str	r4, [r5, #24]
  40a086:	4621      	mov	r1, r4
  40a088:	2208      	movs	r2, #8
  40a08a:	f7fc fa69 	bl	406560 <memset>
  40a08e:	f8df b09c 	ldr.w	fp, [pc, #156]	; 40a12c <__sinit+0xe4>
  40a092:	68be      	ldr	r6, [r7, #8]
  40a094:	f8df a098 	ldr.w	sl, [pc, #152]	; 40a130 <__sinit+0xe8>
  40a098:	f8df 9098 	ldr.w	r9, [pc, #152]	; 40a134 <__sinit+0xec>
  40a09c:	f8df 8098 	ldr.w	r8, [pc, #152]	; 40a138 <__sinit+0xf0>
  40a0a0:	2301      	movs	r3, #1
  40a0a2:	2209      	movs	r2, #9
  40a0a4:	61ed      	str	r5, [r5, #28]
  40a0a6:	f8c5 b020 	str.w	fp, [r5, #32]
  40a0aa:	f8c5 a024 	str.w	sl, [r5, #36]	; 0x24
  40a0ae:	f8c5 9028 	str.w	r9, [r5, #40]	; 0x28
  40a0b2:	f8c5 802c 	str.w	r8, [r5, #44]	; 0x2c
  40a0b6:	4621      	mov	r1, r4
  40a0b8:	81f3      	strh	r3, [r6, #14]
  40a0ba:	81b2      	strh	r2, [r6, #12]
  40a0bc:	6034      	str	r4, [r6, #0]
  40a0be:	6074      	str	r4, [r6, #4]
  40a0c0:	60b4      	str	r4, [r6, #8]
  40a0c2:	6674      	str	r4, [r6, #100]	; 0x64
  40a0c4:	6134      	str	r4, [r6, #16]
  40a0c6:	6174      	str	r4, [r6, #20]
  40a0c8:	61b4      	str	r4, [r6, #24]
  40a0ca:	2208      	movs	r2, #8
  40a0cc:	f106 005c 	add.w	r0, r6, #92	; 0x5c
  40a0d0:	9301      	str	r3, [sp, #4]
  40a0d2:	f7fc fa45 	bl	406560 <memset>
  40a0d6:	68fd      	ldr	r5, [r7, #12]
  40a0d8:	2012      	movs	r0, #18
  40a0da:	2202      	movs	r2, #2
  40a0dc:	61f6      	str	r6, [r6, #28]
  40a0de:	f8c6 b020 	str.w	fp, [r6, #32]
  40a0e2:	f8c6 a024 	str.w	sl, [r6, #36]	; 0x24
  40a0e6:	f8c6 9028 	str.w	r9, [r6, #40]	; 0x28
  40a0ea:	f8c6 802c 	str.w	r8, [r6, #44]	; 0x2c
  40a0ee:	4621      	mov	r1, r4
  40a0f0:	81a8      	strh	r0, [r5, #12]
  40a0f2:	81ea      	strh	r2, [r5, #14]
  40a0f4:	602c      	str	r4, [r5, #0]
  40a0f6:	606c      	str	r4, [r5, #4]
  40a0f8:	60ac      	str	r4, [r5, #8]
  40a0fa:	666c      	str	r4, [r5, #100]	; 0x64
  40a0fc:	612c      	str	r4, [r5, #16]
  40a0fe:	616c      	str	r4, [r5, #20]
  40a100:	61ac      	str	r4, [r5, #24]
  40a102:	f105 005c 	add.w	r0, r5, #92	; 0x5c
  40a106:	2208      	movs	r2, #8
  40a108:	f7fc fa2a 	bl	406560 <memset>
  40a10c:	9b01      	ldr	r3, [sp, #4]
  40a10e:	61ed      	str	r5, [r5, #28]
  40a110:	f8c5 b020 	str.w	fp, [r5, #32]
  40a114:	f8c5 a024 	str.w	sl, [r5, #36]	; 0x24
  40a118:	f8c5 9028 	str.w	r9, [r5, #40]	; 0x28
  40a11c:	f8c5 802c 	str.w	r8, [r5, #44]	; 0x2c
  40a120:	63bb      	str	r3, [r7, #56]	; 0x38
  40a122:	b003      	add	sp, #12
  40a124:	e8bd 8ff0 	ldmia.w	sp!, {r4, r5, r6, r7, r8, r9, sl, fp, pc}
  40a128:	0040a03d 	.word	0x0040a03d
  40a12c:	0040b089 	.word	0x0040b089
  40a130:	0040b0ad 	.word	0x0040b0ad
  40a134:	0040b0e5 	.word	0x0040b0e5
  40a138:	0040b105 	.word	0x0040b105

0040a13c <__sfp_lock_acquire>:
  40a13c:	4770      	bx	lr
  40a13e:	bf00      	nop

0040a140 <__sfp_lock_release>:
  40a140:	4770      	bx	lr
  40a142:	bf00      	nop

0040a144 <__libc_fini_array>:
  40a144:	b538      	push	{r3, r4, r5, lr}
  40a146:	4d09      	ldr	r5, [pc, #36]	; (40a16c <__libc_fini_array+0x28>)
  40a148:	4c09      	ldr	r4, [pc, #36]	; (40a170 <__libc_fini_array+0x2c>)
  40a14a:	1b64      	subs	r4, r4, r5
  40a14c:	10a4      	asrs	r4, r4, #2
  40a14e:	bf18      	it	ne
  40a150:	eb05 0584 	addne.w	r5, r5, r4, lsl #2
  40a154:	d005      	beq.n	40a162 <__libc_fini_array+0x1e>
  40a156:	3c01      	subs	r4, #1
  40a158:	f855 3d04 	ldr.w	r3, [r5, #-4]!
  40a15c:	4798      	blx	r3
  40a15e:	2c00      	cmp	r4, #0
  40a160:	d1f9      	bne.n	40a156 <__libc_fini_array+0x12>
  40a162:	e8bd 4038 	ldmia.w	sp!, {r3, r4, r5, lr}
  40a166:	f002 bbbb 	b.w	40c8e0 <_fini>
  40a16a:	bf00      	nop
  40a16c:	0040c8ec 	.word	0x0040c8ec
  40a170:	0040c8f0 	.word	0x0040c8f0

0040a174 <_fputwc_r>:
  40a174:	e92d 41f0 	stmdb	sp!, {r4, r5, r6, r7, r8, lr}
  40a178:	8993      	ldrh	r3, [r2, #12]
  40a17a:	460f      	mov	r7, r1
  40a17c:	0499      	lsls	r1, r3, #18
  40a17e:	b082      	sub	sp, #8
  40a180:	4614      	mov	r4, r2
  40a182:	4680      	mov	r8, r0
  40a184:	d406      	bmi.n	40a194 <_fputwc_r+0x20>
  40a186:	6e52      	ldr	r2, [r2, #100]	; 0x64
  40a188:	f443 5300 	orr.w	r3, r3, #8192	; 0x2000
  40a18c:	f442 5200 	orr.w	r2, r2, #8192	; 0x2000
  40a190:	81a3      	strh	r3, [r4, #12]
  40a192:	6662      	str	r2, [r4, #100]	; 0x64
  40a194:	f000 fb1c 	bl	40a7d0 <__locale_mb_cur_max>
  40a198:	2801      	cmp	r0, #1
  40a19a:	d03e      	beq.n	40a21a <_fputwc_r+0xa6>
  40a19c:	463a      	mov	r2, r7
  40a19e:	4640      	mov	r0, r8
  40a1a0:	a901      	add	r1, sp, #4
  40a1a2:	f104 035c 	add.w	r3, r4, #92	; 0x5c
  40a1a6:	f001 f885 	bl	40b2b4 <_wcrtomb_r>
  40a1aa:	1c42      	adds	r2, r0, #1
  40a1ac:	4606      	mov	r6, r0
  40a1ae:	d02d      	beq.n	40a20c <_fputwc_r+0x98>
  40a1b0:	2800      	cmp	r0, #0
  40a1b2:	d03a      	beq.n	40a22a <_fputwc_r+0xb6>
  40a1b4:	f89d 1004 	ldrb.w	r1, [sp, #4]
  40a1b8:	2500      	movs	r5, #0
  40a1ba:	e009      	b.n	40a1d0 <_fputwc_r+0x5c>
  40a1bc:	6823      	ldr	r3, [r4, #0]
  40a1be:	7019      	strb	r1, [r3, #0]
  40a1c0:	6823      	ldr	r3, [r4, #0]
  40a1c2:	3301      	adds	r3, #1
  40a1c4:	6023      	str	r3, [r4, #0]
  40a1c6:	3501      	adds	r5, #1
  40a1c8:	42b5      	cmp	r5, r6
  40a1ca:	d22e      	bcs.n	40a22a <_fputwc_r+0xb6>
  40a1cc:	ab01      	add	r3, sp, #4
  40a1ce:	5ce9      	ldrb	r1, [r5, r3]
  40a1d0:	68a3      	ldr	r3, [r4, #8]
  40a1d2:	3b01      	subs	r3, #1
  40a1d4:	2b00      	cmp	r3, #0
  40a1d6:	60a3      	str	r3, [r4, #8]
  40a1d8:	daf0      	bge.n	40a1bc <_fputwc_r+0x48>
  40a1da:	69a2      	ldr	r2, [r4, #24]
  40a1dc:	4293      	cmp	r3, r2
  40a1de:	db06      	blt.n	40a1ee <_fputwc_r+0x7a>
  40a1e0:	6823      	ldr	r3, [r4, #0]
  40a1e2:	7019      	strb	r1, [r3, #0]
  40a1e4:	6823      	ldr	r3, [r4, #0]
  40a1e6:	7819      	ldrb	r1, [r3, #0]
  40a1e8:	3301      	adds	r3, #1
  40a1ea:	290a      	cmp	r1, #10
  40a1ec:	d1ea      	bne.n	40a1c4 <_fputwc_r+0x50>
  40a1ee:	4640      	mov	r0, r8
  40a1f0:	4622      	mov	r2, r4
  40a1f2:	f001 f80b 	bl	40b20c <__swbuf_r>
  40a1f6:	f1b0 33ff 	subs.w	r3, r0, #4294967295
  40a1fa:	4258      	negs	r0, r3
  40a1fc:	4158      	adcs	r0, r3
  40a1fe:	2800      	cmp	r0, #0
  40a200:	d0e1      	beq.n	40a1c6 <_fputwc_r+0x52>
  40a202:	f04f 30ff 	mov.w	r0, #4294967295
  40a206:	b002      	add	sp, #8
  40a208:	e8bd 81f0 	ldmia.w	sp!, {r4, r5, r6, r7, r8, pc}
  40a20c:	89a3      	ldrh	r3, [r4, #12]
  40a20e:	f043 0340 	orr.w	r3, r3, #64	; 0x40
  40a212:	81a3      	strh	r3, [r4, #12]
  40a214:	b002      	add	sp, #8
  40a216:	e8bd 81f0 	ldmia.w	sp!, {r4, r5, r6, r7, r8, pc}
  40a21a:	1e7b      	subs	r3, r7, #1
  40a21c:	2bfe      	cmp	r3, #254	; 0xfe
  40a21e:	d8bd      	bhi.n	40a19c <_fputwc_r+0x28>
  40a220:	b2f9      	uxtb	r1, r7
  40a222:	4606      	mov	r6, r0
  40a224:	f88d 1004 	strb.w	r1, [sp, #4]
  40a228:	e7c6      	b.n	40a1b8 <_fputwc_r+0x44>
  40a22a:	4638      	mov	r0, r7
  40a22c:	b002      	add	sp, #8
  40a22e:	e8bd 81f0 	ldmia.w	sp!, {r4, r5, r6, r7, r8, pc}
  40a232:	bf00      	nop

0040a234 <_malloc_trim_r>:
  40a234:	b5f8      	push	{r3, r4, r5, r6, r7, lr}
  40a236:	4d23      	ldr	r5, [pc, #140]	; (40a2c4 <_malloc_trim_r+0x90>)
  40a238:	460f      	mov	r7, r1
  40a23a:	4604      	mov	r4, r0
  40a23c:	f7fc f9da 	bl	4065f4 <__malloc_lock>
  40a240:	68ab      	ldr	r3, [r5, #8]
  40a242:	685e      	ldr	r6, [r3, #4]
  40a244:	f026 0603 	bic.w	r6, r6, #3
  40a248:	1bf1      	subs	r1, r6, r7
  40a24a:	f601 71ef 	addw	r1, r1, #4079	; 0xfef
  40a24e:	f421 617f 	bic.w	r1, r1, #4080	; 0xff0
  40a252:	f021 010f 	bic.w	r1, r1, #15
  40a256:	f5a1 5780 	sub.w	r7, r1, #4096	; 0x1000
  40a25a:	f5b7 5f80 	cmp.w	r7, #4096	; 0x1000
  40a25e:	db07      	blt.n	40a270 <_malloc_trim_r+0x3c>
  40a260:	4620      	mov	r0, r4
  40a262:	2100      	movs	r1, #0
  40a264:	f7fc fbaa 	bl	4069bc <_sbrk_r>
  40a268:	68ab      	ldr	r3, [r5, #8]
  40a26a:	4433      	add	r3, r6
  40a26c:	4298      	cmp	r0, r3
  40a26e:	d004      	beq.n	40a27a <_malloc_trim_r+0x46>
  40a270:	4620      	mov	r0, r4
  40a272:	f7fc f9c1 	bl	4065f8 <__malloc_unlock>
  40a276:	2000      	movs	r0, #0
  40a278:	bdf8      	pop	{r3, r4, r5, r6, r7, pc}
  40a27a:	4620      	mov	r0, r4
  40a27c:	4279      	negs	r1, r7
  40a27e:	f7fc fb9d 	bl	4069bc <_sbrk_r>
  40a282:	3001      	adds	r0, #1
  40a284:	d00d      	beq.n	40a2a2 <_malloc_trim_r+0x6e>
  40a286:	4b10      	ldr	r3, [pc, #64]	; (40a2c8 <_malloc_trim_r+0x94>)
  40a288:	68aa      	ldr	r2, [r5, #8]
  40a28a:	6819      	ldr	r1, [r3, #0]
  40a28c:	1bf6      	subs	r6, r6, r7
  40a28e:	f046 0601 	orr.w	r6, r6, #1
  40a292:	4620      	mov	r0, r4
  40a294:	1bc9      	subs	r1, r1, r7
  40a296:	6056      	str	r6, [r2, #4]
  40a298:	6019      	str	r1, [r3, #0]
  40a29a:	f7fc f9ad 	bl	4065f8 <__malloc_unlock>
  40a29e:	2001      	movs	r0, #1
  40a2a0:	bdf8      	pop	{r3, r4, r5, r6, r7, pc}
  40a2a2:	4620      	mov	r0, r4
  40a2a4:	2100      	movs	r1, #0
  40a2a6:	f7fc fb89 	bl	4069bc <_sbrk_r>
  40a2aa:	68ab      	ldr	r3, [r5, #8]
  40a2ac:	1ac2      	subs	r2, r0, r3
  40a2ae:	2a0f      	cmp	r2, #15
  40a2b0:	ddde      	ble.n	40a270 <_malloc_trim_r+0x3c>
  40a2b2:	4d06      	ldr	r5, [pc, #24]	; (40a2cc <_malloc_trim_r+0x98>)
  40a2b4:	4904      	ldr	r1, [pc, #16]	; (40a2c8 <_malloc_trim_r+0x94>)
  40a2b6:	682d      	ldr	r5, [r5, #0]
  40a2b8:	f042 0201 	orr.w	r2, r2, #1
  40a2bc:	1b40      	subs	r0, r0, r5
  40a2be:	605a      	str	r2, [r3, #4]
  40a2c0:	6008      	str	r0, [r1, #0]
  40a2c2:	e7d5      	b.n	40a270 <_malloc_trim_r+0x3c>
  40a2c4:	2000050c 	.word	0x2000050c
  40a2c8:	20003e0c 	.word	0x20003e0c
  40a2cc:	20000918 	.word	0x20000918

0040a2d0 <_free_r>:
  40a2d0:	e92d 41f0 	stmdb	sp!, {r4, r5, r6, r7, r8, lr}
  40a2d4:	460d      	mov	r5, r1
  40a2d6:	4606      	mov	r6, r0
  40a2d8:	2900      	cmp	r1, #0
  40a2da:	d055      	beq.n	40a388 <_free_r+0xb8>
  40a2dc:	f7fc f98a 	bl	4065f4 <__malloc_lock>
  40a2e0:	f855 1c04 	ldr.w	r1, [r5, #-4]
  40a2e4:	f8df c170 	ldr.w	ip, [pc, #368]	; 40a458 <_free_r+0x188>
  40a2e8:	f1a5 0408 	sub.w	r4, r5, #8
  40a2ec:	f021 0301 	bic.w	r3, r1, #1
  40a2f0:	18e2      	adds	r2, r4, r3
  40a2f2:	f8dc 0008 	ldr.w	r0, [ip, #8]
  40a2f6:	6857      	ldr	r7, [r2, #4]
  40a2f8:	4290      	cmp	r0, r2
  40a2fa:	f027 0703 	bic.w	r7, r7, #3
  40a2fe:	d068      	beq.n	40a3d2 <_free_r+0x102>
  40a300:	f011 0101 	ands.w	r1, r1, #1
  40a304:	6057      	str	r7, [r2, #4]
  40a306:	d032      	beq.n	40a36e <_free_r+0x9e>
  40a308:	2100      	movs	r1, #0
  40a30a:	19d0      	adds	r0, r2, r7
  40a30c:	6840      	ldr	r0, [r0, #4]
  40a30e:	07c0      	lsls	r0, r0, #31
  40a310:	d406      	bmi.n	40a320 <_free_r+0x50>
  40a312:	443b      	add	r3, r7
  40a314:	6890      	ldr	r0, [r2, #8]
  40a316:	2900      	cmp	r1, #0
  40a318:	d04d      	beq.n	40a3b6 <_free_r+0xe6>
  40a31a:	68d2      	ldr	r2, [r2, #12]
  40a31c:	60c2      	str	r2, [r0, #12]
  40a31e:	6090      	str	r0, [r2, #8]
  40a320:	f043 0201 	orr.w	r2, r3, #1
  40a324:	6062      	str	r2, [r4, #4]
  40a326:	50e3      	str	r3, [r4, r3]
  40a328:	b9e1      	cbnz	r1, 40a364 <_free_r+0x94>
  40a32a:	f5b3 7f00 	cmp.w	r3, #512	; 0x200
  40a32e:	d32d      	bcc.n	40a38c <_free_r+0xbc>
  40a330:	0a5a      	lsrs	r2, r3, #9
  40a332:	2a04      	cmp	r2, #4
  40a334:	d869      	bhi.n	40a40a <_free_r+0x13a>
  40a336:	0998      	lsrs	r0, r3, #6
  40a338:	3038      	adds	r0, #56	; 0x38
  40a33a:	0041      	lsls	r1, r0, #1
  40a33c:	eb0c 0c81 	add.w	ip, ip, r1, lsl #2
  40a340:	f8dc 2008 	ldr.w	r2, [ip, #8]
  40a344:	4944      	ldr	r1, [pc, #272]	; (40a458 <_free_r+0x188>)
  40a346:	4562      	cmp	r2, ip
  40a348:	d065      	beq.n	40a416 <_free_r+0x146>
  40a34a:	6851      	ldr	r1, [r2, #4]
  40a34c:	f021 0103 	bic.w	r1, r1, #3
  40a350:	428b      	cmp	r3, r1
  40a352:	d202      	bcs.n	40a35a <_free_r+0x8a>
  40a354:	6892      	ldr	r2, [r2, #8]
  40a356:	4594      	cmp	ip, r2
  40a358:	d1f7      	bne.n	40a34a <_free_r+0x7a>
  40a35a:	68d3      	ldr	r3, [r2, #12]
  40a35c:	60e3      	str	r3, [r4, #12]
  40a35e:	60a2      	str	r2, [r4, #8]
  40a360:	609c      	str	r4, [r3, #8]
  40a362:	60d4      	str	r4, [r2, #12]
  40a364:	4630      	mov	r0, r6
  40a366:	e8bd 41f0 	ldmia.w	sp!, {r4, r5, r6, r7, r8, lr}
  40a36a:	f7fc b945 	b.w	4065f8 <__malloc_unlock>
  40a36e:	f855 5c08 	ldr.w	r5, [r5, #-8]
  40a372:	f10c 0808 	add.w	r8, ip, #8
  40a376:	1b64      	subs	r4, r4, r5
  40a378:	68a0      	ldr	r0, [r4, #8]
  40a37a:	442b      	add	r3, r5
  40a37c:	4540      	cmp	r0, r8
  40a37e:	d042      	beq.n	40a406 <_free_r+0x136>
  40a380:	68e5      	ldr	r5, [r4, #12]
  40a382:	60c5      	str	r5, [r0, #12]
  40a384:	60a8      	str	r0, [r5, #8]
  40a386:	e7c0      	b.n	40a30a <_free_r+0x3a>
  40a388:	e8bd 81f0 	ldmia.w	sp!, {r4, r5, r6, r7, r8, pc}
  40a38c:	08db      	lsrs	r3, r3, #3
  40a38e:	109a      	asrs	r2, r3, #2
  40a390:	2001      	movs	r0, #1
  40a392:	4090      	lsls	r0, r2
  40a394:	f8dc 1004 	ldr.w	r1, [ip, #4]
  40a398:	eb0c 03c3 	add.w	r3, ip, r3, lsl #3
  40a39c:	689a      	ldr	r2, [r3, #8]
  40a39e:	4301      	orrs	r1, r0
  40a3a0:	60a2      	str	r2, [r4, #8]
  40a3a2:	60e3      	str	r3, [r4, #12]
  40a3a4:	f8cc 1004 	str.w	r1, [ip, #4]
  40a3a8:	4630      	mov	r0, r6
  40a3aa:	609c      	str	r4, [r3, #8]
  40a3ac:	60d4      	str	r4, [r2, #12]
  40a3ae:	e8bd 41f0 	ldmia.w	sp!, {r4, r5, r6, r7, r8, lr}
  40a3b2:	f7fc b921 	b.w	4065f8 <__malloc_unlock>
  40a3b6:	4d29      	ldr	r5, [pc, #164]	; (40a45c <_free_r+0x18c>)
  40a3b8:	42a8      	cmp	r0, r5
  40a3ba:	d1ae      	bne.n	40a31a <_free_r+0x4a>
  40a3bc:	f043 0201 	orr.w	r2, r3, #1
  40a3c0:	f8cc 4014 	str.w	r4, [ip, #20]
  40a3c4:	f8cc 4010 	str.w	r4, [ip, #16]
  40a3c8:	60e0      	str	r0, [r4, #12]
  40a3ca:	60a0      	str	r0, [r4, #8]
  40a3cc:	6062      	str	r2, [r4, #4]
  40a3ce:	50e3      	str	r3, [r4, r3]
  40a3d0:	e7c8      	b.n	40a364 <_free_r+0x94>
  40a3d2:	441f      	add	r7, r3
  40a3d4:	07cb      	lsls	r3, r1, #31
  40a3d6:	d407      	bmi.n	40a3e8 <_free_r+0x118>
  40a3d8:	f855 1c08 	ldr.w	r1, [r5, #-8]
  40a3dc:	1a64      	subs	r4, r4, r1
  40a3de:	68e3      	ldr	r3, [r4, #12]
  40a3e0:	68a2      	ldr	r2, [r4, #8]
  40a3e2:	440f      	add	r7, r1
  40a3e4:	60d3      	str	r3, [r2, #12]
  40a3e6:	609a      	str	r2, [r3, #8]
  40a3e8:	4b1d      	ldr	r3, [pc, #116]	; (40a460 <_free_r+0x190>)
  40a3ea:	f047 0201 	orr.w	r2, r7, #1
  40a3ee:	681b      	ldr	r3, [r3, #0]
  40a3f0:	6062      	str	r2, [r4, #4]
  40a3f2:	429f      	cmp	r7, r3
  40a3f4:	f8cc 4008 	str.w	r4, [ip, #8]
  40a3f8:	d3b4      	bcc.n	40a364 <_free_r+0x94>
  40a3fa:	4b1a      	ldr	r3, [pc, #104]	; (40a464 <_free_r+0x194>)
  40a3fc:	4630      	mov	r0, r6
  40a3fe:	6819      	ldr	r1, [r3, #0]
  40a400:	f7ff ff18 	bl	40a234 <_malloc_trim_r>
  40a404:	e7ae      	b.n	40a364 <_free_r+0x94>
  40a406:	2101      	movs	r1, #1
  40a408:	e77f      	b.n	40a30a <_free_r+0x3a>
  40a40a:	2a14      	cmp	r2, #20
  40a40c:	d80b      	bhi.n	40a426 <_free_r+0x156>
  40a40e:	f102 005b 	add.w	r0, r2, #91	; 0x5b
  40a412:	0041      	lsls	r1, r0, #1
  40a414:	e792      	b.n	40a33c <_free_r+0x6c>
  40a416:	1080      	asrs	r0, r0, #2
  40a418:	2501      	movs	r5, #1
  40a41a:	4085      	lsls	r5, r0
  40a41c:	6848      	ldr	r0, [r1, #4]
  40a41e:	4613      	mov	r3, r2
  40a420:	4328      	orrs	r0, r5
  40a422:	6048      	str	r0, [r1, #4]
  40a424:	e79a      	b.n	40a35c <_free_r+0x8c>
  40a426:	2a54      	cmp	r2, #84	; 0x54
  40a428:	d803      	bhi.n	40a432 <_free_r+0x162>
  40a42a:	0b18      	lsrs	r0, r3, #12
  40a42c:	306e      	adds	r0, #110	; 0x6e
  40a42e:	0041      	lsls	r1, r0, #1
  40a430:	e784      	b.n	40a33c <_free_r+0x6c>
  40a432:	f5b2 7faa 	cmp.w	r2, #340	; 0x154
  40a436:	d803      	bhi.n	40a440 <_free_r+0x170>
  40a438:	0bd8      	lsrs	r0, r3, #15
  40a43a:	3077      	adds	r0, #119	; 0x77
  40a43c:	0041      	lsls	r1, r0, #1
  40a43e:	e77d      	b.n	40a33c <_free_r+0x6c>
  40a440:	f240 5154 	movw	r1, #1364	; 0x554
  40a444:	428a      	cmp	r2, r1
  40a446:	d803      	bhi.n	40a450 <_free_r+0x180>
  40a448:	0c98      	lsrs	r0, r3, #18
  40a44a:	307c      	adds	r0, #124	; 0x7c
  40a44c:	0041      	lsls	r1, r0, #1
  40a44e:	e775      	b.n	40a33c <_free_r+0x6c>
  40a450:	21fc      	movs	r1, #252	; 0xfc
  40a452:	207e      	movs	r0, #126	; 0x7e
  40a454:	e772      	b.n	40a33c <_free_r+0x6c>
  40a456:	bf00      	nop
  40a458:	2000050c 	.word	0x2000050c
  40a45c:	20000514 	.word	0x20000514
  40a460:	20000914 	.word	0x20000914
  40a464:	20003e08 	.word	0x20003e08

0040a468 <__sfvwrite_r>:
  40a468:	e92d 4ff0 	stmdb	sp!, {r4, r5, r6, r7, r8, r9, sl, fp, lr}
  40a46c:	6893      	ldr	r3, [r2, #8]
  40a46e:	b083      	sub	sp, #12
  40a470:	4616      	mov	r6, r2
  40a472:	4681      	mov	r9, r0
  40a474:	460c      	mov	r4, r1
  40a476:	b32b      	cbz	r3, 40a4c4 <__sfvwrite_r+0x5c>
  40a478:	898b      	ldrh	r3, [r1, #12]
  40a47a:	0719      	lsls	r1, r3, #28
  40a47c:	d526      	bpl.n	40a4cc <__sfvwrite_r+0x64>
  40a47e:	6922      	ldr	r2, [r4, #16]
  40a480:	b322      	cbz	r2, 40a4cc <__sfvwrite_r+0x64>
  40a482:	f003 0202 	and.w	r2, r3, #2
  40a486:	b292      	uxth	r2, r2
  40a488:	6835      	ldr	r5, [r6, #0]
  40a48a:	2a00      	cmp	r2, #0
  40a48c:	d02c      	beq.n	40a4e8 <__sfvwrite_r+0x80>
  40a48e:	f04f 0a00 	mov.w	sl, #0
  40a492:	f8df b2e8 	ldr.w	fp, [pc, #744]	; 40a77c <__sfvwrite_r+0x314>
  40a496:	46d0      	mov	r8, sl
  40a498:	45d8      	cmp	r8, fp
  40a49a:	bf34      	ite	cc
  40a49c:	4643      	movcc	r3, r8
  40a49e:	465b      	movcs	r3, fp
  40a4a0:	4652      	mov	r2, sl
  40a4a2:	4648      	mov	r0, r9
  40a4a4:	f1b8 0f00 	cmp.w	r8, #0
  40a4a8:	d04f      	beq.n	40a54a <__sfvwrite_r+0xe2>
  40a4aa:	69e1      	ldr	r1, [r4, #28]
  40a4ac:	6a67      	ldr	r7, [r4, #36]	; 0x24
  40a4ae:	47b8      	blx	r7
  40a4b0:	2800      	cmp	r0, #0
  40a4b2:	dd56      	ble.n	40a562 <__sfvwrite_r+0xfa>
  40a4b4:	68b3      	ldr	r3, [r6, #8]
  40a4b6:	4482      	add	sl, r0
  40a4b8:	1a1b      	subs	r3, r3, r0
  40a4ba:	ebc0 0808 	rsb	r8, r0, r8
  40a4be:	60b3      	str	r3, [r6, #8]
  40a4c0:	2b00      	cmp	r3, #0
  40a4c2:	d1e9      	bne.n	40a498 <__sfvwrite_r+0x30>
  40a4c4:	2000      	movs	r0, #0
  40a4c6:	b003      	add	sp, #12
  40a4c8:	e8bd 8ff0 	ldmia.w	sp!, {r4, r5, r6, r7, r8, r9, sl, fp, pc}
  40a4cc:	4648      	mov	r0, r9
  40a4ce:	4621      	mov	r1, r4
  40a4d0:	f7fe fcd0 	bl	408e74 <__swsetup_r>
  40a4d4:	2800      	cmp	r0, #0
  40a4d6:	f040 8148 	bne.w	40a76a <__sfvwrite_r+0x302>
  40a4da:	89a3      	ldrh	r3, [r4, #12]
  40a4dc:	6835      	ldr	r5, [r6, #0]
  40a4de:	f003 0202 	and.w	r2, r3, #2
  40a4e2:	b292      	uxth	r2, r2
  40a4e4:	2a00      	cmp	r2, #0
  40a4e6:	d1d2      	bne.n	40a48e <__sfvwrite_r+0x26>
  40a4e8:	f013 0a01 	ands.w	sl, r3, #1
  40a4ec:	d142      	bne.n	40a574 <__sfvwrite_r+0x10c>
  40a4ee:	46d0      	mov	r8, sl
  40a4f0:	f1b8 0f00 	cmp.w	r8, #0
  40a4f4:	d023      	beq.n	40a53e <__sfvwrite_r+0xd6>
  40a4f6:	059a      	lsls	r2, r3, #22
  40a4f8:	68a7      	ldr	r7, [r4, #8]
  40a4fa:	d576      	bpl.n	40a5ea <__sfvwrite_r+0x182>
  40a4fc:	45b8      	cmp	r8, r7
  40a4fe:	f0c0 80a4 	bcc.w	40a64a <__sfvwrite_r+0x1e2>
  40a502:	f413 6f90 	tst.w	r3, #1152	; 0x480
  40a506:	f040 80b2 	bne.w	40a66e <__sfvwrite_r+0x206>
  40a50a:	6820      	ldr	r0, [r4, #0]
  40a50c:	46bb      	mov	fp, r7
  40a50e:	4651      	mov	r1, sl
  40a510:	465a      	mov	r2, fp
  40a512:	f000 fa21 	bl	40a958 <memmove>
  40a516:	68a2      	ldr	r2, [r4, #8]
  40a518:	6821      	ldr	r1, [r4, #0]
  40a51a:	1bd2      	subs	r2, r2, r7
  40a51c:	eb01 030b 	add.w	r3, r1, fp
  40a520:	60a2      	str	r2, [r4, #8]
  40a522:	6023      	str	r3, [r4, #0]
  40a524:	4642      	mov	r2, r8
  40a526:	68b3      	ldr	r3, [r6, #8]
  40a528:	4492      	add	sl, r2
  40a52a:	1a9b      	subs	r3, r3, r2
  40a52c:	ebc2 0808 	rsb	r8, r2, r8
  40a530:	60b3      	str	r3, [r6, #8]
  40a532:	2b00      	cmp	r3, #0
  40a534:	d0c6      	beq.n	40a4c4 <__sfvwrite_r+0x5c>
  40a536:	89a3      	ldrh	r3, [r4, #12]
  40a538:	f1b8 0f00 	cmp.w	r8, #0
  40a53c:	d1db      	bne.n	40a4f6 <__sfvwrite_r+0x8e>
  40a53e:	f8d5 a000 	ldr.w	sl, [r5]
  40a542:	f8d5 8004 	ldr.w	r8, [r5, #4]
  40a546:	3508      	adds	r5, #8
  40a548:	e7d2      	b.n	40a4f0 <__sfvwrite_r+0x88>
  40a54a:	f8d5 a000 	ldr.w	sl, [r5]
  40a54e:	f8d5 8004 	ldr.w	r8, [r5, #4]
  40a552:	3508      	adds	r5, #8
  40a554:	e7a0      	b.n	40a498 <__sfvwrite_r+0x30>
  40a556:	4648      	mov	r0, r9
  40a558:	4621      	mov	r1, r4
  40a55a:	f7ff fd59 	bl	40a010 <_fflush_r>
  40a55e:	2800      	cmp	r0, #0
  40a560:	d059      	beq.n	40a616 <__sfvwrite_r+0x1ae>
  40a562:	89a3      	ldrh	r3, [r4, #12]
  40a564:	f043 0340 	orr.w	r3, r3, #64	; 0x40
  40a568:	f04f 30ff 	mov.w	r0, #4294967295
  40a56c:	81a3      	strh	r3, [r4, #12]
  40a56e:	b003      	add	sp, #12
  40a570:	e8bd 8ff0 	ldmia.w	sp!, {r4, r5, r6, r7, r8, r9, sl, fp, pc}
  40a574:	4692      	mov	sl, r2
  40a576:	9201      	str	r2, [sp, #4]
  40a578:	4693      	mov	fp, r2
  40a57a:	4690      	mov	r8, r2
  40a57c:	f1b8 0f00 	cmp.w	r8, #0
  40a580:	d02b      	beq.n	40a5da <__sfvwrite_r+0x172>
  40a582:	9f01      	ldr	r7, [sp, #4]
  40a584:	2f00      	cmp	r7, #0
  40a586:	d064      	beq.n	40a652 <__sfvwrite_r+0x1ea>
  40a588:	6820      	ldr	r0, [r4, #0]
  40a58a:	6921      	ldr	r1, [r4, #16]
  40a58c:	45c2      	cmp	sl, r8
  40a58e:	bf34      	ite	cc
  40a590:	4653      	movcc	r3, sl
  40a592:	4643      	movcs	r3, r8
  40a594:	4288      	cmp	r0, r1
  40a596:	461f      	mov	r7, r3
  40a598:	f8d4 c008 	ldr.w	ip, [r4, #8]
  40a59c:	6962      	ldr	r2, [r4, #20]
  40a59e:	d903      	bls.n	40a5a8 <__sfvwrite_r+0x140>
  40a5a0:	4494      	add	ip, r2
  40a5a2:	4563      	cmp	r3, ip
  40a5a4:	f300 80ae 	bgt.w	40a704 <__sfvwrite_r+0x29c>
  40a5a8:	4293      	cmp	r3, r2
  40a5aa:	db36      	blt.n	40a61a <__sfvwrite_r+0x1b2>
  40a5ac:	4613      	mov	r3, r2
  40a5ae:	6a67      	ldr	r7, [r4, #36]	; 0x24
  40a5b0:	4648      	mov	r0, r9
  40a5b2:	69e1      	ldr	r1, [r4, #28]
  40a5b4:	465a      	mov	r2, fp
  40a5b6:	47b8      	blx	r7
  40a5b8:	1e07      	subs	r7, r0, #0
  40a5ba:	ddd2      	ble.n	40a562 <__sfvwrite_r+0xfa>
  40a5bc:	ebba 0a07 	subs.w	sl, sl, r7
  40a5c0:	d03a      	beq.n	40a638 <__sfvwrite_r+0x1d0>
  40a5c2:	68b3      	ldr	r3, [r6, #8]
  40a5c4:	44bb      	add	fp, r7
  40a5c6:	1bdb      	subs	r3, r3, r7
  40a5c8:	ebc7 0808 	rsb	r8, r7, r8
  40a5cc:	60b3      	str	r3, [r6, #8]
  40a5ce:	2b00      	cmp	r3, #0
  40a5d0:	f43f af78 	beq.w	40a4c4 <__sfvwrite_r+0x5c>
  40a5d4:	f1b8 0f00 	cmp.w	r8, #0
  40a5d8:	d1d3      	bne.n	40a582 <__sfvwrite_r+0x11a>
  40a5da:	2700      	movs	r7, #0
  40a5dc:	f8d5 b000 	ldr.w	fp, [r5]
  40a5e0:	f8d5 8004 	ldr.w	r8, [r5, #4]
  40a5e4:	9701      	str	r7, [sp, #4]
  40a5e6:	3508      	adds	r5, #8
  40a5e8:	e7c8      	b.n	40a57c <__sfvwrite_r+0x114>
  40a5ea:	6820      	ldr	r0, [r4, #0]
  40a5ec:	6923      	ldr	r3, [r4, #16]
  40a5ee:	4298      	cmp	r0, r3
  40a5f0:	d802      	bhi.n	40a5f8 <__sfvwrite_r+0x190>
  40a5f2:	6963      	ldr	r3, [r4, #20]
  40a5f4:	4598      	cmp	r8, r3
  40a5f6:	d272      	bcs.n	40a6de <__sfvwrite_r+0x276>
  40a5f8:	45b8      	cmp	r8, r7
  40a5fa:	bf38      	it	cc
  40a5fc:	4647      	movcc	r7, r8
  40a5fe:	463a      	mov	r2, r7
  40a600:	4651      	mov	r1, sl
  40a602:	f000 f9a9 	bl	40a958 <memmove>
  40a606:	68a3      	ldr	r3, [r4, #8]
  40a608:	6822      	ldr	r2, [r4, #0]
  40a60a:	1bdb      	subs	r3, r3, r7
  40a60c:	443a      	add	r2, r7
  40a60e:	60a3      	str	r3, [r4, #8]
  40a610:	6022      	str	r2, [r4, #0]
  40a612:	2b00      	cmp	r3, #0
  40a614:	d09f      	beq.n	40a556 <__sfvwrite_r+0xee>
  40a616:	463a      	mov	r2, r7
  40a618:	e785      	b.n	40a526 <__sfvwrite_r+0xbe>
  40a61a:	461a      	mov	r2, r3
  40a61c:	4659      	mov	r1, fp
  40a61e:	9300      	str	r3, [sp, #0]
  40a620:	f000 f99a 	bl	40a958 <memmove>
  40a624:	9b00      	ldr	r3, [sp, #0]
  40a626:	68a1      	ldr	r1, [r4, #8]
  40a628:	6822      	ldr	r2, [r4, #0]
  40a62a:	1ac9      	subs	r1, r1, r3
  40a62c:	ebba 0a07 	subs.w	sl, sl, r7
  40a630:	4413      	add	r3, r2
  40a632:	60a1      	str	r1, [r4, #8]
  40a634:	6023      	str	r3, [r4, #0]
  40a636:	d1c4      	bne.n	40a5c2 <__sfvwrite_r+0x15a>
  40a638:	4648      	mov	r0, r9
  40a63a:	4621      	mov	r1, r4
  40a63c:	f7ff fce8 	bl	40a010 <_fflush_r>
  40a640:	2800      	cmp	r0, #0
  40a642:	d18e      	bne.n	40a562 <__sfvwrite_r+0xfa>
  40a644:	f8cd a004 	str.w	sl, [sp, #4]
  40a648:	e7bb      	b.n	40a5c2 <__sfvwrite_r+0x15a>
  40a64a:	6820      	ldr	r0, [r4, #0]
  40a64c:	4647      	mov	r7, r8
  40a64e:	46c3      	mov	fp, r8
  40a650:	e75d      	b.n	40a50e <__sfvwrite_r+0xa6>
  40a652:	4658      	mov	r0, fp
  40a654:	210a      	movs	r1, #10
  40a656:	4642      	mov	r2, r8
  40a658:	f000 f934 	bl	40a8c4 <memchr>
  40a65c:	2800      	cmp	r0, #0
  40a65e:	d07f      	beq.n	40a760 <__sfvwrite_r+0x2f8>
  40a660:	f100 0a01 	add.w	sl, r0, #1
  40a664:	2701      	movs	r7, #1
  40a666:	ebcb 0a0a 	rsb	sl, fp, sl
  40a66a:	9701      	str	r7, [sp, #4]
  40a66c:	e78c      	b.n	40a588 <__sfvwrite_r+0x120>
  40a66e:	6822      	ldr	r2, [r4, #0]
  40a670:	6921      	ldr	r1, [r4, #16]
  40a672:	6967      	ldr	r7, [r4, #20]
  40a674:	ebc1 0c02 	rsb	ip, r1, r2
  40a678:	eb07 0747 	add.w	r7, r7, r7, lsl #1
  40a67c:	f10c 0201 	add.w	r2, ip, #1
  40a680:	eb07 77d7 	add.w	r7, r7, r7, lsr #31
  40a684:	4442      	add	r2, r8
  40a686:	107f      	asrs	r7, r7, #1
  40a688:	4297      	cmp	r7, r2
  40a68a:	bf34      	ite	cc
  40a68c:	4617      	movcc	r7, r2
  40a68e:	463a      	movcs	r2, r7
  40a690:	055b      	lsls	r3, r3, #21
  40a692:	d54f      	bpl.n	40a734 <__sfvwrite_r+0x2cc>
  40a694:	4611      	mov	r1, r2
  40a696:	4648      	mov	r0, r9
  40a698:	f8cd c000 	str.w	ip, [sp]
  40a69c:	f7fb fc1a 	bl	405ed4 <_malloc_r>
  40a6a0:	f8dd c000 	ldr.w	ip, [sp]
  40a6a4:	4683      	mov	fp, r0
  40a6a6:	2800      	cmp	r0, #0
  40a6a8:	d062      	beq.n	40a770 <__sfvwrite_r+0x308>
  40a6aa:	4662      	mov	r2, ip
  40a6ac:	6921      	ldr	r1, [r4, #16]
  40a6ae:	f8cd c000 	str.w	ip, [sp]
  40a6b2:	f7fb fedf 	bl	406474 <memcpy>
  40a6b6:	89a2      	ldrh	r2, [r4, #12]
  40a6b8:	f8dd c000 	ldr.w	ip, [sp]
  40a6bc:	f422 6290 	bic.w	r2, r2, #1152	; 0x480
  40a6c0:	f042 0280 	orr.w	r2, r2, #128	; 0x80
  40a6c4:	81a2      	strh	r2, [r4, #12]
  40a6c6:	eb0b 000c 	add.w	r0, fp, ip
  40a6ca:	ebcc 0207 	rsb	r2, ip, r7
  40a6ce:	f8c4 b010 	str.w	fp, [r4, #16]
  40a6d2:	6167      	str	r7, [r4, #20]
  40a6d4:	6020      	str	r0, [r4, #0]
  40a6d6:	60a2      	str	r2, [r4, #8]
  40a6d8:	4647      	mov	r7, r8
  40a6da:	46c3      	mov	fp, r8
  40a6dc:	e717      	b.n	40a50e <__sfvwrite_r+0xa6>
  40a6de:	f06f 4200 	mvn.w	r2, #2147483648	; 0x80000000
  40a6e2:	4590      	cmp	r8, r2
  40a6e4:	bf38      	it	cc
  40a6e6:	4642      	movcc	r2, r8
  40a6e8:	fb92 f2f3 	sdiv	r2, r2, r3
  40a6ec:	fb02 f303 	mul.w	r3, r2, r3
  40a6f0:	6a67      	ldr	r7, [r4, #36]	; 0x24
  40a6f2:	4648      	mov	r0, r9
  40a6f4:	69e1      	ldr	r1, [r4, #28]
  40a6f6:	4652      	mov	r2, sl
  40a6f8:	47b8      	blx	r7
  40a6fa:	2800      	cmp	r0, #0
  40a6fc:	f77f af31 	ble.w	40a562 <__sfvwrite_r+0xfa>
  40a700:	4602      	mov	r2, r0
  40a702:	e710      	b.n	40a526 <__sfvwrite_r+0xbe>
  40a704:	4662      	mov	r2, ip
  40a706:	4659      	mov	r1, fp
  40a708:	f8cd c000 	str.w	ip, [sp]
  40a70c:	f000 f924 	bl	40a958 <memmove>
  40a710:	f8dd c000 	ldr.w	ip, [sp]
  40a714:	6823      	ldr	r3, [r4, #0]
  40a716:	4648      	mov	r0, r9
  40a718:	4463      	add	r3, ip
  40a71a:	6023      	str	r3, [r4, #0]
  40a71c:	4621      	mov	r1, r4
  40a71e:	f8cd c000 	str.w	ip, [sp]
  40a722:	f7ff fc75 	bl	40a010 <_fflush_r>
  40a726:	f8dd c000 	ldr.w	ip, [sp]
  40a72a:	2800      	cmp	r0, #0
  40a72c:	f47f af19 	bne.w	40a562 <__sfvwrite_r+0xfa>
  40a730:	4667      	mov	r7, ip
  40a732:	e743      	b.n	40a5bc <__sfvwrite_r+0x154>
  40a734:	4648      	mov	r0, r9
  40a736:	f8cd c000 	str.w	ip, [sp]
  40a73a:	f7fb ff5f 	bl	4065fc <_realloc_r>
  40a73e:	f8dd c000 	ldr.w	ip, [sp]
  40a742:	4683      	mov	fp, r0
  40a744:	2800      	cmp	r0, #0
  40a746:	d1be      	bne.n	40a6c6 <__sfvwrite_r+0x25e>
  40a748:	4648      	mov	r0, r9
  40a74a:	6921      	ldr	r1, [r4, #16]
  40a74c:	f7ff fdc0 	bl	40a2d0 <_free_r>
  40a750:	89a3      	ldrh	r3, [r4, #12]
  40a752:	220c      	movs	r2, #12
  40a754:	f023 0380 	bic.w	r3, r3, #128	; 0x80
  40a758:	b29b      	uxth	r3, r3
  40a75a:	f8c9 2000 	str.w	r2, [r9]
  40a75e:	e701      	b.n	40a564 <__sfvwrite_r+0xfc>
  40a760:	2701      	movs	r7, #1
  40a762:	f108 0a01 	add.w	sl, r8, #1
  40a766:	9701      	str	r7, [sp, #4]
  40a768:	e70e      	b.n	40a588 <__sfvwrite_r+0x120>
  40a76a:	f04f 30ff 	mov.w	r0, #4294967295
  40a76e:	e6aa      	b.n	40a4c6 <__sfvwrite_r+0x5e>
  40a770:	230c      	movs	r3, #12
  40a772:	f8c9 3000 	str.w	r3, [r9]
  40a776:	89a3      	ldrh	r3, [r4, #12]
  40a778:	e6f4      	b.n	40a564 <__sfvwrite_r+0xfc>
  40a77a:	bf00      	nop
  40a77c:	7ffffc00 	.word	0x7ffffc00

0040a780 <_fwalk>:
  40a780:	e92d 41f0 	stmdb	sp!, {r4, r5, r6, r7, r8, lr}
  40a784:	f510 7738 	adds.w	r7, r0, #736	; 0x2e0
  40a788:	4688      	mov	r8, r1
  40a78a:	d019      	beq.n	40a7c0 <_fwalk+0x40>
  40a78c:	2600      	movs	r6, #0
  40a78e:	687d      	ldr	r5, [r7, #4]
  40a790:	68bc      	ldr	r4, [r7, #8]
  40a792:	3d01      	subs	r5, #1
  40a794:	d40e      	bmi.n	40a7b4 <_fwalk+0x34>
  40a796:	89a3      	ldrh	r3, [r4, #12]
  40a798:	3d01      	subs	r5, #1
  40a79a:	2b01      	cmp	r3, #1
  40a79c:	d906      	bls.n	40a7ac <_fwalk+0x2c>
  40a79e:	f9b4 300e 	ldrsh.w	r3, [r4, #14]
  40a7a2:	4620      	mov	r0, r4
  40a7a4:	3301      	adds	r3, #1
  40a7a6:	d001      	beq.n	40a7ac <_fwalk+0x2c>
  40a7a8:	47c0      	blx	r8
  40a7aa:	4306      	orrs	r6, r0
  40a7ac:	1c6b      	adds	r3, r5, #1
  40a7ae:	f104 0468 	add.w	r4, r4, #104	; 0x68
  40a7b2:	d1f0      	bne.n	40a796 <_fwalk+0x16>
  40a7b4:	683f      	ldr	r7, [r7, #0]
  40a7b6:	2f00      	cmp	r7, #0
  40a7b8:	d1e9      	bne.n	40a78e <_fwalk+0xe>
  40a7ba:	4630      	mov	r0, r6
  40a7bc:	e8bd 81f0 	ldmia.w	sp!, {r4, r5, r6, r7, r8, pc}
  40a7c0:	463e      	mov	r6, r7
  40a7c2:	4630      	mov	r0, r6
  40a7c4:	e8bd 81f0 	ldmia.w	sp!, {r4, r5, r6, r7, r8, pc}

0040a7c8 <__locale_charset>:
  40a7c8:	4800      	ldr	r0, [pc, #0]	; (40a7cc <__locale_charset+0x4>)
  40a7ca:	4770      	bx	lr
  40a7cc:	20000954 	.word	0x20000954

0040a7d0 <__locale_mb_cur_max>:
  40a7d0:	4b01      	ldr	r3, [pc, #4]	; (40a7d8 <__locale_mb_cur_max+0x8>)
  40a7d2:	6818      	ldr	r0, [r3, #0]
  40a7d4:	4770      	bx	lr
  40a7d6:	bf00      	nop
  40a7d8:	20000974 	.word	0x20000974

0040a7dc <_localeconv_r>:
  40a7dc:	4800      	ldr	r0, [pc, #0]	; (40a7e0 <_localeconv_r+0x4>)
  40a7de:	4770      	bx	lr
  40a7e0:	2000091c 	.word	0x2000091c

0040a7e4 <__smakebuf_r>:
  40a7e4:	b5f0      	push	{r4, r5, r6, r7, lr}
  40a7e6:	898b      	ldrh	r3, [r1, #12]
  40a7e8:	b091      	sub	sp, #68	; 0x44
  40a7ea:	b29a      	uxth	r2, r3
  40a7ec:	0796      	lsls	r6, r2, #30
  40a7ee:	460c      	mov	r4, r1
  40a7f0:	4605      	mov	r5, r0
  40a7f2:	d437      	bmi.n	40a864 <__smakebuf_r+0x80>
  40a7f4:	f9b1 100e 	ldrsh.w	r1, [r1, #14]
  40a7f8:	2900      	cmp	r1, #0
  40a7fa:	db17      	blt.n	40a82c <__smakebuf_r+0x48>
  40a7fc:	aa01      	add	r2, sp, #4
  40a7fe:	f000 fe81 	bl	40b504 <_fstat_r>
  40a802:	2800      	cmp	r0, #0
  40a804:	db10      	blt.n	40a828 <__smakebuf_r+0x44>
  40a806:	9b02      	ldr	r3, [sp, #8]
  40a808:	f403 4370 	and.w	r3, r3, #61440	; 0xf000
  40a80c:	f5b3 5100 	subs.w	r1, r3, #8192	; 0x2000
  40a810:	424f      	negs	r7, r1
  40a812:	414f      	adcs	r7, r1
  40a814:	f5b3 4f00 	cmp.w	r3, #32768	; 0x8000
  40a818:	d02c      	beq.n	40a874 <__smakebuf_r+0x90>
  40a81a:	89a3      	ldrh	r3, [r4, #12]
  40a81c:	f44f 6680 	mov.w	r6, #1024	; 0x400
  40a820:	f443 6300 	orr.w	r3, r3, #2048	; 0x800
  40a824:	81a3      	strh	r3, [r4, #12]
  40a826:	e00b      	b.n	40a840 <__smakebuf_r+0x5c>
  40a828:	89a3      	ldrh	r3, [r4, #12]
  40a82a:	b29a      	uxth	r2, r3
  40a82c:	f012 0f80 	tst.w	r2, #128	; 0x80
  40a830:	f443 6300 	orr.w	r3, r3, #2048	; 0x800
  40a834:	81a3      	strh	r3, [r4, #12]
  40a836:	bf14      	ite	ne
  40a838:	2640      	movne	r6, #64	; 0x40
  40a83a:	f44f 6680 	moveq.w	r6, #1024	; 0x400
  40a83e:	2700      	movs	r7, #0
  40a840:	4628      	mov	r0, r5
  40a842:	4631      	mov	r1, r6
  40a844:	f7fb fb46 	bl	405ed4 <_malloc_r>
  40a848:	89a3      	ldrh	r3, [r4, #12]
  40a84a:	2800      	cmp	r0, #0
  40a84c:	d029      	beq.n	40a8a2 <__smakebuf_r+0xbe>
  40a84e:	4a1b      	ldr	r2, [pc, #108]	; (40a8bc <__smakebuf_r+0xd8>)
  40a850:	f043 0380 	orr.w	r3, r3, #128	; 0x80
  40a854:	63ea      	str	r2, [r5, #60]	; 0x3c
  40a856:	81a3      	strh	r3, [r4, #12]
  40a858:	6020      	str	r0, [r4, #0]
  40a85a:	6120      	str	r0, [r4, #16]
  40a85c:	6166      	str	r6, [r4, #20]
  40a85e:	b9a7      	cbnz	r7, 40a88a <__smakebuf_r+0xa6>
  40a860:	b011      	add	sp, #68	; 0x44
  40a862:	bdf0      	pop	{r4, r5, r6, r7, pc}
  40a864:	f101 0343 	add.w	r3, r1, #67	; 0x43
  40a868:	2201      	movs	r2, #1
  40a86a:	600b      	str	r3, [r1, #0]
  40a86c:	610b      	str	r3, [r1, #16]
  40a86e:	614a      	str	r2, [r1, #20]
  40a870:	b011      	add	sp, #68	; 0x44
  40a872:	bdf0      	pop	{r4, r5, r6, r7, pc}
  40a874:	4a12      	ldr	r2, [pc, #72]	; (40a8c0 <__smakebuf_r+0xdc>)
  40a876:	6aa3      	ldr	r3, [r4, #40]	; 0x28
  40a878:	4293      	cmp	r3, r2
  40a87a:	d1ce      	bne.n	40a81a <__smakebuf_r+0x36>
  40a87c:	89a3      	ldrh	r3, [r4, #12]
  40a87e:	f44f 6680 	mov.w	r6, #1024	; 0x400
  40a882:	4333      	orrs	r3, r6
  40a884:	81a3      	strh	r3, [r4, #12]
  40a886:	64e6      	str	r6, [r4, #76]	; 0x4c
  40a888:	e7da      	b.n	40a840 <__smakebuf_r+0x5c>
  40a88a:	4628      	mov	r0, r5
  40a88c:	f9b4 100e 	ldrsh.w	r1, [r4, #14]
  40a890:	f000 fe4c 	bl	40b52c <_isatty_r>
  40a894:	2800      	cmp	r0, #0
  40a896:	d0e3      	beq.n	40a860 <__smakebuf_r+0x7c>
  40a898:	89a3      	ldrh	r3, [r4, #12]
  40a89a:	f043 0301 	orr.w	r3, r3, #1
  40a89e:	81a3      	strh	r3, [r4, #12]
  40a8a0:	e7de      	b.n	40a860 <__smakebuf_r+0x7c>
  40a8a2:	059a      	lsls	r2, r3, #22
  40a8a4:	d4dc      	bmi.n	40a860 <__smakebuf_r+0x7c>
  40a8a6:	f104 0243 	add.w	r2, r4, #67	; 0x43
  40a8aa:	f043 0302 	orr.w	r3, r3, #2
  40a8ae:	2101      	movs	r1, #1
  40a8b0:	81a3      	strh	r3, [r4, #12]
  40a8b2:	6022      	str	r2, [r4, #0]
  40a8b4:	6122      	str	r2, [r4, #16]
  40a8b6:	6161      	str	r1, [r4, #20]
  40a8b8:	e7d2      	b.n	40a860 <__smakebuf_r+0x7c>
  40a8ba:	bf00      	nop
  40a8bc:	0040a03d 	.word	0x0040a03d
  40a8c0:	0040b0e5 	.word	0x0040b0e5

0040a8c4 <memchr>:
  40a8c4:	0783      	lsls	r3, r0, #30
  40a8c6:	b470      	push	{r4, r5, r6}
  40a8c8:	b2c9      	uxtb	r1, r1
  40a8ca:	d040      	beq.n	40a94e <memchr+0x8a>
  40a8cc:	1e54      	subs	r4, r2, #1
  40a8ce:	b32a      	cbz	r2, 40a91c <memchr+0x58>
  40a8d0:	7803      	ldrb	r3, [r0, #0]
  40a8d2:	428b      	cmp	r3, r1
  40a8d4:	d023      	beq.n	40a91e <memchr+0x5a>
  40a8d6:	1c43      	adds	r3, r0, #1
  40a8d8:	e004      	b.n	40a8e4 <memchr+0x20>
  40a8da:	b1fc      	cbz	r4, 40a91c <memchr+0x58>
  40a8dc:	7805      	ldrb	r5, [r0, #0]
  40a8de:	4614      	mov	r4, r2
  40a8e0:	428d      	cmp	r5, r1
  40a8e2:	d01c      	beq.n	40a91e <memchr+0x5a>
  40a8e4:	f013 0f03 	tst.w	r3, #3
  40a8e8:	4618      	mov	r0, r3
  40a8ea:	f104 32ff 	add.w	r2, r4, #4294967295
  40a8ee:	f103 0301 	add.w	r3, r3, #1
  40a8f2:	d1f2      	bne.n	40a8da <memchr+0x16>
  40a8f4:	2c03      	cmp	r4, #3
  40a8f6:	d814      	bhi.n	40a922 <memchr+0x5e>
  40a8f8:	1e65      	subs	r5, r4, #1
  40a8fa:	b354      	cbz	r4, 40a952 <memchr+0x8e>
  40a8fc:	7803      	ldrb	r3, [r0, #0]
  40a8fe:	428b      	cmp	r3, r1
  40a900:	d00d      	beq.n	40a91e <memchr+0x5a>
  40a902:	1c42      	adds	r2, r0, #1
  40a904:	2300      	movs	r3, #0
  40a906:	e002      	b.n	40a90e <memchr+0x4a>
  40a908:	7804      	ldrb	r4, [r0, #0]
  40a90a:	428c      	cmp	r4, r1
  40a90c:	d007      	beq.n	40a91e <memchr+0x5a>
  40a90e:	42ab      	cmp	r3, r5
  40a910:	4610      	mov	r0, r2
  40a912:	f103 0301 	add.w	r3, r3, #1
  40a916:	f102 0201 	add.w	r2, r2, #1
  40a91a:	d1f5      	bne.n	40a908 <memchr+0x44>
  40a91c:	2000      	movs	r0, #0
  40a91e:	bc70      	pop	{r4, r5, r6}
  40a920:	4770      	bx	lr
  40a922:	ea41 2601 	orr.w	r6, r1, r1, lsl #8
  40a926:	4603      	mov	r3, r0
  40a928:	ea46 4606 	orr.w	r6, r6, r6, lsl #16
  40a92c:	681a      	ldr	r2, [r3, #0]
  40a92e:	4618      	mov	r0, r3
  40a930:	4072      	eors	r2, r6
  40a932:	f1a2 3501 	sub.w	r5, r2, #16843009	; 0x1010101
  40a936:	ea25 0202 	bic.w	r2, r5, r2
  40a93a:	f012 3f80 	tst.w	r2, #2155905152	; 0x80808080
  40a93e:	f103 0304 	add.w	r3, r3, #4
  40a942:	d1d9      	bne.n	40a8f8 <memchr+0x34>
  40a944:	3c04      	subs	r4, #4
  40a946:	2c03      	cmp	r4, #3
  40a948:	4618      	mov	r0, r3
  40a94a:	d8ef      	bhi.n	40a92c <memchr+0x68>
  40a94c:	e7d4      	b.n	40a8f8 <memchr+0x34>
  40a94e:	4614      	mov	r4, r2
  40a950:	e7d0      	b.n	40a8f4 <memchr+0x30>
  40a952:	4620      	mov	r0, r4
  40a954:	e7e3      	b.n	40a91e <memchr+0x5a>
  40a956:	bf00      	nop

0040a958 <memmove>:
  40a958:	4288      	cmp	r0, r1
  40a95a:	b4f0      	push	{r4, r5, r6, r7}
  40a95c:	d910      	bls.n	40a980 <memmove+0x28>
  40a95e:	188c      	adds	r4, r1, r2
  40a960:	42a0      	cmp	r0, r4
  40a962:	d20d      	bcs.n	40a980 <memmove+0x28>
  40a964:	1885      	adds	r5, r0, r2
  40a966:	1e53      	subs	r3, r2, #1
  40a968:	b142      	cbz	r2, 40a97c <memmove+0x24>
  40a96a:	4621      	mov	r1, r4
  40a96c:	462a      	mov	r2, r5
  40a96e:	f811 4d01 	ldrb.w	r4, [r1, #-1]!
  40a972:	3b01      	subs	r3, #1
  40a974:	f802 4d01 	strb.w	r4, [r2, #-1]!
  40a978:	1c5c      	adds	r4, r3, #1
  40a97a:	d1f8      	bne.n	40a96e <memmove+0x16>
  40a97c:	bcf0      	pop	{r4, r5, r6, r7}
  40a97e:	4770      	bx	lr
  40a980:	2a0f      	cmp	r2, #15
  40a982:	d944      	bls.n	40aa0e <memmove+0xb6>
  40a984:	ea40 0301 	orr.w	r3, r0, r1
  40a988:	079b      	lsls	r3, r3, #30
  40a98a:	d144      	bne.n	40aa16 <memmove+0xbe>
  40a98c:	f1a2 0710 	sub.w	r7, r2, #16
  40a990:	093f      	lsrs	r7, r7, #4
  40a992:	eb00 1607 	add.w	r6, r0, r7, lsl #4
  40a996:	3610      	adds	r6, #16
  40a998:	460c      	mov	r4, r1
  40a99a:	4603      	mov	r3, r0
  40a99c:	6825      	ldr	r5, [r4, #0]
  40a99e:	3310      	adds	r3, #16
  40a9a0:	f843 5c10 	str.w	r5, [r3, #-16]
  40a9a4:	6865      	ldr	r5, [r4, #4]
  40a9a6:	3410      	adds	r4, #16
  40a9a8:	f843 5c0c 	str.w	r5, [r3, #-12]
  40a9ac:	f854 5c08 	ldr.w	r5, [r4, #-8]
  40a9b0:	f843 5c08 	str.w	r5, [r3, #-8]
  40a9b4:	f854 5c04 	ldr.w	r5, [r4, #-4]
  40a9b8:	f843 5c04 	str.w	r5, [r3, #-4]
  40a9bc:	42b3      	cmp	r3, r6
  40a9be:	d1ed      	bne.n	40a99c <memmove+0x44>
  40a9c0:	1c7b      	adds	r3, r7, #1
  40a9c2:	f002 0c0f 	and.w	ip, r2, #15
  40a9c6:	011b      	lsls	r3, r3, #4
  40a9c8:	f1bc 0f03 	cmp.w	ip, #3
  40a9cc:	4419      	add	r1, r3
  40a9ce:	4403      	add	r3, r0
  40a9d0:	d923      	bls.n	40aa1a <memmove+0xc2>
  40a9d2:	460e      	mov	r6, r1
  40a9d4:	461d      	mov	r5, r3
  40a9d6:	4664      	mov	r4, ip
  40a9d8:	f856 7b04 	ldr.w	r7, [r6], #4
  40a9dc:	3c04      	subs	r4, #4
  40a9de:	2c03      	cmp	r4, #3
  40a9e0:	f845 7b04 	str.w	r7, [r5], #4
  40a9e4:	d8f8      	bhi.n	40a9d8 <memmove+0x80>
  40a9e6:	f1ac 0404 	sub.w	r4, ip, #4
  40a9ea:	f024 0403 	bic.w	r4, r4, #3
  40a9ee:	3404      	adds	r4, #4
  40a9f0:	f002 0203 	and.w	r2, r2, #3
  40a9f4:	4423      	add	r3, r4
  40a9f6:	4421      	add	r1, r4
  40a9f8:	2a00      	cmp	r2, #0
  40a9fa:	d0bf      	beq.n	40a97c <memmove+0x24>
  40a9fc:	441a      	add	r2, r3
  40a9fe:	f811 4b01 	ldrb.w	r4, [r1], #1
  40aa02:	f803 4b01 	strb.w	r4, [r3], #1
  40aa06:	4293      	cmp	r3, r2
  40aa08:	d1f9      	bne.n	40a9fe <memmove+0xa6>
  40aa0a:	bcf0      	pop	{r4, r5, r6, r7}
  40aa0c:	4770      	bx	lr
  40aa0e:	4603      	mov	r3, r0
  40aa10:	2a00      	cmp	r2, #0
  40aa12:	d1f3      	bne.n	40a9fc <memmove+0xa4>
  40aa14:	e7b2      	b.n	40a97c <memmove+0x24>
  40aa16:	4603      	mov	r3, r0
  40aa18:	e7f0      	b.n	40a9fc <memmove+0xa4>
  40aa1a:	4662      	mov	r2, ip
  40aa1c:	2a00      	cmp	r2, #0
  40aa1e:	d1ed      	bne.n	40a9fc <memmove+0xa4>
  40aa20:	e7ac      	b.n	40a97c <memmove+0x24>
  40aa22:	bf00      	nop

0040aa24 <_Balloc>:
  40aa24:	6cc2      	ldr	r2, [r0, #76]	; 0x4c
  40aa26:	b570      	push	{r4, r5, r6, lr}
  40aa28:	4605      	mov	r5, r0
  40aa2a:	460c      	mov	r4, r1
  40aa2c:	b14a      	cbz	r2, 40aa42 <_Balloc+0x1e>
  40aa2e:	f852 0024 	ldr.w	r0, [r2, r4, lsl #2]
  40aa32:	b180      	cbz	r0, 40aa56 <_Balloc+0x32>
  40aa34:	6801      	ldr	r1, [r0, #0]
  40aa36:	f842 1024 	str.w	r1, [r2, r4, lsl #2]
  40aa3a:	2200      	movs	r2, #0
  40aa3c:	6102      	str	r2, [r0, #16]
  40aa3e:	60c2      	str	r2, [r0, #12]
  40aa40:	bd70      	pop	{r4, r5, r6, pc}
  40aa42:	2221      	movs	r2, #33	; 0x21
  40aa44:	2104      	movs	r1, #4
  40aa46:	f000 fcd3 	bl	40b3f0 <_calloc_r>
  40aa4a:	64e8      	str	r0, [r5, #76]	; 0x4c
  40aa4c:	4602      	mov	r2, r0
  40aa4e:	2800      	cmp	r0, #0
  40aa50:	d1ed      	bne.n	40aa2e <_Balloc+0xa>
  40aa52:	2000      	movs	r0, #0
  40aa54:	bd70      	pop	{r4, r5, r6, pc}
  40aa56:	2101      	movs	r1, #1
  40aa58:	fa01 f604 	lsl.w	r6, r1, r4
  40aa5c:	1d72      	adds	r2, r6, #5
  40aa5e:	4628      	mov	r0, r5
  40aa60:	0092      	lsls	r2, r2, #2
  40aa62:	f000 fcc5 	bl	40b3f0 <_calloc_r>
  40aa66:	2800      	cmp	r0, #0
  40aa68:	d0f3      	beq.n	40aa52 <_Balloc+0x2e>
  40aa6a:	6044      	str	r4, [r0, #4]
  40aa6c:	6086      	str	r6, [r0, #8]
  40aa6e:	e7e4      	b.n	40aa3a <_Balloc+0x16>

0040aa70 <_Bfree>:
  40aa70:	b131      	cbz	r1, 40aa80 <_Bfree+0x10>
  40aa72:	6cc3      	ldr	r3, [r0, #76]	; 0x4c
  40aa74:	684a      	ldr	r2, [r1, #4]
  40aa76:	f853 0022 	ldr.w	r0, [r3, r2, lsl #2]
  40aa7a:	6008      	str	r0, [r1, #0]
  40aa7c:	f843 1022 	str.w	r1, [r3, r2, lsl #2]
  40aa80:	4770      	bx	lr
  40aa82:	bf00      	nop

0040aa84 <__multadd>:
  40aa84:	e92d 43f0 	stmdb	sp!, {r4, r5, r6, r7, r8, r9, lr}
  40aa88:	690f      	ldr	r7, [r1, #16]
  40aa8a:	b083      	sub	sp, #12
  40aa8c:	4688      	mov	r8, r1
  40aa8e:	4681      	mov	r9, r0
  40aa90:	f101 0514 	add.w	r5, r1, #20
  40aa94:	2400      	movs	r4, #0
  40aa96:	682e      	ldr	r6, [r5, #0]
  40aa98:	3401      	adds	r4, #1
  40aa9a:	b2b1      	uxth	r1, r6
  40aa9c:	0c36      	lsrs	r6, r6, #16
  40aa9e:	fb02 3301 	mla	r3, r2, r1, r3
  40aaa2:	fb02 f606 	mul.w	r6, r2, r6
  40aaa6:	b299      	uxth	r1, r3
  40aaa8:	eb06 4313 	add.w	r3, r6, r3, lsr #16
  40aaac:	eb01 4103 	add.w	r1, r1, r3, lsl #16
  40aab0:	42a7      	cmp	r7, r4
  40aab2:	f845 1b04 	str.w	r1, [r5], #4
  40aab6:	ea4f 4313 	mov.w	r3, r3, lsr #16
  40aaba:	dcec      	bgt.n	40aa96 <__multadd+0x12>
  40aabc:	b14b      	cbz	r3, 40aad2 <__multadd+0x4e>
  40aabe:	f8d8 2008 	ldr.w	r2, [r8, #8]
  40aac2:	4297      	cmp	r7, r2
  40aac4:	da09      	bge.n	40aada <__multadd+0x56>
  40aac6:	eb08 0287 	add.w	r2, r8, r7, lsl #2
  40aaca:	3701      	adds	r7, #1
  40aacc:	6153      	str	r3, [r2, #20]
  40aace:	f8c8 7010 	str.w	r7, [r8, #16]
  40aad2:	4640      	mov	r0, r8
  40aad4:	b003      	add	sp, #12
  40aad6:	e8bd 83f0 	ldmia.w	sp!, {r4, r5, r6, r7, r8, r9, pc}
  40aada:	f8d8 1004 	ldr.w	r1, [r8, #4]
  40aade:	4648      	mov	r0, r9
  40aae0:	3101      	adds	r1, #1
  40aae2:	9301      	str	r3, [sp, #4]
  40aae4:	f7ff ff9e 	bl	40aa24 <_Balloc>
  40aae8:	f8d8 2010 	ldr.w	r2, [r8, #16]
  40aaec:	f108 010c 	add.w	r1, r8, #12
  40aaf0:	3202      	adds	r2, #2
  40aaf2:	4604      	mov	r4, r0
  40aaf4:	0092      	lsls	r2, r2, #2
  40aaf6:	300c      	adds	r0, #12
  40aaf8:	f7fb fcbc 	bl	406474 <memcpy>
  40aafc:	f8d9 204c 	ldr.w	r2, [r9, #76]	; 0x4c
  40ab00:	f8d8 1004 	ldr.w	r1, [r8, #4]
  40ab04:	9b01      	ldr	r3, [sp, #4]
  40ab06:	f852 0021 	ldr.w	r0, [r2, r1, lsl #2]
  40ab0a:	f8c8 0000 	str.w	r0, [r8]
  40ab0e:	f842 8021 	str.w	r8, [r2, r1, lsl #2]
  40ab12:	46a0      	mov	r8, r4
  40ab14:	e7d7      	b.n	40aac6 <__multadd+0x42>
  40ab16:	bf00      	nop

0040ab18 <__hi0bits>:
  40ab18:	0c03      	lsrs	r3, r0, #16
  40ab1a:	041b      	lsls	r3, r3, #16
  40ab1c:	b9b3      	cbnz	r3, 40ab4c <__hi0bits+0x34>
  40ab1e:	0400      	lsls	r0, r0, #16
  40ab20:	2310      	movs	r3, #16
  40ab22:	f010 4f7f 	tst.w	r0, #4278190080	; 0xff000000
  40ab26:	bf04      	itt	eq
  40ab28:	0200      	lsleq	r0, r0, #8
  40ab2a:	3308      	addeq	r3, #8
  40ab2c:	f010 4f70 	tst.w	r0, #4026531840	; 0xf0000000
  40ab30:	bf04      	itt	eq
  40ab32:	0100      	lsleq	r0, r0, #4
  40ab34:	3304      	addeq	r3, #4
  40ab36:	f010 4f40 	tst.w	r0, #3221225472	; 0xc0000000
  40ab3a:	bf04      	itt	eq
  40ab3c:	0080      	lsleq	r0, r0, #2
  40ab3e:	3302      	addeq	r3, #2
  40ab40:	2800      	cmp	r0, #0
  40ab42:	db07      	blt.n	40ab54 <__hi0bits+0x3c>
  40ab44:	0042      	lsls	r2, r0, #1
  40ab46:	d403      	bmi.n	40ab50 <__hi0bits+0x38>
  40ab48:	2020      	movs	r0, #32
  40ab4a:	4770      	bx	lr
  40ab4c:	2300      	movs	r3, #0
  40ab4e:	e7e8      	b.n	40ab22 <__hi0bits+0xa>
  40ab50:	1c58      	adds	r0, r3, #1
  40ab52:	4770      	bx	lr
  40ab54:	4618      	mov	r0, r3
  40ab56:	4770      	bx	lr

0040ab58 <__lo0bits>:
  40ab58:	6803      	ldr	r3, [r0, #0]
  40ab5a:	f013 0207 	ands.w	r2, r3, #7
  40ab5e:	d007      	beq.n	40ab70 <__lo0bits+0x18>
  40ab60:	07d9      	lsls	r1, r3, #31
  40ab62:	d420      	bmi.n	40aba6 <__lo0bits+0x4e>
  40ab64:	079a      	lsls	r2, r3, #30
  40ab66:	d420      	bmi.n	40abaa <__lo0bits+0x52>
  40ab68:	089b      	lsrs	r3, r3, #2
  40ab6a:	6003      	str	r3, [r0, #0]
  40ab6c:	2002      	movs	r0, #2
  40ab6e:	4770      	bx	lr
  40ab70:	b299      	uxth	r1, r3
  40ab72:	b909      	cbnz	r1, 40ab78 <__lo0bits+0x20>
  40ab74:	0c1b      	lsrs	r3, r3, #16
  40ab76:	2210      	movs	r2, #16
  40ab78:	f013 0fff 	tst.w	r3, #255	; 0xff
  40ab7c:	bf04      	itt	eq
  40ab7e:	0a1b      	lsreq	r3, r3, #8
  40ab80:	3208      	addeq	r2, #8
  40ab82:	0719      	lsls	r1, r3, #28
  40ab84:	bf04      	itt	eq
  40ab86:	091b      	lsreq	r3, r3, #4
  40ab88:	3204      	addeq	r2, #4
  40ab8a:	0799      	lsls	r1, r3, #30
  40ab8c:	bf04      	itt	eq
  40ab8e:	089b      	lsreq	r3, r3, #2
  40ab90:	3202      	addeq	r2, #2
  40ab92:	07d9      	lsls	r1, r3, #31
  40ab94:	d404      	bmi.n	40aba0 <__lo0bits+0x48>
  40ab96:	085b      	lsrs	r3, r3, #1
  40ab98:	d101      	bne.n	40ab9e <__lo0bits+0x46>
  40ab9a:	2020      	movs	r0, #32
  40ab9c:	4770      	bx	lr
  40ab9e:	3201      	adds	r2, #1
  40aba0:	6003      	str	r3, [r0, #0]
  40aba2:	4610      	mov	r0, r2
  40aba4:	4770      	bx	lr
  40aba6:	2000      	movs	r0, #0
  40aba8:	4770      	bx	lr
  40abaa:	085b      	lsrs	r3, r3, #1
  40abac:	6003      	str	r3, [r0, #0]
  40abae:	2001      	movs	r0, #1
  40abb0:	4770      	bx	lr
  40abb2:	bf00      	nop

0040abb4 <__i2b>:
  40abb4:	b510      	push	{r4, lr}
  40abb6:	460c      	mov	r4, r1
  40abb8:	2101      	movs	r1, #1
  40abba:	f7ff ff33 	bl	40aa24 <_Balloc>
  40abbe:	2201      	movs	r2, #1
  40abc0:	6144      	str	r4, [r0, #20]
  40abc2:	6102      	str	r2, [r0, #16]
  40abc4:	bd10      	pop	{r4, pc}
  40abc6:	bf00      	nop

0040abc8 <__multiply>:
  40abc8:	e92d 4ff0 	stmdb	sp!, {r4, r5, r6, r7, r8, r9, sl, fp, lr}
  40abcc:	690d      	ldr	r5, [r1, #16]
  40abce:	f8d2 9010 	ldr.w	r9, [r2, #16]
  40abd2:	b085      	sub	sp, #20
  40abd4:	454d      	cmp	r5, r9
  40abd6:	460c      	mov	r4, r1
  40abd8:	4692      	mov	sl, r2
  40abda:	da04      	bge.n	40abe6 <__multiply+0x1e>
  40abdc:	462a      	mov	r2, r5
  40abde:	4654      	mov	r4, sl
  40abe0:	464d      	mov	r5, r9
  40abe2:	468a      	mov	sl, r1
  40abe4:	4691      	mov	r9, r2
  40abe6:	68a3      	ldr	r3, [r4, #8]
  40abe8:	eb05 0709 	add.w	r7, r5, r9
  40abec:	6861      	ldr	r1, [r4, #4]
  40abee:	429f      	cmp	r7, r3
  40abf0:	bfc8      	it	gt
  40abf2:	3101      	addgt	r1, #1
  40abf4:	f7ff ff16 	bl	40aa24 <_Balloc>
  40abf8:	f100 0614 	add.w	r6, r0, #20
  40abfc:	eb06 0887 	add.w	r8, r6, r7, lsl #2
  40ac00:	4546      	cmp	r6, r8
  40ac02:	9001      	str	r0, [sp, #4]
  40ac04:	d205      	bcs.n	40ac12 <__multiply+0x4a>
  40ac06:	4633      	mov	r3, r6
  40ac08:	2000      	movs	r0, #0
  40ac0a:	f843 0b04 	str.w	r0, [r3], #4
  40ac0e:	4598      	cmp	r8, r3
  40ac10:	d8fb      	bhi.n	40ac0a <__multiply+0x42>
  40ac12:	f10a 0c14 	add.w	ip, sl, #20
  40ac16:	eb0c 0989 	add.w	r9, ip, r9, lsl #2
  40ac1a:	3414      	adds	r4, #20
  40ac1c:	45cc      	cmp	ip, r9
  40ac1e:	9400      	str	r4, [sp, #0]
  40ac20:	eb04 0585 	add.w	r5, r4, r5, lsl #2
  40ac24:	d25b      	bcs.n	40acde <__multiply+0x116>
  40ac26:	f8cd 8008 	str.w	r8, [sp, #8]
  40ac2a:	9703      	str	r7, [sp, #12]
  40ac2c:	46c8      	mov	r8, r9
  40ac2e:	f85c 3b04 	ldr.w	r3, [ip], #4
  40ac32:	b29c      	uxth	r4, r3
  40ac34:	b324      	cbz	r4, 40ac80 <__multiply+0xb8>
  40ac36:	9a00      	ldr	r2, [sp, #0]
  40ac38:	4633      	mov	r3, r6
  40ac3a:	f04f 0900 	mov.w	r9, #0
  40ac3e:	e000      	b.n	40ac42 <__multiply+0x7a>
  40ac40:	460b      	mov	r3, r1
  40ac42:	f852 7b04 	ldr.w	r7, [r2], #4
  40ac46:	6819      	ldr	r1, [r3, #0]
  40ac48:	fa1f fb87 	uxth.w	fp, r7
  40ac4c:	fa1f fa81 	uxth.w	sl, r1
  40ac50:	0c38      	lsrs	r0, r7, #16
  40ac52:	0c09      	lsrs	r1, r1, #16
  40ac54:	fb04 aa0b 	mla	sl, r4, fp, sl
  40ac58:	fb04 1000 	mla	r0, r4, r0, r1
  40ac5c:	44d1      	add	r9, sl
  40ac5e:	eb00 4019 	add.w	r0, r0, r9, lsr #16
  40ac62:	fa1f f989 	uxth.w	r9, r9
  40ac66:	ea49 4700 	orr.w	r7, r9, r0, lsl #16
  40ac6a:	4619      	mov	r1, r3
  40ac6c:	4295      	cmp	r5, r2
  40ac6e:	ea4f 4910 	mov.w	r9, r0, lsr #16
  40ac72:	f841 7b04 	str.w	r7, [r1], #4
  40ac76:	d8e3      	bhi.n	40ac40 <__multiply+0x78>
  40ac78:	f8c3 9004 	str.w	r9, [r3, #4]
  40ac7c:	f85c 3c04 	ldr.w	r3, [ip, #-4]
  40ac80:	ea5f 4913 	movs.w	r9, r3, lsr #16
  40ac84:	d024      	beq.n	40acd0 <__multiply+0x108>
  40ac86:	f8d6 a000 	ldr.w	sl, [r6]
  40ac8a:	9b00      	ldr	r3, [sp, #0]
  40ac8c:	4650      	mov	r0, sl
  40ac8e:	4631      	mov	r1, r6
  40ac90:	f04f 0b00 	mov.w	fp, #0
  40ac94:	e000      	b.n	40ac98 <__multiply+0xd0>
  40ac96:	4611      	mov	r1, r2
  40ac98:	881a      	ldrh	r2, [r3, #0]
  40ac9a:	0c00      	lsrs	r0, r0, #16
  40ac9c:	fb09 0002 	mla	r0, r9, r2, r0
  40aca0:	fa1f fa8a 	uxth.w	sl, sl
  40aca4:	4483      	add	fp, r0
  40aca6:	ea4a 400b 	orr.w	r0, sl, fp, lsl #16
  40acaa:	460a      	mov	r2, r1
  40acac:	f842 0b04 	str.w	r0, [r2], #4
  40acb0:	f853 7b04 	ldr.w	r7, [r3], #4
  40acb4:	6848      	ldr	r0, [r1, #4]
  40acb6:	ea4f 4a17 	mov.w	sl, r7, lsr #16
  40acba:	b284      	uxth	r4, r0
  40acbc:	fb09 4a0a 	mla	sl, r9, sl, r4
  40acc0:	429d      	cmp	r5, r3
  40acc2:	eb0a 4a1b 	add.w	sl, sl, fp, lsr #16
  40acc6:	ea4f 4b1a 	mov.w	fp, sl, lsr #16
  40acca:	d8e4      	bhi.n	40ac96 <__multiply+0xce>
  40accc:	f8c1 a004 	str.w	sl, [r1, #4]
  40acd0:	45e0      	cmp	r8, ip
  40acd2:	f106 0604 	add.w	r6, r6, #4
  40acd6:	d8aa      	bhi.n	40ac2e <__multiply+0x66>
  40acd8:	f8dd 8008 	ldr.w	r8, [sp, #8]
  40acdc:	9f03      	ldr	r7, [sp, #12]
  40acde:	2f00      	cmp	r7, #0
  40ace0:	dd0a      	ble.n	40acf8 <__multiply+0x130>
  40ace2:	f858 3c04 	ldr.w	r3, [r8, #-4]
  40ace6:	f1a8 0804 	sub.w	r8, r8, #4
  40acea:	b11b      	cbz	r3, 40acf4 <__multiply+0x12c>
  40acec:	e004      	b.n	40acf8 <__multiply+0x130>
  40acee:	f858 3d04 	ldr.w	r3, [r8, #-4]!
  40acf2:	b90b      	cbnz	r3, 40acf8 <__multiply+0x130>
  40acf4:	3f01      	subs	r7, #1
  40acf6:	d1fa      	bne.n	40acee <__multiply+0x126>
  40acf8:	9b01      	ldr	r3, [sp, #4]
  40acfa:	4618      	mov	r0, r3
  40acfc:	611f      	str	r7, [r3, #16]
  40acfe:	b005      	add	sp, #20
  40ad00:	e8bd 8ff0 	ldmia.w	sp!, {r4, r5, r6, r7, r8, r9, sl, fp, pc}

0040ad04 <__pow5mult>:
  40ad04:	f012 0303 	ands.w	r3, r2, #3
  40ad08:	e92d 41f0 	stmdb	sp!, {r4, r5, r6, r7, r8, lr}
  40ad0c:	4614      	mov	r4, r2
  40ad0e:	4607      	mov	r7, r0
  40ad10:	460e      	mov	r6, r1
  40ad12:	d12c      	bne.n	40ad6e <__pow5mult+0x6a>
  40ad14:	10a4      	asrs	r4, r4, #2
  40ad16:	d01c      	beq.n	40ad52 <__pow5mult+0x4e>
  40ad18:	6cbd      	ldr	r5, [r7, #72]	; 0x48
  40ad1a:	2d00      	cmp	r5, #0
  40ad1c:	d030      	beq.n	40ad80 <__pow5mult+0x7c>
  40ad1e:	f04f 0800 	mov.w	r8, #0
  40ad22:	e004      	b.n	40ad2e <__pow5mult+0x2a>
  40ad24:	1064      	asrs	r4, r4, #1
  40ad26:	d014      	beq.n	40ad52 <__pow5mult+0x4e>
  40ad28:	6828      	ldr	r0, [r5, #0]
  40ad2a:	b1a8      	cbz	r0, 40ad58 <__pow5mult+0x54>
  40ad2c:	4605      	mov	r5, r0
  40ad2e:	07e3      	lsls	r3, r4, #31
  40ad30:	d5f8      	bpl.n	40ad24 <__pow5mult+0x20>
  40ad32:	4638      	mov	r0, r7
  40ad34:	4631      	mov	r1, r6
  40ad36:	462a      	mov	r2, r5
  40ad38:	f7ff ff46 	bl	40abc8 <__multiply>
  40ad3c:	b1ae      	cbz	r6, 40ad6a <__pow5mult+0x66>
  40ad3e:	6872      	ldr	r2, [r6, #4]
  40ad40:	6cfb      	ldr	r3, [r7, #76]	; 0x4c
  40ad42:	1064      	asrs	r4, r4, #1
  40ad44:	f853 1022 	ldr.w	r1, [r3, r2, lsl #2]
  40ad48:	6031      	str	r1, [r6, #0]
  40ad4a:	f843 6022 	str.w	r6, [r3, r2, lsl #2]
  40ad4e:	4606      	mov	r6, r0
  40ad50:	d1ea      	bne.n	40ad28 <__pow5mult+0x24>
  40ad52:	4630      	mov	r0, r6
  40ad54:	e8bd 81f0 	ldmia.w	sp!, {r4, r5, r6, r7, r8, pc}
  40ad58:	4638      	mov	r0, r7
  40ad5a:	4629      	mov	r1, r5
  40ad5c:	462a      	mov	r2, r5
  40ad5e:	f7ff ff33 	bl	40abc8 <__multiply>
  40ad62:	6028      	str	r0, [r5, #0]
  40ad64:	f8c0 8000 	str.w	r8, [r0]
  40ad68:	e7e0      	b.n	40ad2c <__pow5mult+0x28>
  40ad6a:	4606      	mov	r6, r0
  40ad6c:	e7da      	b.n	40ad24 <__pow5mult+0x20>
  40ad6e:	4a0b      	ldr	r2, [pc, #44]	; (40ad9c <__pow5mult+0x98>)
  40ad70:	3b01      	subs	r3, #1
  40ad72:	f852 2023 	ldr.w	r2, [r2, r3, lsl #2]
  40ad76:	2300      	movs	r3, #0
  40ad78:	f7ff fe84 	bl	40aa84 <__multadd>
  40ad7c:	4606      	mov	r6, r0
  40ad7e:	e7c9      	b.n	40ad14 <__pow5mult+0x10>
  40ad80:	2101      	movs	r1, #1
  40ad82:	4638      	mov	r0, r7
  40ad84:	f7ff fe4e 	bl	40aa24 <_Balloc>
  40ad88:	f240 2171 	movw	r1, #625	; 0x271
  40ad8c:	2201      	movs	r2, #1
  40ad8e:	2300      	movs	r3, #0
  40ad90:	6141      	str	r1, [r0, #20]
  40ad92:	6102      	str	r2, [r0, #16]
  40ad94:	4605      	mov	r5, r0
  40ad96:	64b8      	str	r0, [r7, #72]	; 0x48
  40ad98:	6003      	str	r3, [r0, #0]
  40ad9a:	e7c0      	b.n	40ad1e <__pow5mult+0x1a>
  40ad9c:	0040c8c0 	.word	0x0040c8c0

0040ada0 <__lshift>:
  40ada0:	e92d 4ff8 	stmdb	sp!, {r3, r4, r5, r6, r7, r8, r9, sl, fp, lr}
  40ada4:	690b      	ldr	r3, [r1, #16]
  40ada6:	ea4f 1a62 	mov.w	sl, r2, asr #5
  40adaa:	eb0a 0903 	add.w	r9, sl, r3
  40adae:	688b      	ldr	r3, [r1, #8]
  40adb0:	f109 0601 	add.w	r6, r9, #1
  40adb4:	429e      	cmp	r6, r3
  40adb6:	460f      	mov	r7, r1
  40adb8:	4693      	mov	fp, r2
  40adba:	4680      	mov	r8, r0
  40adbc:	6849      	ldr	r1, [r1, #4]
  40adbe:	dd04      	ble.n	40adca <__lshift+0x2a>
  40adc0:	005b      	lsls	r3, r3, #1
  40adc2:	429e      	cmp	r6, r3
  40adc4:	f101 0101 	add.w	r1, r1, #1
  40adc8:	dcfa      	bgt.n	40adc0 <__lshift+0x20>
  40adca:	4640      	mov	r0, r8
  40adcc:	f7ff fe2a 	bl	40aa24 <_Balloc>
  40add0:	f1ba 0f00 	cmp.w	sl, #0
  40add4:	f100 0414 	add.w	r4, r0, #20
  40add8:	dd09      	ble.n	40adee <__lshift+0x4e>
  40adda:	2300      	movs	r3, #0
  40addc:	461a      	mov	r2, r3
  40adde:	4625      	mov	r5, r4
  40ade0:	3301      	adds	r3, #1
  40ade2:	4553      	cmp	r3, sl
  40ade4:	f845 2b04 	str.w	r2, [r5], #4
  40ade8:	d1fa      	bne.n	40ade0 <__lshift+0x40>
  40adea:	eb04 0483 	add.w	r4, r4, r3, lsl #2
  40adee:	693a      	ldr	r2, [r7, #16]
  40adf0:	f107 0314 	add.w	r3, r7, #20
  40adf4:	f01b 0b1f 	ands.w	fp, fp, #31
  40adf8:	eb03 0c82 	add.w	ip, r3, r2, lsl #2
  40adfc:	d021      	beq.n	40ae42 <__lshift+0xa2>
  40adfe:	f1cb 0a20 	rsb	sl, fp, #32
  40ae02:	2200      	movs	r2, #0
  40ae04:	e000      	b.n	40ae08 <__lshift+0x68>
  40ae06:	462c      	mov	r4, r5
  40ae08:	6819      	ldr	r1, [r3, #0]
  40ae0a:	4625      	mov	r5, r4
  40ae0c:	fa01 f10b 	lsl.w	r1, r1, fp
  40ae10:	430a      	orrs	r2, r1
  40ae12:	f845 2b04 	str.w	r2, [r5], #4
  40ae16:	f853 2b04 	ldr.w	r2, [r3], #4
  40ae1a:	4563      	cmp	r3, ip
  40ae1c:	fa22 f20a 	lsr.w	r2, r2, sl
  40ae20:	d3f1      	bcc.n	40ae06 <__lshift+0x66>
  40ae22:	6062      	str	r2, [r4, #4]
  40ae24:	b10a      	cbz	r2, 40ae2a <__lshift+0x8a>
  40ae26:	f109 0602 	add.w	r6, r9, #2
  40ae2a:	f8d8 304c 	ldr.w	r3, [r8, #76]	; 0x4c
  40ae2e:	687a      	ldr	r2, [r7, #4]
  40ae30:	3e01      	subs	r6, #1
  40ae32:	f853 1022 	ldr.w	r1, [r3, r2, lsl #2]
  40ae36:	6106      	str	r6, [r0, #16]
  40ae38:	6039      	str	r1, [r7, #0]
  40ae3a:	f843 7022 	str.w	r7, [r3, r2, lsl #2]
  40ae3e:	e8bd 8ff8 	ldmia.w	sp!, {r3, r4, r5, r6, r7, r8, r9, sl, fp, pc}
  40ae42:	f853 2b04 	ldr.w	r2, [r3], #4
  40ae46:	459c      	cmp	ip, r3
  40ae48:	f844 2b04 	str.w	r2, [r4], #4
  40ae4c:	d9ed      	bls.n	40ae2a <__lshift+0x8a>
  40ae4e:	f853 2b04 	ldr.w	r2, [r3], #4
  40ae52:	459c      	cmp	ip, r3
  40ae54:	f844 2b04 	str.w	r2, [r4], #4
  40ae58:	d8f3      	bhi.n	40ae42 <__lshift+0xa2>
  40ae5a:	e7e6      	b.n	40ae2a <__lshift+0x8a>

0040ae5c <__mcmp>:
  40ae5c:	6902      	ldr	r2, [r0, #16]
  40ae5e:	690b      	ldr	r3, [r1, #16]
  40ae60:	b410      	push	{r4}
  40ae62:	1ad2      	subs	r2, r2, r3
  40ae64:	d115      	bne.n	40ae92 <__mcmp+0x36>
  40ae66:	009b      	lsls	r3, r3, #2
  40ae68:	3014      	adds	r0, #20
  40ae6a:	3114      	adds	r1, #20
  40ae6c:	4419      	add	r1, r3
  40ae6e:	4403      	add	r3, r0
  40ae70:	e001      	b.n	40ae76 <__mcmp+0x1a>
  40ae72:	4298      	cmp	r0, r3
  40ae74:	d211      	bcs.n	40ae9a <__mcmp+0x3e>
  40ae76:	f853 2d04 	ldr.w	r2, [r3, #-4]!
  40ae7a:	f851 4d04 	ldr.w	r4, [r1, #-4]!
  40ae7e:	42a2      	cmp	r2, r4
  40ae80:	d0f7      	beq.n	40ae72 <__mcmp+0x16>
  40ae82:	4294      	cmp	r4, r2
  40ae84:	bf94      	ite	ls
  40ae86:	2001      	movls	r0, #1
  40ae88:	f04f 30ff 	movhi.w	r0, #4294967295
  40ae8c:	f85d 4b04 	ldr.w	r4, [sp], #4
  40ae90:	4770      	bx	lr
  40ae92:	4610      	mov	r0, r2
  40ae94:	f85d 4b04 	ldr.w	r4, [sp], #4
  40ae98:	4770      	bx	lr
  40ae9a:	2000      	movs	r0, #0
  40ae9c:	f85d 4b04 	ldr.w	r4, [sp], #4
  40aea0:	4770      	bx	lr
  40aea2:	bf00      	nop

0040aea4 <__mdiff>:
  40aea4:	e92d 47f0 	stmdb	sp!, {r4, r5, r6, r7, r8, r9, sl, lr}
  40aea8:	460d      	mov	r5, r1
  40aeaa:	4604      	mov	r4, r0
  40aeac:	4611      	mov	r1, r2
  40aeae:	4628      	mov	r0, r5
  40aeb0:	4616      	mov	r6, r2
  40aeb2:	f7ff ffd3 	bl	40ae5c <__mcmp>
  40aeb6:	1e07      	subs	r7, r0, #0
  40aeb8:	d056      	beq.n	40af68 <__mdiff+0xc4>
  40aeba:	db4f      	blt.n	40af5c <__mdiff+0xb8>
  40aebc:	f04f 0900 	mov.w	r9, #0
  40aec0:	6869      	ldr	r1, [r5, #4]
  40aec2:	4620      	mov	r0, r4
  40aec4:	f7ff fdae 	bl	40aa24 <_Balloc>
  40aec8:	692f      	ldr	r7, [r5, #16]
  40aeca:	6932      	ldr	r2, [r6, #16]
  40aecc:	3514      	adds	r5, #20
  40aece:	3614      	adds	r6, #20
  40aed0:	f8c0 900c 	str.w	r9, [r0, #12]
  40aed4:	f100 0314 	add.w	r3, r0, #20
  40aed8:	eb05 0c87 	add.w	ip, r5, r7, lsl #2
  40aedc:	eb06 0882 	add.w	r8, r6, r2, lsl #2
  40aee0:	2100      	movs	r1, #0
  40aee2:	f855 4b04 	ldr.w	r4, [r5], #4
  40aee6:	f856 2b04 	ldr.w	r2, [r6], #4
  40aeea:	fa1f fa84 	uxth.w	sl, r4
  40aeee:	448a      	add	sl, r1
  40aef0:	fa1f f982 	uxth.w	r9, r2
  40aef4:	0c11      	lsrs	r1, r2, #16
  40aef6:	ebc1 4114 	rsb	r1, r1, r4, lsr #16
  40aefa:	ebc9 020a 	rsb	r2, r9, sl
  40aefe:	eb01 4122 	add.w	r1, r1, r2, asr #16
  40af02:	b292      	uxth	r2, r2
  40af04:	ea42 4201 	orr.w	r2, r2, r1, lsl #16
  40af08:	45b0      	cmp	r8, r6
  40af0a:	f843 2b04 	str.w	r2, [r3], #4
  40af0e:	ea4f 4121 	mov.w	r1, r1, asr #16
  40af12:	462c      	mov	r4, r5
  40af14:	d8e5      	bhi.n	40aee2 <__mdiff+0x3e>
  40af16:	45ac      	cmp	ip, r5
  40af18:	4698      	mov	r8, r3
  40af1a:	d915      	bls.n	40af48 <__mdiff+0xa4>
  40af1c:	f854 6b04 	ldr.w	r6, [r4], #4
  40af20:	b2b2      	uxth	r2, r6
  40af22:	4411      	add	r1, r2
  40af24:	0c36      	lsrs	r6, r6, #16
  40af26:	eb06 4621 	add.w	r6, r6, r1, asr #16
  40af2a:	b289      	uxth	r1, r1
  40af2c:	ea41 4206 	orr.w	r2, r1, r6, lsl #16
  40af30:	45a4      	cmp	ip, r4
  40af32:	f843 2b04 	str.w	r2, [r3], #4
  40af36:	ea4f 4126 	mov.w	r1, r6, asr #16
  40af3a:	d8ef      	bhi.n	40af1c <__mdiff+0x78>
  40af3c:	43eb      	mvns	r3, r5
  40af3e:	4463      	add	r3, ip
  40af40:	f023 0303 	bic.w	r3, r3, #3
  40af44:	3304      	adds	r3, #4
  40af46:	4443      	add	r3, r8
  40af48:	3b04      	subs	r3, #4
  40af4a:	b922      	cbnz	r2, 40af56 <__mdiff+0xb2>
  40af4c:	f853 2d04 	ldr.w	r2, [r3, #-4]!
  40af50:	3f01      	subs	r7, #1
  40af52:	2a00      	cmp	r2, #0
  40af54:	d0fa      	beq.n	40af4c <__mdiff+0xa8>
  40af56:	6107      	str	r7, [r0, #16]
  40af58:	e8bd 87f0 	ldmia.w	sp!, {r4, r5, r6, r7, r8, r9, sl, pc}
  40af5c:	462b      	mov	r3, r5
  40af5e:	f04f 0901 	mov.w	r9, #1
  40af62:	4635      	mov	r5, r6
  40af64:	461e      	mov	r6, r3
  40af66:	e7ab      	b.n	40aec0 <__mdiff+0x1c>
  40af68:	4620      	mov	r0, r4
  40af6a:	4639      	mov	r1, r7
  40af6c:	f7ff fd5a 	bl	40aa24 <_Balloc>
  40af70:	2301      	movs	r3, #1
  40af72:	6147      	str	r7, [r0, #20]
  40af74:	6103      	str	r3, [r0, #16]
  40af76:	e8bd 87f0 	ldmia.w	sp!, {r4, r5, r6, r7, r8, r9, sl, pc}
  40af7a:	bf00      	nop

0040af7c <__d2b>:
  40af7c:	e92d 43f0 	stmdb	sp!, {r4, r5, r6, r7, r8, r9, lr}
  40af80:	2101      	movs	r1, #1
  40af82:	b083      	sub	sp, #12
  40af84:	461d      	mov	r5, r3
  40af86:	f3c3 560a 	ubfx	r6, r3, #20, #11
  40af8a:	4614      	mov	r4, r2
  40af8c:	9f0a      	ldr	r7, [sp, #40]	; 0x28
  40af8e:	f7ff fd49 	bl	40aa24 <_Balloc>
  40af92:	f3c5 0313 	ubfx	r3, r5, #0, #20
  40af96:	4680      	mov	r8, r0
  40af98:	b10e      	cbz	r6, 40af9e <__d2b+0x22>
  40af9a:	f443 1380 	orr.w	r3, r3, #1048576	; 0x100000
  40af9e:	9301      	str	r3, [sp, #4]
  40afa0:	b324      	cbz	r4, 40afec <__d2b+0x70>
  40afa2:	a802      	add	r0, sp, #8
  40afa4:	f840 4d08 	str.w	r4, [r0, #-8]!
  40afa8:	4668      	mov	r0, sp
  40afaa:	f7ff fdd5 	bl	40ab58 <__lo0bits>
  40afae:	2800      	cmp	r0, #0
  40afb0:	d135      	bne.n	40b01e <__d2b+0xa2>
  40afb2:	e89d 000c 	ldmia.w	sp, {r2, r3}
  40afb6:	f8c8 2014 	str.w	r2, [r8, #20]
  40afba:	2b00      	cmp	r3, #0
  40afbc:	bf0c      	ite	eq
  40afbe:	2401      	moveq	r4, #1
  40afc0:	2402      	movne	r4, #2
  40afc2:	f8c8 3018 	str.w	r3, [r8, #24]
  40afc6:	f8c8 4010 	str.w	r4, [r8, #16]
  40afca:	b9de      	cbnz	r6, 40b004 <__d2b+0x88>
  40afcc:	eb08 0384 	add.w	r3, r8, r4, lsl #2
  40afd0:	f2a0 4032 	subw	r0, r0, #1074	; 0x432
  40afd4:	6038      	str	r0, [r7, #0]
  40afd6:	6918      	ldr	r0, [r3, #16]
  40afd8:	f7ff fd9e 	bl	40ab18 <__hi0bits>
  40afdc:	9b0b      	ldr	r3, [sp, #44]	; 0x2c
  40afde:	ebc0 1044 	rsb	r0, r0, r4, lsl #5
  40afe2:	6018      	str	r0, [r3, #0]
  40afe4:	4640      	mov	r0, r8
  40afe6:	b003      	add	sp, #12
  40afe8:	e8bd 83f0 	ldmia.w	sp!, {r4, r5, r6, r7, r8, r9, pc}
  40afec:	a801      	add	r0, sp, #4
  40afee:	f7ff fdb3 	bl	40ab58 <__lo0bits>
  40aff2:	9b01      	ldr	r3, [sp, #4]
  40aff4:	2401      	movs	r4, #1
  40aff6:	3020      	adds	r0, #32
  40aff8:	f8c8 3014 	str.w	r3, [r8, #20]
  40affc:	f8c8 4010 	str.w	r4, [r8, #16]
  40b000:	2e00      	cmp	r6, #0
  40b002:	d0e3      	beq.n	40afcc <__d2b+0x50>
  40b004:	f2a6 4933 	subw	r9, r6, #1075	; 0x433
  40b008:	eb09 0300 	add.w	r3, r9, r0
  40b00c:	603b      	str	r3, [r7, #0]
  40b00e:	9b0b      	ldr	r3, [sp, #44]	; 0x2c
  40b010:	f1c0 0035 	rsb	r0, r0, #53	; 0x35
  40b014:	6018      	str	r0, [r3, #0]
  40b016:	4640      	mov	r0, r8
  40b018:	b003      	add	sp, #12
  40b01a:	e8bd 83f0 	ldmia.w	sp!, {r4, r5, r6, r7, r8, r9, pc}
  40b01e:	9b01      	ldr	r3, [sp, #4]
  40b020:	f1c0 0120 	rsb	r1, r0, #32
  40b024:	fa03 f101 	lsl.w	r1, r3, r1
  40b028:	40c3      	lsrs	r3, r0
  40b02a:	9a00      	ldr	r2, [sp, #0]
  40b02c:	9301      	str	r3, [sp, #4]
  40b02e:	430a      	orrs	r2, r1
  40b030:	f8c8 2014 	str.w	r2, [r8, #20]
  40b034:	e7c1      	b.n	40afba <__d2b+0x3e>
  40b036:	bf00      	nop

0040b038 <__fpclassifyd>:
  40b038:	f031 4300 	bics.w	r3, r1, #2147483648	; 0x80000000
  40b03c:	b410      	push	{r4}
  40b03e:	d008      	beq.n	40b052 <__fpclassifyd+0x1a>
  40b040:	4a0f      	ldr	r2, [pc, #60]	; (40b080 <__fpclassifyd+0x48>)
  40b042:	f5a3 1480 	sub.w	r4, r3, #1048576	; 0x100000
  40b046:	4294      	cmp	r4, r2
  40b048:	d80a      	bhi.n	40b060 <__fpclassifyd+0x28>
  40b04a:	2004      	movs	r0, #4
  40b04c:	f85d 4b04 	ldr.w	r4, [sp], #4
  40b050:	4770      	bx	lr
  40b052:	2800      	cmp	r0, #0
  40b054:	bf0c      	ite	eq
  40b056:	2002      	moveq	r0, #2
  40b058:	2003      	movne	r0, #3
  40b05a:	f85d 4b04 	ldr.w	r4, [sp], #4
  40b05e:	4770      	bx	lr
  40b060:	f5b3 1f80 	cmp.w	r3, #1048576	; 0x100000
  40b064:	d201      	bcs.n	40b06a <__fpclassifyd+0x32>
  40b066:	2003      	movs	r0, #3
  40b068:	e7f7      	b.n	40b05a <__fpclassifyd+0x22>
  40b06a:	4a06      	ldr	r2, [pc, #24]	; (40b084 <__fpclassifyd+0x4c>)
  40b06c:	4293      	cmp	r3, r2
  40b06e:	d001      	beq.n	40b074 <__fpclassifyd+0x3c>
  40b070:	2000      	movs	r0, #0
  40b072:	e7f2      	b.n	40b05a <__fpclassifyd+0x22>
  40b074:	f1d0 0001 	rsbs	r0, r0, #1
  40b078:	bf38      	it	cc
  40b07a:	2000      	movcc	r0, #0
  40b07c:	e7ed      	b.n	40b05a <__fpclassifyd+0x22>
  40b07e:	bf00      	nop
  40b080:	7fdfffff 	.word	0x7fdfffff
  40b084:	7ff00000 	.word	0x7ff00000

0040b088 <__sread>:
  40b088:	b510      	push	{r4, lr}
  40b08a:	460c      	mov	r4, r1
  40b08c:	f9b1 100e 	ldrsh.w	r1, [r1, #14]
  40b090:	f000 fa72 	bl	40b578 <_read_r>
  40b094:	2800      	cmp	r0, #0
  40b096:	db03      	blt.n	40b0a0 <__sread+0x18>
  40b098:	6d23      	ldr	r3, [r4, #80]	; 0x50
  40b09a:	4403      	add	r3, r0
  40b09c:	6523      	str	r3, [r4, #80]	; 0x50
  40b09e:	bd10      	pop	{r4, pc}
  40b0a0:	89a3      	ldrh	r3, [r4, #12]
  40b0a2:	f423 5380 	bic.w	r3, r3, #4096	; 0x1000
  40b0a6:	81a3      	strh	r3, [r4, #12]
  40b0a8:	bd10      	pop	{r4, pc}
  40b0aa:	bf00      	nop

0040b0ac <__swrite>:
  40b0ac:	e92d 41f0 	stmdb	sp!, {r4, r5, r6, r7, r8, lr}
  40b0b0:	460c      	mov	r4, r1
  40b0b2:	8989      	ldrh	r1, [r1, #12]
  40b0b4:	461d      	mov	r5, r3
  40b0b6:	05cb      	lsls	r3, r1, #23
  40b0b8:	4616      	mov	r6, r2
  40b0ba:	4607      	mov	r7, r0
  40b0bc:	d506      	bpl.n	40b0cc <__swrite+0x20>
  40b0be:	f9b4 100e 	ldrsh.w	r1, [r4, #14]
  40b0c2:	2200      	movs	r2, #0
  40b0c4:	2302      	movs	r3, #2
  40b0c6:	f000 fa43 	bl	40b550 <_lseek_r>
  40b0ca:	89a1      	ldrh	r1, [r4, #12]
  40b0cc:	f421 5180 	bic.w	r1, r1, #4096	; 0x1000
  40b0d0:	81a1      	strh	r1, [r4, #12]
  40b0d2:	4638      	mov	r0, r7
  40b0d4:	f9b4 100e 	ldrsh.w	r1, [r4, #14]
  40b0d8:	4632      	mov	r2, r6
  40b0da:	462b      	mov	r3, r5
  40b0dc:	e8bd 41f0 	ldmia.w	sp!, {r4, r5, r6, r7, r8, lr}
  40b0e0:	f000 b91e 	b.w	40b320 <_write_r>

0040b0e4 <__sseek>:
  40b0e4:	b510      	push	{r4, lr}
  40b0e6:	460c      	mov	r4, r1
  40b0e8:	f9b1 100e 	ldrsh.w	r1, [r1, #14]
  40b0ec:	f000 fa30 	bl	40b550 <_lseek_r>
  40b0f0:	89a3      	ldrh	r3, [r4, #12]
  40b0f2:	1c42      	adds	r2, r0, #1
  40b0f4:	bf0e      	itee	eq
  40b0f6:	f423 5380 	biceq.w	r3, r3, #4096	; 0x1000
  40b0fa:	f443 5380 	orrne.w	r3, r3, #4096	; 0x1000
  40b0fe:	6520      	strne	r0, [r4, #80]	; 0x50
  40b100:	81a3      	strh	r3, [r4, #12]
  40b102:	bd10      	pop	{r4, pc}

0040b104 <__sclose>:
  40b104:	f9b1 100e 	ldrsh.w	r1, [r1, #14]
  40b108:	f000 b9a2 	b.w	40b450 <_close_r>

0040b10c <__ssprint_r>:
  40b10c:	e92d 4ff0 	stmdb	sp!, {r4, r5, r6, r7, r8, r9, sl, fp, lr}
  40b110:	6894      	ldr	r4, [r2, #8]
  40b112:	b083      	sub	sp, #12
  40b114:	4692      	mov	sl, r2
  40b116:	4680      	mov	r8, r0
  40b118:	460d      	mov	r5, r1
  40b11a:	6816      	ldr	r6, [r2, #0]
  40b11c:	2c00      	cmp	r4, #0
  40b11e:	d06f      	beq.n	40b200 <__ssprint_r+0xf4>
  40b120:	f04f 0b00 	mov.w	fp, #0
  40b124:	6808      	ldr	r0, [r1, #0]
  40b126:	688b      	ldr	r3, [r1, #8]
  40b128:	465c      	mov	r4, fp
  40b12a:	2c00      	cmp	r4, #0
  40b12c:	d043      	beq.n	40b1b6 <__ssprint_r+0xaa>
  40b12e:	429c      	cmp	r4, r3
  40b130:	461f      	mov	r7, r3
  40b132:	d345      	bcc.n	40b1c0 <__ssprint_r+0xb4>
  40b134:	89ab      	ldrh	r3, [r5, #12]
  40b136:	f413 6f90 	tst.w	r3, #1152	; 0x480
  40b13a:	d044      	beq.n	40b1c6 <__ssprint_r+0xba>
  40b13c:	696f      	ldr	r7, [r5, #20]
  40b13e:	6929      	ldr	r1, [r5, #16]
  40b140:	eb07 0747 	add.w	r7, r7, r7, lsl #1
  40b144:	eb07 77d7 	add.w	r7, r7, r7, lsr #31
  40b148:	ebc1 0900 	rsb	r9, r1, r0
  40b14c:	1c62      	adds	r2, r4, #1
  40b14e:	107f      	asrs	r7, r7, #1
  40b150:	444a      	add	r2, r9
  40b152:	4297      	cmp	r7, r2
  40b154:	bf34      	ite	cc
  40b156:	4617      	movcc	r7, r2
  40b158:	463a      	movcs	r2, r7
  40b15a:	055b      	lsls	r3, r3, #21
  40b15c:	d535      	bpl.n	40b1ca <__ssprint_r+0xbe>
  40b15e:	4611      	mov	r1, r2
  40b160:	4640      	mov	r0, r8
  40b162:	f7fa feb7 	bl	405ed4 <_malloc_r>
  40b166:	2800      	cmp	r0, #0
  40b168:	d039      	beq.n	40b1de <__ssprint_r+0xd2>
  40b16a:	6929      	ldr	r1, [r5, #16]
  40b16c:	464a      	mov	r2, r9
  40b16e:	9001      	str	r0, [sp, #4]
  40b170:	f7fb f980 	bl	406474 <memcpy>
  40b174:	89aa      	ldrh	r2, [r5, #12]
  40b176:	9b01      	ldr	r3, [sp, #4]
  40b178:	f422 6290 	bic.w	r2, r2, #1152	; 0x480
  40b17c:	f042 0280 	orr.w	r2, r2, #128	; 0x80
  40b180:	81aa      	strh	r2, [r5, #12]
  40b182:	ebc9 0207 	rsb	r2, r9, r7
  40b186:	eb03 0009 	add.w	r0, r3, r9
  40b18a:	616f      	str	r7, [r5, #20]
  40b18c:	612b      	str	r3, [r5, #16]
  40b18e:	6028      	str	r0, [r5, #0]
  40b190:	60aa      	str	r2, [r5, #8]
  40b192:	4627      	mov	r7, r4
  40b194:	46a1      	mov	r9, r4
  40b196:	464a      	mov	r2, r9
  40b198:	4659      	mov	r1, fp
  40b19a:	f7ff fbdd 	bl	40a958 <memmove>
  40b19e:	f8da 2008 	ldr.w	r2, [sl, #8]
  40b1a2:	68ab      	ldr	r3, [r5, #8]
  40b1a4:	6828      	ldr	r0, [r5, #0]
  40b1a6:	1bdb      	subs	r3, r3, r7
  40b1a8:	4448      	add	r0, r9
  40b1aa:	1b14      	subs	r4, r2, r4
  40b1ac:	60ab      	str	r3, [r5, #8]
  40b1ae:	6028      	str	r0, [r5, #0]
  40b1b0:	f8ca 4008 	str.w	r4, [sl, #8]
  40b1b4:	b324      	cbz	r4, 40b200 <__ssprint_r+0xf4>
  40b1b6:	f8d6 b000 	ldr.w	fp, [r6]
  40b1ba:	6874      	ldr	r4, [r6, #4]
  40b1bc:	3608      	adds	r6, #8
  40b1be:	e7b4      	b.n	40b12a <__ssprint_r+0x1e>
  40b1c0:	4627      	mov	r7, r4
  40b1c2:	46a1      	mov	r9, r4
  40b1c4:	e7e7      	b.n	40b196 <__ssprint_r+0x8a>
  40b1c6:	46b9      	mov	r9, r7
  40b1c8:	e7e5      	b.n	40b196 <__ssprint_r+0x8a>
  40b1ca:	4640      	mov	r0, r8
  40b1cc:	f7fb fa16 	bl	4065fc <_realloc_r>
  40b1d0:	4603      	mov	r3, r0
  40b1d2:	2800      	cmp	r0, #0
  40b1d4:	d1d5      	bne.n	40b182 <__ssprint_r+0x76>
  40b1d6:	4640      	mov	r0, r8
  40b1d8:	6929      	ldr	r1, [r5, #16]
  40b1da:	f7ff f879 	bl	40a2d0 <_free_r>
  40b1de:	89aa      	ldrh	r2, [r5, #12]
  40b1e0:	230c      	movs	r3, #12
  40b1e2:	f8c8 3000 	str.w	r3, [r8]
  40b1e6:	f042 0240 	orr.w	r2, r2, #64	; 0x40
  40b1ea:	2300      	movs	r3, #0
  40b1ec:	f04f 30ff 	mov.w	r0, #4294967295
  40b1f0:	81aa      	strh	r2, [r5, #12]
  40b1f2:	f8ca 3008 	str.w	r3, [sl, #8]
  40b1f6:	f8ca 3004 	str.w	r3, [sl, #4]
  40b1fa:	b003      	add	sp, #12
  40b1fc:	e8bd 8ff0 	ldmia.w	sp!, {r4, r5, r6, r7, r8, r9, sl, fp, pc}
  40b200:	4620      	mov	r0, r4
  40b202:	f8ca 4004 	str.w	r4, [sl, #4]
  40b206:	b003      	add	sp, #12
  40b208:	e8bd 8ff0 	ldmia.w	sp!, {r4, r5, r6, r7, r8, r9, sl, fp, pc}

0040b20c <__swbuf_r>:
  40b20c:	b5f8      	push	{r3, r4, r5, r6, r7, lr}
  40b20e:	460d      	mov	r5, r1
  40b210:	4614      	mov	r4, r2
  40b212:	4607      	mov	r7, r0
  40b214:	b110      	cbz	r0, 40b21c <__swbuf_r+0x10>
  40b216:	6b83      	ldr	r3, [r0, #56]	; 0x38
  40b218:	2b00      	cmp	r3, #0
  40b21a:	d048      	beq.n	40b2ae <__swbuf_r+0xa2>
  40b21c:	89a2      	ldrh	r2, [r4, #12]
  40b21e:	69a0      	ldr	r0, [r4, #24]
  40b220:	b293      	uxth	r3, r2
  40b222:	60a0      	str	r0, [r4, #8]
  40b224:	0718      	lsls	r0, r3, #28
  40b226:	d538      	bpl.n	40b29a <__swbuf_r+0x8e>
  40b228:	6926      	ldr	r6, [r4, #16]
  40b22a:	2e00      	cmp	r6, #0
  40b22c:	d035      	beq.n	40b29a <__swbuf_r+0x8e>
  40b22e:	0499      	lsls	r1, r3, #18
  40b230:	b2ed      	uxtb	r5, r5
  40b232:	d515      	bpl.n	40b260 <__swbuf_r+0x54>
  40b234:	6823      	ldr	r3, [r4, #0]
  40b236:	6962      	ldr	r2, [r4, #20]
  40b238:	1b9e      	subs	r6, r3, r6
  40b23a:	4296      	cmp	r6, r2
  40b23c:	da1c      	bge.n	40b278 <__swbuf_r+0x6c>
  40b23e:	3601      	adds	r6, #1
  40b240:	68a2      	ldr	r2, [r4, #8]
  40b242:	1c59      	adds	r1, r3, #1
  40b244:	3a01      	subs	r2, #1
  40b246:	60a2      	str	r2, [r4, #8]
  40b248:	6021      	str	r1, [r4, #0]
  40b24a:	701d      	strb	r5, [r3, #0]
  40b24c:	6963      	ldr	r3, [r4, #20]
  40b24e:	42b3      	cmp	r3, r6
  40b250:	d01a      	beq.n	40b288 <__swbuf_r+0x7c>
  40b252:	89a3      	ldrh	r3, [r4, #12]
  40b254:	07db      	lsls	r3, r3, #31
  40b256:	d501      	bpl.n	40b25c <__swbuf_r+0x50>
  40b258:	2d0a      	cmp	r5, #10
  40b25a:	d015      	beq.n	40b288 <__swbuf_r+0x7c>
  40b25c:	4628      	mov	r0, r5
  40b25e:	bdf8      	pop	{r3, r4, r5, r6, r7, pc}
  40b260:	6e63      	ldr	r3, [r4, #100]	; 0x64
  40b262:	f442 5200 	orr.w	r2, r2, #8192	; 0x2000
  40b266:	f423 5300 	bic.w	r3, r3, #8192	; 0x2000
  40b26a:	6663      	str	r3, [r4, #100]	; 0x64
  40b26c:	6823      	ldr	r3, [r4, #0]
  40b26e:	81a2      	strh	r2, [r4, #12]
  40b270:	6962      	ldr	r2, [r4, #20]
  40b272:	1b9e      	subs	r6, r3, r6
  40b274:	4296      	cmp	r6, r2
  40b276:	dbe2      	blt.n	40b23e <__swbuf_r+0x32>
  40b278:	4638      	mov	r0, r7
  40b27a:	4621      	mov	r1, r4
  40b27c:	f7fe fec8 	bl	40a010 <_fflush_r>
  40b280:	b940      	cbnz	r0, 40b294 <__swbuf_r+0x88>
  40b282:	6823      	ldr	r3, [r4, #0]
  40b284:	2601      	movs	r6, #1
  40b286:	e7db      	b.n	40b240 <__swbuf_r+0x34>
  40b288:	4638      	mov	r0, r7
  40b28a:	4621      	mov	r1, r4
  40b28c:	f7fe fec0 	bl	40a010 <_fflush_r>
  40b290:	2800      	cmp	r0, #0
  40b292:	d0e3      	beq.n	40b25c <__swbuf_r+0x50>
  40b294:	f04f 30ff 	mov.w	r0, #4294967295
  40b298:	bdf8      	pop	{r3, r4, r5, r6, r7, pc}
  40b29a:	4638      	mov	r0, r7
  40b29c:	4621      	mov	r1, r4
  40b29e:	f7fd fde9 	bl	408e74 <__swsetup_r>
  40b2a2:	2800      	cmp	r0, #0
  40b2a4:	d1f6      	bne.n	40b294 <__swbuf_r+0x88>
  40b2a6:	89a2      	ldrh	r2, [r4, #12]
  40b2a8:	6926      	ldr	r6, [r4, #16]
  40b2aa:	b293      	uxth	r3, r2
  40b2ac:	e7bf      	b.n	40b22e <__swbuf_r+0x22>
  40b2ae:	f7fe fecb 	bl	40a048 <__sinit>
  40b2b2:	e7b3      	b.n	40b21c <__swbuf_r+0x10>

0040b2b4 <_wcrtomb_r>:
  40b2b4:	e92d 41f0 	stmdb	sp!, {r4, r5, r6, r7, r8, lr}
  40b2b8:	461e      	mov	r6, r3
  40b2ba:	b086      	sub	sp, #24
  40b2bc:	460c      	mov	r4, r1
  40b2be:	4605      	mov	r5, r0
  40b2c0:	4617      	mov	r7, r2
  40b2c2:	4b0f      	ldr	r3, [pc, #60]	; (40b300 <_wcrtomb_r+0x4c>)
  40b2c4:	b191      	cbz	r1, 40b2ec <_wcrtomb_r+0x38>
  40b2c6:	f8d3 8000 	ldr.w	r8, [r3]
  40b2ca:	f7ff fa7d 	bl	40a7c8 <__locale_charset>
  40b2ce:	9600      	str	r6, [sp, #0]
  40b2d0:	4603      	mov	r3, r0
  40b2d2:	4621      	mov	r1, r4
  40b2d4:	463a      	mov	r2, r7
  40b2d6:	4628      	mov	r0, r5
  40b2d8:	47c0      	blx	r8
  40b2da:	1c43      	adds	r3, r0, #1
  40b2dc:	d103      	bne.n	40b2e6 <_wcrtomb_r+0x32>
  40b2de:	2200      	movs	r2, #0
  40b2e0:	238a      	movs	r3, #138	; 0x8a
  40b2e2:	6032      	str	r2, [r6, #0]
  40b2e4:	602b      	str	r3, [r5, #0]
  40b2e6:	b006      	add	sp, #24
  40b2e8:	e8bd 81f0 	ldmia.w	sp!, {r4, r5, r6, r7, r8, pc}
  40b2ec:	681f      	ldr	r7, [r3, #0]
  40b2ee:	f7ff fa6b 	bl	40a7c8 <__locale_charset>
  40b2f2:	9600      	str	r6, [sp, #0]
  40b2f4:	4603      	mov	r3, r0
  40b2f6:	4622      	mov	r2, r4
  40b2f8:	4628      	mov	r0, r5
  40b2fa:	a903      	add	r1, sp, #12
  40b2fc:	47b8      	blx	r7
  40b2fe:	e7ec      	b.n	40b2da <_wcrtomb_r+0x26>
  40b300:	20000978 	.word	0x20000978

0040b304 <__ascii_wctomb>:
  40b304:	b121      	cbz	r1, 40b310 <__ascii_wctomb+0xc>
  40b306:	2aff      	cmp	r2, #255	; 0xff
  40b308:	d804      	bhi.n	40b314 <__ascii_wctomb+0x10>
  40b30a:	700a      	strb	r2, [r1, #0]
  40b30c:	2001      	movs	r0, #1
  40b30e:	4770      	bx	lr
  40b310:	4608      	mov	r0, r1
  40b312:	4770      	bx	lr
  40b314:	238a      	movs	r3, #138	; 0x8a
  40b316:	6003      	str	r3, [r0, #0]
  40b318:	f04f 30ff 	mov.w	r0, #4294967295
  40b31c:	4770      	bx	lr
  40b31e:	bf00      	nop

0040b320 <_write_r>:
  40b320:	b570      	push	{r4, r5, r6, lr}
  40b322:	4c08      	ldr	r4, [pc, #32]	; (40b344 <_write_r+0x24>)
  40b324:	4606      	mov	r6, r0
  40b326:	2500      	movs	r5, #0
  40b328:	4608      	mov	r0, r1
  40b32a:	4611      	mov	r1, r2
  40b32c:	461a      	mov	r2, r3
  40b32e:	6025      	str	r5, [r4, #0]
  40b330:	f7f6 f850 	bl	4013d4 <_write>
  40b334:	1c43      	adds	r3, r0, #1
  40b336:	d000      	beq.n	40b33a <_write_r+0x1a>
  40b338:	bd70      	pop	{r4, r5, r6, pc}
  40b33a:	6823      	ldr	r3, [r4, #0]
  40b33c:	2b00      	cmp	r3, #0
  40b33e:	d0fb      	beq.n	40b338 <_write_r+0x18>
  40b340:	6033      	str	r3, [r6, #0]
  40b342:	bd70      	pop	{r4, r5, r6, pc}
  40b344:	20003f20 	.word	0x20003f20

0040b348 <__register_exitproc>:
  40b348:	b5f0      	push	{r4, r5, r6, r7, lr}
  40b34a:	4c27      	ldr	r4, [pc, #156]	; (40b3e8 <__register_exitproc+0xa0>)
  40b34c:	b085      	sub	sp, #20
  40b34e:	6826      	ldr	r6, [r4, #0]
  40b350:	4607      	mov	r7, r0
  40b352:	f8d6 4148 	ldr.w	r4, [r6, #328]	; 0x148
  40b356:	2c00      	cmp	r4, #0
  40b358:	d040      	beq.n	40b3dc <__register_exitproc+0x94>
  40b35a:	6865      	ldr	r5, [r4, #4]
  40b35c:	2d1f      	cmp	r5, #31
  40b35e:	dd1e      	ble.n	40b39e <__register_exitproc+0x56>
  40b360:	4822      	ldr	r0, [pc, #136]	; (40b3ec <__register_exitproc+0xa4>)
  40b362:	b918      	cbnz	r0, 40b36c <__register_exitproc+0x24>
  40b364:	f04f 30ff 	mov.w	r0, #4294967295
  40b368:	b005      	add	sp, #20
  40b36a:	bdf0      	pop	{r4, r5, r6, r7, pc}
  40b36c:	f44f 70c8 	mov.w	r0, #400	; 0x190
  40b370:	9103      	str	r1, [sp, #12]
  40b372:	9202      	str	r2, [sp, #8]
  40b374:	9301      	str	r3, [sp, #4]
  40b376:	f7fa fda5 	bl	405ec4 <malloc>
  40b37a:	9903      	ldr	r1, [sp, #12]
  40b37c:	4604      	mov	r4, r0
  40b37e:	9a02      	ldr	r2, [sp, #8]
  40b380:	9b01      	ldr	r3, [sp, #4]
  40b382:	2800      	cmp	r0, #0
  40b384:	d0ee      	beq.n	40b364 <__register_exitproc+0x1c>
  40b386:	f8d6 5148 	ldr.w	r5, [r6, #328]	; 0x148
  40b38a:	2000      	movs	r0, #0
  40b38c:	6025      	str	r5, [r4, #0]
  40b38e:	6060      	str	r0, [r4, #4]
  40b390:	4605      	mov	r5, r0
  40b392:	f8c6 4148 	str.w	r4, [r6, #328]	; 0x148
  40b396:	f8c4 0188 	str.w	r0, [r4, #392]	; 0x188
  40b39a:	f8c4 018c 	str.w	r0, [r4, #396]	; 0x18c
  40b39e:	b93f      	cbnz	r7, 40b3b0 <__register_exitproc+0x68>
  40b3a0:	1c6b      	adds	r3, r5, #1
  40b3a2:	2000      	movs	r0, #0
  40b3a4:	3502      	adds	r5, #2
  40b3a6:	6063      	str	r3, [r4, #4]
  40b3a8:	f844 1025 	str.w	r1, [r4, r5, lsl #2]
  40b3ac:	b005      	add	sp, #20
  40b3ae:	bdf0      	pop	{r4, r5, r6, r7, pc}
  40b3b0:	2601      	movs	r6, #1
  40b3b2:	40ae      	lsls	r6, r5
  40b3b4:	eb04 0085 	add.w	r0, r4, r5, lsl #2
  40b3b8:	f8c0 2088 	str.w	r2, [r0, #136]	; 0x88
  40b3bc:	f8d4 2188 	ldr.w	r2, [r4, #392]	; 0x188
  40b3c0:	2f02      	cmp	r7, #2
  40b3c2:	ea42 0206 	orr.w	r2, r2, r6
  40b3c6:	f8c4 2188 	str.w	r2, [r4, #392]	; 0x188
  40b3ca:	f8c0 3108 	str.w	r3, [r0, #264]	; 0x108
  40b3ce:	d1e7      	bne.n	40b3a0 <__register_exitproc+0x58>
  40b3d0:	f8d4 318c 	ldr.w	r3, [r4, #396]	; 0x18c
  40b3d4:	431e      	orrs	r6, r3
  40b3d6:	f8c4 618c 	str.w	r6, [r4, #396]	; 0x18c
  40b3da:	e7e1      	b.n	40b3a0 <__register_exitproc+0x58>
  40b3dc:	f506 74a6 	add.w	r4, r6, #332	; 0x14c
  40b3e0:	f8c6 4148 	str.w	r4, [r6, #328]	; 0x148
  40b3e4:	e7b9      	b.n	40b35a <__register_exitproc+0x12>
  40b3e6:	bf00      	nop
  40b3e8:	0040c72c 	.word	0x0040c72c
  40b3ec:	00405ec5 	.word	0x00405ec5

0040b3f0 <_calloc_r>:
  40b3f0:	b510      	push	{r4, lr}
  40b3f2:	fb02 f101 	mul.w	r1, r2, r1
  40b3f6:	f7fa fd6d 	bl	405ed4 <_malloc_r>
  40b3fa:	4604      	mov	r4, r0
  40b3fc:	b168      	cbz	r0, 40b41a <_calloc_r+0x2a>
  40b3fe:	f850 2c04 	ldr.w	r2, [r0, #-4]
  40b402:	f022 0203 	bic.w	r2, r2, #3
  40b406:	3a04      	subs	r2, #4
  40b408:	2a24      	cmp	r2, #36	; 0x24
  40b40a:	d818      	bhi.n	40b43e <_calloc_r+0x4e>
  40b40c:	2a13      	cmp	r2, #19
  40b40e:	d806      	bhi.n	40b41e <_calloc_r+0x2e>
  40b410:	4603      	mov	r3, r0
  40b412:	2200      	movs	r2, #0
  40b414:	601a      	str	r2, [r3, #0]
  40b416:	605a      	str	r2, [r3, #4]
  40b418:	609a      	str	r2, [r3, #8]
  40b41a:	4620      	mov	r0, r4
  40b41c:	bd10      	pop	{r4, pc}
  40b41e:	2300      	movs	r3, #0
  40b420:	2a1b      	cmp	r2, #27
  40b422:	6003      	str	r3, [r0, #0]
  40b424:	6043      	str	r3, [r0, #4]
  40b426:	d90f      	bls.n	40b448 <_calloc_r+0x58>
  40b428:	2a24      	cmp	r2, #36	; 0x24
  40b42a:	6083      	str	r3, [r0, #8]
  40b42c:	60c3      	str	r3, [r0, #12]
  40b42e:	bf05      	ittet	eq
  40b430:	6103      	streq	r3, [r0, #16]
  40b432:	6143      	streq	r3, [r0, #20]
  40b434:	f100 0310 	addne.w	r3, r0, #16
  40b438:	f100 0318 	addeq.w	r3, r0, #24
  40b43c:	e7e9      	b.n	40b412 <_calloc_r+0x22>
  40b43e:	2100      	movs	r1, #0
  40b440:	f7fb f88e 	bl	406560 <memset>
  40b444:	4620      	mov	r0, r4
  40b446:	bd10      	pop	{r4, pc}
  40b448:	f100 0308 	add.w	r3, r0, #8
  40b44c:	e7e1      	b.n	40b412 <_calloc_r+0x22>
  40b44e:	bf00      	nop

0040b450 <_close_r>:
  40b450:	b538      	push	{r3, r4, r5, lr}
  40b452:	4c07      	ldr	r4, [pc, #28]	; (40b470 <_close_r+0x20>)
  40b454:	2300      	movs	r3, #0
  40b456:	4605      	mov	r5, r0
  40b458:	4608      	mov	r0, r1
  40b45a:	6023      	str	r3, [r4, #0]
  40b45c:	f7f6 ff6e 	bl	40233c <_close>
  40b460:	1c43      	adds	r3, r0, #1
  40b462:	d000      	beq.n	40b466 <_close_r+0x16>
  40b464:	bd38      	pop	{r3, r4, r5, pc}
  40b466:	6823      	ldr	r3, [r4, #0]
  40b468:	2b00      	cmp	r3, #0
  40b46a:	d0fb      	beq.n	40b464 <_close_r+0x14>
  40b46c:	602b      	str	r3, [r5, #0]
  40b46e:	bd38      	pop	{r3, r4, r5, pc}
  40b470:	20003f20 	.word	0x20003f20

0040b474 <_fclose_r>:
  40b474:	b570      	push	{r4, r5, r6, lr}
  40b476:	460c      	mov	r4, r1
  40b478:	4605      	mov	r5, r0
  40b47a:	b131      	cbz	r1, 40b48a <_fclose_r+0x16>
  40b47c:	b110      	cbz	r0, 40b484 <_fclose_r+0x10>
  40b47e:	6b83      	ldr	r3, [r0, #56]	; 0x38
  40b480:	2b00      	cmp	r3, #0
  40b482:	d02f      	beq.n	40b4e4 <_fclose_r+0x70>
  40b484:	f9b4 300c 	ldrsh.w	r3, [r4, #12]
  40b488:	b90b      	cbnz	r3, 40b48e <_fclose_r+0x1a>
  40b48a:	2000      	movs	r0, #0
  40b48c:	bd70      	pop	{r4, r5, r6, pc}
  40b48e:	4628      	mov	r0, r5
  40b490:	4621      	mov	r1, r4
  40b492:	f7fe fdbd 	bl	40a010 <_fflush_r>
  40b496:	6ae3      	ldr	r3, [r4, #44]	; 0x2c
  40b498:	4606      	mov	r6, r0
  40b49a:	b133      	cbz	r3, 40b4aa <_fclose_r+0x36>
  40b49c:	4628      	mov	r0, r5
  40b49e:	69e1      	ldr	r1, [r4, #28]
  40b4a0:	4798      	blx	r3
  40b4a2:	2800      	cmp	r0, #0
  40b4a4:	bfb8      	it	lt
  40b4a6:	f04f 36ff 	movlt.w	r6, #4294967295
  40b4aa:	89a3      	ldrh	r3, [r4, #12]
  40b4ac:	061b      	lsls	r3, r3, #24
  40b4ae:	d41c      	bmi.n	40b4ea <_fclose_r+0x76>
  40b4b0:	6b21      	ldr	r1, [r4, #48]	; 0x30
  40b4b2:	b141      	cbz	r1, 40b4c6 <_fclose_r+0x52>
  40b4b4:	f104 0340 	add.w	r3, r4, #64	; 0x40
  40b4b8:	4299      	cmp	r1, r3
  40b4ba:	d002      	beq.n	40b4c2 <_fclose_r+0x4e>
  40b4bc:	4628      	mov	r0, r5
  40b4be:	f7fe ff07 	bl	40a2d0 <_free_r>
  40b4c2:	2300      	movs	r3, #0
  40b4c4:	6323      	str	r3, [r4, #48]	; 0x30
  40b4c6:	6c61      	ldr	r1, [r4, #68]	; 0x44
  40b4c8:	b121      	cbz	r1, 40b4d4 <_fclose_r+0x60>
  40b4ca:	4628      	mov	r0, r5
  40b4cc:	f7fe ff00 	bl	40a2d0 <_free_r>
  40b4d0:	2300      	movs	r3, #0
  40b4d2:	6463      	str	r3, [r4, #68]	; 0x44
  40b4d4:	f7fe fe32 	bl	40a13c <__sfp_lock_acquire>
  40b4d8:	2300      	movs	r3, #0
  40b4da:	81a3      	strh	r3, [r4, #12]
  40b4dc:	f7fe fe30 	bl	40a140 <__sfp_lock_release>
  40b4e0:	4630      	mov	r0, r6
  40b4e2:	bd70      	pop	{r4, r5, r6, pc}
  40b4e4:	f7fe fdb0 	bl	40a048 <__sinit>
  40b4e8:	e7cc      	b.n	40b484 <_fclose_r+0x10>
  40b4ea:	4628      	mov	r0, r5
  40b4ec:	6921      	ldr	r1, [r4, #16]
  40b4ee:	f7fe feef 	bl	40a2d0 <_free_r>
  40b4f2:	e7dd      	b.n	40b4b0 <_fclose_r+0x3c>

0040b4f4 <fclose>:
  40b4f4:	4b02      	ldr	r3, [pc, #8]	; (40b500 <fclose+0xc>)
  40b4f6:	4601      	mov	r1, r0
  40b4f8:	6818      	ldr	r0, [r3, #0]
  40b4fa:	f7ff bfbb 	b.w	40b474 <_fclose_r>
  40b4fe:	bf00      	nop
  40b500:	20000508 	.word	0x20000508

0040b504 <_fstat_r>:
  40b504:	b538      	push	{r3, r4, r5, lr}
  40b506:	4c08      	ldr	r4, [pc, #32]	; (40b528 <_fstat_r+0x24>)
  40b508:	2300      	movs	r3, #0
  40b50a:	4605      	mov	r5, r0
  40b50c:	4608      	mov	r0, r1
  40b50e:	4611      	mov	r1, r2
  40b510:	6023      	str	r3, [r4, #0]
  40b512:	f7f6 ff16 	bl	402342 <_fstat>
  40b516:	1c43      	adds	r3, r0, #1
  40b518:	d000      	beq.n	40b51c <_fstat_r+0x18>
  40b51a:	bd38      	pop	{r3, r4, r5, pc}
  40b51c:	6823      	ldr	r3, [r4, #0]
  40b51e:	2b00      	cmp	r3, #0
  40b520:	d0fb      	beq.n	40b51a <_fstat_r+0x16>
  40b522:	602b      	str	r3, [r5, #0]
  40b524:	bd38      	pop	{r3, r4, r5, pc}
  40b526:	bf00      	nop
  40b528:	20003f20 	.word	0x20003f20

0040b52c <_isatty_r>:
  40b52c:	b538      	push	{r3, r4, r5, lr}
  40b52e:	4c07      	ldr	r4, [pc, #28]	; (40b54c <_isatty_r+0x20>)
  40b530:	2300      	movs	r3, #0
  40b532:	4605      	mov	r5, r0
  40b534:	4608      	mov	r0, r1
  40b536:	6023      	str	r3, [r4, #0]
  40b538:	f7f6 ff08 	bl	40234c <_isatty>
  40b53c:	1c43      	adds	r3, r0, #1
  40b53e:	d000      	beq.n	40b542 <_isatty_r+0x16>
  40b540:	bd38      	pop	{r3, r4, r5, pc}
  40b542:	6823      	ldr	r3, [r4, #0]
  40b544:	2b00      	cmp	r3, #0
  40b546:	d0fb      	beq.n	40b540 <_isatty_r+0x14>
  40b548:	602b      	str	r3, [r5, #0]
  40b54a:	bd38      	pop	{r3, r4, r5, pc}
  40b54c:	20003f20 	.word	0x20003f20

0040b550 <_lseek_r>:
  40b550:	b570      	push	{r4, r5, r6, lr}
  40b552:	4c08      	ldr	r4, [pc, #32]	; (40b574 <_lseek_r+0x24>)
  40b554:	4606      	mov	r6, r0
  40b556:	2500      	movs	r5, #0
  40b558:	4608      	mov	r0, r1
  40b55a:	4611      	mov	r1, r2
  40b55c:	461a      	mov	r2, r3
  40b55e:	6025      	str	r5, [r4, #0]
  40b560:	f7f6 fef6 	bl	402350 <_lseek>
  40b564:	1c43      	adds	r3, r0, #1
  40b566:	d000      	beq.n	40b56a <_lseek_r+0x1a>
  40b568:	bd70      	pop	{r4, r5, r6, pc}
  40b56a:	6823      	ldr	r3, [r4, #0]
  40b56c:	2b00      	cmp	r3, #0
  40b56e:	d0fb      	beq.n	40b568 <_lseek_r+0x18>
  40b570:	6033      	str	r3, [r6, #0]
  40b572:	bd70      	pop	{r4, r5, r6, pc}
  40b574:	20003f20 	.word	0x20003f20

0040b578 <_read_r>:
  40b578:	b570      	push	{r4, r5, r6, lr}
  40b57a:	4c08      	ldr	r4, [pc, #32]	; (40b59c <_read_r+0x24>)
  40b57c:	4606      	mov	r6, r0
  40b57e:	2500      	movs	r5, #0
  40b580:	4608      	mov	r0, r1
  40b582:	4611      	mov	r1, r2
  40b584:	461a      	mov	r2, r3
  40b586:	6025      	str	r5, [r4, #0]
  40b588:	f7f5 ff08 	bl	40139c <_read>
  40b58c:	1c43      	adds	r3, r0, #1
  40b58e:	d000      	beq.n	40b592 <_read_r+0x1a>
  40b590:	bd70      	pop	{r4, r5, r6, pc}
  40b592:	6823      	ldr	r3, [r4, #0]
  40b594:	2b00      	cmp	r3, #0
  40b596:	d0fb      	beq.n	40b590 <_read_r+0x18>
  40b598:	6033      	str	r3, [r6, #0]
  40b59a:	bd70      	pop	{r4, r5, r6, pc}
  40b59c:	20003f20 	.word	0x20003f20

0040b5a0 <__aeabi_uldivmod>:
  40b5a0:	b94b      	cbnz	r3, 40b5b6 <__aeabi_uldivmod+0x16>
  40b5a2:	b942      	cbnz	r2, 40b5b6 <__aeabi_uldivmod+0x16>
  40b5a4:	2900      	cmp	r1, #0
  40b5a6:	bf08      	it	eq
  40b5a8:	2800      	cmpeq	r0, #0
  40b5aa:	d002      	beq.n	40b5b2 <__aeabi_uldivmod+0x12>
  40b5ac:	f04f 31ff 	mov.w	r1, #4294967295
  40b5b0:	4608      	mov	r0, r1
  40b5b2:	f000 b83b 	b.w	40b62c <__aeabi_idiv0>
  40b5b6:	b082      	sub	sp, #8
  40b5b8:	46ec      	mov	ip, sp
  40b5ba:	e92d 5000 	stmdb	sp!, {ip, lr}
  40b5be:	f000 f81d 	bl	40b5fc <__gnu_uldivmod_helper>
  40b5c2:	f8dd e004 	ldr.w	lr, [sp, #4]
  40b5c6:	b002      	add	sp, #8
  40b5c8:	bc0c      	pop	{r2, r3}
  40b5ca:	4770      	bx	lr

0040b5cc <__gnu_ldivmod_helper>:
  40b5cc:	e92d 4f70 	stmdb	sp!, {r4, r5, r6, r8, r9, sl, fp, lr}
  40b5d0:	9e08      	ldr	r6, [sp, #32]
  40b5d2:	4614      	mov	r4, r2
  40b5d4:	461d      	mov	r5, r3
  40b5d6:	4680      	mov	r8, r0
  40b5d8:	4689      	mov	r9, r1
  40b5da:	f000 f829 	bl	40b630 <__divdi3>
  40b5de:	fb04 f301 	mul.w	r3, r4, r1
  40b5e2:	fba4 ab00 	umull	sl, fp, r4, r0
  40b5e6:	fb00 3205 	mla	r2, r0, r5, r3
  40b5ea:	4493      	add	fp, r2
  40b5ec:	ebb8 080a 	subs.w	r8, r8, sl
  40b5f0:	eb69 090b 	sbc.w	r9, r9, fp
  40b5f4:	e9c6 8900 	strd	r8, r9, [r6]
  40b5f8:	e8bd 8f70 	ldmia.w	sp!, {r4, r5, r6, r8, r9, sl, fp, pc}

0040b5fc <__gnu_uldivmod_helper>:
  40b5fc:	e92d 4f70 	stmdb	sp!, {r4, r5, r6, r8, r9, sl, fp, lr}
  40b600:	9e08      	ldr	r6, [sp, #32]
  40b602:	4614      	mov	r4, r2
  40b604:	461d      	mov	r5, r3
  40b606:	4680      	mov	r8, r0
  40b608:	4689      	mov	r9, r1
  40b60a:	f000 f961 	bl	40b8d0 <__udivdi3>
  40b60e:	fb00 f505 	mul.w	r5, r0, r5
  40b612:	fba0 ab04 	umull	sl, fp, r0, r4
  40b616:	fb04 5401 	mla	r4, r4, r1, r5
  40b61a:	44a3      	add	fp, r4
  40b61c:	ebb8 080a 	subs.w	r8, r8, sl
  40b620:	eb69 090b 	sbc.w	r9, r9, fp
  40b624:	e9c6 8900 	strd	r8, r9, [r6]
  40b628:	e8bd 8f70 	ldmia.w	sp!, {r4, r5, r6, r8, r9, sl, fp, pc}

0040b62c <__aeabi_idiv0>:
  40b62c:	4770      	bx	lr
  40b62e:	bf00      	nop

0040b630 <__divdi3>:
  40b630:	2900      	cmp	r1, #0
  40b632:	e92d 0ff0 	stmdb	sp!, {r4, r5, r6, r7, r8, r9, sl, fp}
  40b636:	f2c0 80a1 	blt.w	40b77c <__divdi3+0x14c>
  40b63a:	2400      	movs	r4, #0
  40b63c:	2b00      	cmp	r3, #0
  40b63e:	f2c0 8098 	blt.w	40b772 <__divdi3+0x142>
  40b642:	4615      	mov	r5, r2
  40b644:	4606      	mov	r6, r0
  40b646:	460f      	mov	r7, r1
  40b648:	2b00      	cmp	r3, #0
  40b64a:	d13f      	bne.n	40b6cc <__divdi3+0x9c>
  40b64c:	428a      	cmp	r2, r1
  40b64e:	d958      	bls.n	40b702 <__divdi3+0xd2>
  40b650:	fab2 f382 	clz	r3, r2
  40b654:	b14b      	cbz	r3, 40b66a <__divdi3+0x3a>
  40b656:	f1c3 0220 	rsb	r2, r3, #32
  40b65a:	fa01 f703 	lsl.w	r7, r1, r3
  40b65e:	fa20 f202 	lsr.w	r2, r0, r2
  40b662:	409d      	lsls	r5, r3
  40b664:	fa00 f603 	lsl.w	r6, r0, r3
  40b668:	4317      	orrs	r7, r2
  40b66a:	0c29      	lsrs	r1, r5, #16
  40b66c:	fbb7 f2f1 	udiv	r2, r7, r1
  40b670:	fb01 7712 	mls	r7, r1, r2, r7
  40b674:	b2a8      	uxth	r0, r5
  40b676:	fb00 f302 	mul.w	r3, r0, r2
  40b67a:	ea4f 4c16 	mov.w	ip, r6, lsr #16
  40b67e:	ea4c 4707 	orr.w	r7, ip, r7, lsl #16
  40b682:	42bb      	cmp	r3, r7
  40b684:	d909      	bls.n	40b69a <__divdi3+0x6a>
  40b686:	197f      	adds	r7, r7, r5
  40b688:	f102 3cff 	add.w	ip, r2, #4294967295
  40b68c:	f080 8105 	bcs.w	40b89a <__divdi3+0x26a>
  40b690:	42bb      	cmp	r3, r7
  40b692:	f240 8102 	bls.w	40b89a <__divdi3+0x26a>
  40b696:	3a02      	subs	r2, #2
  40b698:	442f      	add	r7, r5
  40b69a:	1aff      	subs	r7, r7, r3
  40b69c:	fbb7 f3f1 	udiv	r3, r7, r1
  40b6a0:	fb01 7113 	mls	r1, r1, r3, r7
  40b6a4:	fb00 f003 	mul.w	r0, r0, r3
  40b6a8:	b2b6      	uxth	r6, r6
  40b6aa:	ea46 4101 	orr.w	r1, r6, r1, lsl #16
  40b6ae:	4288      	cmp	r0, r1
  40b6b0:	d908      	bls.n	40b6c4 <__divdi3+0x94>
  40b6b2:	1949      	adds	r1, r1, r5
  40b6b4:	f103 37ff 	add.w	r7, r3, #4294967295
  40b6b8:	f080 80f1 	bcs.w	40b89e <__divdi3+0x26e>
  40b6bc:	4288      	cmp	r0, r1
  40b6be:	f240 80ee 	bls.w	40b89e <__divdi3+0x26e>
  40b6c2:	3b02      	subs	r3, #2
  40b6c4:	ea43 4202 	orr.w	r2, r3, r2, lsl #16
  40b6c8:	2300      	movs	r3, #0
  40b6ca:	e003      	b.n	40b6d4 <__divdi3+0xa4>
  40b6cc:	428b      	cmp	r3, r1
  40b6ce:	d90a      	bls.n	40b6e6 <__divdi3+0xb6>
  40b6d0:	2300      	movs	r3, #0
  40b6d2:	461a      	mov	r2, r3
  40b6d4:	4610      	mov	r0, r2
  40b6d6:	4619      	mov	r1, r3
  40b6d8:	b114      	cbz	r4, 40b6e0 <__divdi3+0xb0>
  40b6da:	4240      	negs	r0, r0
  40b6dc:	eb61 0141 	sbc.w	r1, r1, r1, lsl #1
  40b6e0:	e8bd 0ff0 	ldmia.w	sp!, {r4, r5, r6, r7, r8, r9, sl, fp}
  40b6e4:	4770      	bx	lr
  40b6e6:	fab3 f883 	clz	r8, r3
  40b6ea:	f1b8 0f00 	cmp.w	r8, #0
  40b6ee:	f040 8088 	bne.w	40b802 <__divdi3+0x1d2>
  40b6f2:	428b      	cmp	r3, r1
  40b6f4:	d302      	bcc.n	40b6fc <__divdi3+0xcc>
  40b6f6:	4282      	cmp	r2, r0
  40b6f8:	f200 80e2 	bhi.w	40b8c0 <__divdi3+0x290>
  40b6fc:	2300      	movs	r3, #0
  40b6fe:	2201      	movs	r2, #1
  40b700:	e7e8      	b.n	40b6d4 <__divdi3+0xa4>
  40b702:	b912      	cbnz	r2, 40b70a <__divdi3+0xda>
  40b704:	2301      	movs	r3, #1
  40b706:	fbb3 f5f2 	udiv	r5, r3, r2
  40b70a:	fab5 f285 	clz	r2, r5
  40b70e:	2a00      	cmp	r2, #0
  40b710:	d13a      	bne.n	40b788 <__divdi3+0x158>
  40b712:	1b7f      	subs	r7, r7, r5
  40b714:	0c28      	lsrs	r0, r5, #16
  40b716:	fa1f fc85 	uxth.w	ip, r5
  40b71a:	2301      	movs	r3, #1
  40b71c:	fbb7 f1f0 	udiv	r1, r7, r0
  40b720:	fb00 7711 	mls	r7, r0, r1, r7
  40b724:	fb0c f201 	mul.w	r2, ip, r1
  40b728:	ea4f 4816 	mov.w	r8, r6, lsr #16
  40b72c:	ea48 4707 	orr.w	r7, r8, r7, lsl #16
  40b730:	42ba      	cmp	r2, r7
  40b732:	d907      	bls.n	40b744 <__divdi3+0x114>
  40b734:	197f      	adds	r7, r7, r5
  40b736:	f101 38ff 	add.w	r8, r1, #4294967295
  40b73a:	d202      	bcs.n	40b742 <__divdi3+0x112>
  40b73c:	42ba      	cmp	r2, r7
  40b73e:	f200 80c4 	bhi.w	40b8ca <__divdi3+0x29a>
  40b742:	4641      	mov	r1, r8
  40b744:	1abf      	subs	r7, r7, r2
  40b746:	fbb7 f2f0 	udiv	r2, r7, r0
  40b74a:	fb00 7012 	mls	r0, r0, r2, r7
  40b74e:	fb0c fc02 	mul.w	ip, ip, r2
  40b752:	b2b6      	uxth	r6, r6
  40b754:	ea46 4000 	orr.w	r0, r6, r0, lsl #16
  40b758:	4584      	cmp	ip, r0
  40b75a:	d907      	bls.n	40b76c <__divdi3+0x13c>
  40b75c:	1940      	adds	r0, r0, r5
  40b75e:	f102 37ff 	add.w	r7, r2, #4294967295
  40b762:	d202      	bcs.n	40b76a <__divdi3+0x13a>
  40b764:	4584      	cmp	ip, r0
  40b766:	f200 80ae 	bhi.w	40b8c6 <__divdi3+0x296>
  40b76a:	463a      	mov	r2, r7
  40b76c:	ea42 4201 	orr.w	r2, r2, r1, lsl #16
  40b770:	e7b0      	b.n	40b6d4 <__divdi3+0xa4>
  40b772:	43e4      	mvns	r4, r4
  40b774:	4252      	negs	r2, r2
  40b776:	eb63 0343 	sbc.w	r3, r3, r3, lsl #1
  40b77a:	e762      	b.n	40b642 <__divdi3+0x12>
  40b77c:	4240      	negs	r0, r0
  40b77e:	eb61 0141 	sbc.w	r1, r1, r1, lsl #1
  40b782:	f04f 34ff 	mov.w	r4, #4294967295
  40b786:	e759      	b.n	40b63c <__divdi3+0xc>
  40b788:	4095      	lsls	r5, r2
  40b78a:	f1c2 0920 	rsb	r9, r2, #32
  40b78e:	fa27 f109 	lsr.w	r1, r7, r9
  40b792:	fa26 f909 	lsr.w	r9, r6, r9
  40b796:	4097      	lsls	r7, r2
  40b798:	0c28      	lsrs	r0, r5, #16
  40b79a:	fbb1 f8f0 	udiv	r8, r1, r0
  40b79e:	fb00 1118 	mls	r1, r0, r8, r1
  40b7a2:	fa1f fc85 	uxth.w	ip, r5
  40b7a6:	fb0c f308 	mul.w	r3, ip, r8
  40b7aa:	ea49 0907 	orr.w	r9, r9, r7
  40b7ae:	ea4f 4719 	mov.w	r7, r9, lsr #16
  40b7b2:	ea47 4101 	orr.w	r1, r7, r1, lsl #16
  40b7b6:	428b      	cmp	r3, r1
  40b7b8:	fa06 f602 	lsl.w	r6, r6, r2
  40b7bc:	d908      	bls.n	40b7d0 <__divdi3+0x1a0>
  40b7be:	1949      	adds	r1, r1, r5
  40b7c0:	f108 32ff 	add.w	r2, r8, #4294967295
  40b7c4:	d27a      	bcs.n	40b8bc <__divdi3+0x28c>
  40b7c6:	428b      	cmp	r3, r1
  40b7c8:	d978      	bls.n	40b8bc <__divdi3+0x28c>
  40b7ca:	f1a8 0802 	sub.w	r8, r8, #2
  40b7ce:	4429      	add	r1, r5
  40b7d0:	1ac9      	subs	r1, r1, r3
  40b7d2:	fbb1 f3f0 	udiv	r3, r1, r0
  40b7d6:	fb00 1713 	mls	r7, r0, r3, r1
  40b7da:	fb0c f203 	mul.w	r2, ip, r3
  40b7de:	fa1f f989 	uxth.w	r9, r9
  40b7e2:	ea49 4707 	orr.w	r7, r9, r7, lsl #16
  40b7e6:	42ba      	cmp	r2, r7
  40b7e8:	d907      	bls.n	40b7fa <__divdi3+0x1ca>
  40b7ea:	197f      	adds	r7, r7, r5
  40b7ec:	f103 31ff 	add.w	r1, r3, #4294967295
  40b7f0:	d260      	bcs.n	40b8b4 <__divdi3+0x284>
  40b7f2:	42ba      	cmp	r2, r7
  40b7f4:	d95e      	bls.n	40b8b4 <__divdi3+0x284>
  40b7f6:	3b02      	subs	r3, #2
  40b7f8:	442f      	add	r7, r5
  40b7fa:	1abf      	subs	r7, r7, r2
  40b7fc:	ea43 4308 	orr.w	r3, r3, r8, lsl #16
  40b800:	e78c      	b.n	40b71c <__divdi3+0xec>
  40b802:	f1c8 0220 	rsb	r2, r8, #32
  40b806:	fa25 f102 	lsr.w	r1, r5, r2
  40b80a:	fa03 fc08 	lsl.w	ip, r3, r8
  40b80e:	fa27 f302 	lsr.w	r3, r7, r2
  40b812:	fa20 f202 	lsr.w	r2, r0, r2
  40b816:	fa07 f708 	lsl.w	r7, r7, r8
  40b81a:	ea41 0c0c 	orr.w	ip, r1, ip
  40b81e:	ea4f 491c 	mov.w	r9, ip, lsr #16
  40b822:	fbb3 f1f9 	udiv	r1, r3, r9
  40b826:	fb09 3311 	mls	r3, r9, r1, r3
  40b82a:	fa1f fa8c 	uxth.w	sl, ip
  40b82e:	fb0a fb01 	mul.w	fp, sl, r1
  40b832:	4317      	orrs	r7, r2
  40b834:	0c3a      	lsrs	r2, r7, #16
  40b836:	ea42 4303 	orr.w	r3, r2, r3, lsl #16
  40b83a:	459b      	cmp	fp, r3
  40b83c:	fa05 f008 	lsl.w	r0, r5, r8
  40b840:	d908      	bls.n	40b854 <__divdi3+0x224>
  40b842:	eb13 030c 	adds.w	r3, r3, ip
  40b846:	f101 32ff 	add.w	r2, r1, #4294967295
  40b84a:	d235      	bcs.n	40b8b8 <__divdi3+0x288>
  40b84c:	459b      	cmp	fp, r3
  40b84e:	d933      	bls.n	40b8b8 <__divdi3+0x288>
  40b850:	3902      	subs	r1, #2
  40b852:	4463      	add	r3, ip
  40b854:	ebcb 0303 	rsb	r3, fp, r3
  40b858:	fbb3 f2f9 	udiv	r2, r3, r9
  40b85c:	fb09 3312 	mls	r3, r9, r2, r3
  40b860:	fb0a fa02 	mul.w	sl, sl, r2
  40b864:	b2bf      	uxth	r7, r7
  40b866:	ea47 4703 	orr.w	r7, r7, r3, lsl #16
  40b86a:	45ba      	cmp	sl, r7
  40b86c:	d908      	bls.n	40b880 <__divdi3+0x250>
  40b86e:	eb17 070c 	adds.w	r7, r7, ip
  40b872:	f102 33ff 	add.w	r3, r2, #4294967295
  40b876:	d21b      	bcs.n	40b8b0 <__divdi3+0x280>
  40b878:	45ba      	cmp	sl, r7
  40b87a:	d919      	bls.n	40b8b0 <__divdi3+0x280>
  40b87c:	3a02      	subs	r2, #2
  40b87e:	4467      	add	r7, ip
  40b880:	ea42 4501 	orr.w	r5, r2, r1, lsl #16
  40b884:	fba5 0100 	umull	r0, r1, r5, r0
  40b888:	ebca 0707 	rsb	r7, sl, r7
  40b88c:	428f      	cmp	r7, r1
  40b88e:	f04f 0300 	mov.w	r3, #0
  40b892:	d30a      	bcc.n	40b8aa <__divdi3+0x27a>
  40b894:	d005      	beq.n	40b8a2 <__divdi3+0x272>
  40b896:	462a      	mov	r2, r5
  40b898:	e71c      	b.n	40b6d4 <__divdi3+0xa4>
  40b89a:	4662      	mov	r2, ip
  40b89c:	e6fd      	b.n	40b69a <__divdi3+0x6a>
  40b89e:	463b      	mov	r3, r7
  40b8a0:	e710      	b.n	40b6c4 <__divdi3+0x94>
  40b8a2:	fa06 f608 	lsl.w	r6, r6, r8
  40b8a6:	4286      	cmp	r6, r0
  40b8a8:	d2f5      	bcs.n	40b896 <__divdi3+0x266>
  40b8aa:	1e6a      	subs	r2, r5, #1
  40b8ac:	2300      	movs	r3, #0
  40b8ae:	e711      	b.n	40b6d4 <__divdi3+0xa4>
  40b8b0:	461a      	mov	r2, r3
  40b8b2:	e7e5      	b.n	40b880 <__divdi3+0x250>
  40b8b4:	460b      	mov	r3, r1
  40b8b6:	e7a0      	b.n	40b7fa <__divdi3+0x1ca>
  40b8b8:	4611      	mov	r1, r2
  40b8ba:	e7cb      	b.n	40b854 <__divdi3+0x224>
  40b8bc:	4690      	mov	r8, r2
  40b8be:	e787      	b.n	40b7d0 <__divdi3+0x1a0>
  40b8c0:	4643      	mov	r3, r8
  40b8c2:	4642      	mov	r2, r8
  40b8c4:	e706      	b.n	40b6d4 <__divdi3+0xa4>
  40b8c6:	3a02      	subs	r2, #2
  40b8c8:	e750      	b.n	40b76c <__divdi3+0x13c>
  40b8ca:	3902      	subs	r1, #2
  40b8cc:	442f      	add	r7, r5
  40b8ce:	e739      	b.n	40b744 <__divdi3+0x114>

0040b8d0 <__udivdi3>:
  40b8d0:	e92d 0ff0 	stmdb	sp!, {r4, r5, r6, r7, r8, r9, sl, fp}
  40b8d4:	4614      	mov	r4, r2
  40b8d6:	4605      	mov	r5, r0
  40b8d8:	460e      	mov	r6, r1
  40b8da:	2b00      	cmp	r3, #0
  40b8dc:	d143      	bne.n	40b966 <__udivdi3+0x96>
  40b8de:	428a      	cmp	r2, r1
  40b8e0:	d953      	bls.n	40b98a <__udivdi3+0xba>
  40b8e2:	fab2 f782 	clz	r7, r2
  40b8e6:	b157      	cbz	r7, 40b8fe <__udivdi3+0x2e>
  40b8e8:	f1c7 0620 	rsb	r6, r7, #32
  40b8ec:	fa20 f606 	lsr.w	r6, r0, r6
  40b8f0:	fa01 f307 	lsl.w	r3, r1, r7
  40b8f4:	fa02 f407 	lsl.w	r4, r2, r7
  40b8f8:	fa00 f507 	lsl.w	r5, r0, r7
  40b8fc:	431e      	orrs	r6, r3
  40b8fe:	0c21      	lsrs	r1, r4, #16
  40b900:	fbb6 f2f1 	udiv	r2, r6, r1
  40b904:	fb01 6612 	mls	r6, r1, r2, r6
  40b908:	b2a0      	uxth	r0, r4
  40b90a:	fb00 f302 	mul.w	r3, r0, r2
  40b90e:	0c2f      	lsrs	r7, r5, #16
  40b910:	ea47 4606 	orr.w	r6, r7, r6, lsl #16
  40b914:	42b3      	cmp	r3, r6
  40b916:	d909      	bls.n	40b92c <__udivdi3+0x5c>
  40b918:	1936      	adds	r6, r6, r4
  40b91a:	f102 37ff 	add.w	r7, r2, #4294967295
  40b91e:	f080 80fd 	bcs.w	40bb1c <__udivdi3+0x24c>
  40b922:	42b3      	cmp	r3, r6
  40b924:	f240 80fa 	bls.w	40bb1c <__udivdi3+0x24c>
  40b928:	3a02      	subs	r2, #2
  40b92a:	4426      	add	r6, r4
  40b92c:	1af6      	subs	r6, r6, r3
  40b92e:	fbb6 f3f1 	udiv	r3, r6, r1
  40b932:	fb01 6113 	mls	r1, r1, r3, r6
  40b936:	fb00 f003 	mul.w	r0, r0, r3
  40b93a:	b2ad      	uxth	r5, r5
  40b93c:	ea45 4101 	orr.w	r1, r5, r1, lsl #16
  40b940:	4288      	cmp	r0, r1
  40b942:	d908      	bls.n	40b956 <__udivdi3+0x86>
  40b944:	1909      	adds	r1, r1, r4
  40b946:	f103 36ff 	add.w	r6, r3, #4294967295
  40b94a:	f080 80e9 	bcs.w	40bb20 <__udivdi3+0x250>
  40b94e:	4288      	cmp	r0, r1
  40b950:	f240 80e6 	bls.w	40bb20 <__udivdi3+0x250>
  40b954:	3b02      	subs	r3, #2
  40b956:	ea43 4202 	orr.w	r2, r3, r2, lsl #16
  40b95a:	2300      	movs	r3, #0
  40b95c:	4610      	mov	r0, r2
  40b95e:	4619      	mov	r1, r3
  40b960:	e8bd 0ff0 	ldmia.w	sp!, {r4, r5, r6, r7, r8, r9, sl, fp}
  40b964:	4770      	bx	lr
  40b966:	428b      	cmp	r3, r1
  40b968:	d84c      	bhi.n	40ba04 <__udivdi3+0x134>
  40b96a:	fab3 f683 	clz	r6, r3
  40b96e:	2e00      	cmp	r6, #0
  40b970:	d14f      	bne.n	40ba12 <__udivdi3+0x142>
  40b972:	428b      	cmp	r3, r1
  40b974:	d302      	bcc.n	40b97c <__udivdi3+0xac>
  40b976:	4282      	cmp	r2, r0
  40b978:	f200 80dd 	bhi.w	40bb36 <__udivdi3+0x266>
  40b97c:	e8bd 0ff0 	ldmia.w	sp!, {r4, r5, r6, r7, r8, r9, sl, fp}
  40b980:	2300      	movs	r3, #0
  40b982:	2201      	movs	r2, #1
  40b984:	4610      	mov	r0, r2
  40b986:	4619      	mov	r1, r3
  40b988:	4770      	bx	lr
  40b98a:	b912      	cbnz	r2, 40b992 <__udivdi3+0xc2>
  40b98c:	2401      	movs	r4, #1
  40b98e:	fbb4 f4f2 	udiv	r4, r4, r2
  40b992:	fab4 f284 	clz	r2, r4
  40b996:	2a00      	cmp	r2, #0
  40b998:	f040 8082 	bne.w	40baa0 <__udivdi3+0x1d0>
  40b99c:	1b09      	subs	r1, r1, r4
  40b99e:	0c26      	lsrs	r6, r4, #16
  40b9a0:	b2a7      	uxth	r7, r4
  40b9a2:	2301      	movs	r3, #1
  40b9a4:	fbb1 f0f6 	udiv	r0, r1, r6
  40b9a8:	fb06 1110 	mls	r1, r6, r0, r1
  40b9ac:	fb07 f200 	mul.w	r2, r7, r0
  40b9b0:	ea4f 4c15 	mov.w	ip, r5, lsr #16
  40b9b4:	ea4c 4101 	orr.w	r1, ip, r1, lsl #16
  40b9b8:	428a      	cmp	r2, r1
  40b9ba:	d907      	bls.n	40b9cc <__udivdi3+0xfc>
  40b9bc:	1909      	adds	r1, r1, r4
  40b9be:	f100 3cff 	add.w	ip, r0, #4294967295
  40b9c2:	d202      	bcs.n	40b9ca <__udivdi3+0xfa>
  40b9c4:	428a      	cmp	r2, r1
  40b9c6:	f200 80c8 	bhi.w	40bb5a <__udivdi3+0x28a>
  40b9ca:	4660      	mov	r0, ip
  40b9cc:	1a89      	subs	r1, r1, r2
  40b9ce:	fbb1 f2f6 	udiv	r2, r1, r6
  40b9d2:	fb06 1112 	mls	r1, r6, r2, r1
  40b9d6:	fb07 f702 	mul.w	r7, r7, r2
  40b9da:	b2ad      	uxth	r5, r5
  40b9dc:	ea45 4501 	orr.w	r5, r5, r1, lsl #16
  40b9e0:	42af      	cmp	r7, r5
  40b9e2:	d908      	bls.n	40b9f6 <__udivdi3+0x126>
  40b9e4:	192c      	adds	r4, r5, r4
  40b9e6:	f102 31ff 	add.w	r1, r2, #4294967295
  40b9ea:	f080 809b 	bcs.w	40bb24 <__udivdi3+0x254>
  40b9ee:	42a7      	cmp	r7, r4
  40b9f0:	f240 8098 	bls.w	40bb24 <__udivdi3+0x254>
  40b9f4:	3a02      	subs	r2, #2
  40b9f6:	ea42 4200 	orr.w	r2, r2, r0, lsl #16
  40b9fa:	4610      	mov	r0, r2
  40b9fc:	4619      	mov	r1, r3
  40b9fe:	e8bd 0ff0 	ldmia.w	sp!, {r4, r5, r6, r7, r8, r9, sl, fp}
  40ba02:	4770      	bx	lr
  40ba04:	2300      	movs	r3, #0
  40ba06:	461a      	mov	r2, r3
  40ba08:	4610      	mov	r0, r2
  40ba0a:	4619      	mov	r1, r3
  40ba0c:	e8bd 0ff0 	ldmia.w	sp!, {r4, r5, r6, r7, r8, r9, sl, fp}
  40ba10:	4770      	bx	lr
  40ba12:	f1c6 0520 	rsb	r5, r6, #32
  40ba16:	fa22 f705 	lsr.w	r7, r2, r5
  40ba1a:	fa03 f406 	lsl.w	r4, r3, r6
  40ba1e:	fa21 f305 	lsr.w	r3, r1, r5
  40ba22:	fa01 fb06 	lsl.w	fp, r1, r6
  40ba26:	fa20 f505 	lsr.w	r5, r0, r5
  40ba2a:	433c      	orrs	r4, r7
  40ba2c:	ea4f 4814 	mov.w	r8, r4, lsr #16
  40ba30:	fbb3 fcf8 	udiv	ip, r3, r8
  40ba34:	fb08 331c 	mls	r3, r8, ip, r3
  40ba38:	fa1f f984 	uxth.w	r9, r4
  40ba3c:	fb09 fa0c 	mul.w	sl, r9, ip
  40ba40:	ea45 0b0b 	orr.w	fp, r5, fp
  40ba44:	ea4f 451b 	mov.w	r5, fp, lsr #16
  40ba48:	ea45 4303 	orr.w	r3, r5, r3, lsl #16
  40ba4c:	459a      	cmp	sl, r3
  40ba4e:	fa02 f206 	lsl.w	r2, r2, r6
  40ba52:	d904      	bls.n	40ba5e <__udivdi3+0x18e>
  40ba54:	191b      	adds	r3, r3, r4
  40ba56:	f10c 35ff 	add.w	r5, ip, #4294967295
  40ba5a:	d36f      	bcc.n	40bb3c <__udivdi3+0x26c>
  40ba5c:	46ac      	mov	ip, r5
  40ba5e:	ebca 0303 	rsb	r3, sl, r3
  40ba62:	fbb3 f5f8 	udiv	r5, r3, r8
  40ba66:	fb08 3315 	mls	r3, r8, r5, r3
  40ba6a:	fb09 f905 	mul.w	r9, r9, r5
  40ba6e:	fa1f fb8b 	uxth.w	fp, fp
  40ba72:	ea4b 4703 	orr.w	r7, fp, r3, lsl #16
  40ba76:	45b9      	cmp	r9, r7
  40ba78:	d904      	bls.n	40ba84 <__udivdi3+0x1b4>
  40ba7a:	193f      	adds	r7, r7, r4
  40ba7c:	f105 33ff 	add.w	r3, r5, #4294967295
  40ba80:	d362      	bcc.n	40bb48 <__udivdi3+0x278>
  40ba82:	461d      	mov	r5, r3
  40ba84:	ea45 4c0c 	orr.w	ip, r5, ip, lsl #16
  40ba88:	fbac 2302 	umull	r2, r3, ip, r2
  40ba8c:	ebc9 0707 	rsb	r7, r9, r7
  40ba90:	429f      	cmp	r7, r3
  40ba92:	f04f 0500 	mov.w	r5, #0
  40ba96:	d34a      	bcc.n	40bb2e <__udivdi3+0x25e>
  40ba98:	d046      	beq.n	40bb28 <__udivdi3+0x258>
  40ba9a:	4662      	mov	r2, ip
  40ba9c:	462b      	mov	r3, r5
  40ba9e:	e75d      	b.n	40b95c <__udivdi3+0x8c>
  40baa0:	4094      	lsls	r4, r2
  40baa2:	f1c2 0920 	rsb	r9, r2, #32
  40baa6:	fa21 fc09 	lsr.w	ip, r1, r9
  40baaa:	4091      	lsls	r1, r2
  40baac:	fa20 f909 	lsr.w	r9, r0, r9
  40bab0:	0c26      	lsrs	r6, r4, #16
  40bab2:	fbbc f8f6 	udiv	r8, ip, r6
  40bab6:	fb06 cc18 	mls	ip, r6, r8, ip
  40baba:	b2a7      	uxth	r7, r4
  40babc:	fb07 f308 	mul.w	r3, r7, r8
  40bac0:	ea49 0901 	orr.w	r9, r9, r1
  40bac4:	ea4f 4119 	mov.w	r1, r9, lsr #16
  40bac8:	ea41 4c0c 	orr.w	ip, r1, ip, lsl #16
  40bacc:	4563      	cmp	r3, ip
  40bace:	fa00 f502 	lsl.w	r5, r0, r2
  40bad2:	d909      	bls.n	40bae8 <__udivdi3+0x218>
  40bad4:	eb1c 0c04 	adds.w	ip, ip, r4
  40bad8:	f108 32ff 	add.w	r2, r8, #4294967295
  40badc:	d23b      	bcs.n	40bb56 <__udivdi3+0x286>
  40bade:	4563      	cmp	r3, ip
  40bae0:	d939      	bls.n	40bb56 <__udivdi3+0x286>
  40bae2:	f1a8 0802 	sub.w	r8, r8, #2
  40bae6:	44a4      	add	ip, r4
  40bae8:	ebc3 0c0c 	rsb	ip, r3, ip
  40baec:	fbbc f3f6 	udiv	r3, ip, r6
  40baf0:	fb06 c113 	mls	r1, r6, r3, ip
  40baf4:	fb07 f203 	mul.w	r2, r7, r3
  40baf8:	fa1f f989 	uxth.w	r9, r9
  40bafc:	ea49 4101 	orr.w	r1, r9, r1, lsl #16
  40bb00:	428a      	cmp	r2, r1
  40bb02:	d907      	bls.n	40bb14 <__udivdi3+0x244>
  40bb04:	1909      	adds	r1, r1, r4
  40bb06:	f103 30ff 	add.w	r0, r3, #4294967295
  40bb0a:	d222      	bcs.n	40bb52 <__udivdi3+0x282>
  40bb0c:	428a      	cmp	r2, r1
  40bb0e:	d920      	bls.n	40bb52 <__udivdi3+0x282>
  40bb10:	3b02      	subs	r3, #2
  40bb12:	4421      	add	r1, r4
  40bb14:	1a89      	subs	r1, r1, r2
  40bb16:	ea43 4308 	orr.w	r3, r3, r8, lsl #16
  40bb1a:	e743      	b.n	40b9a4 <__udivdi3+0xd4>
  40bb1c:	463a      	mov	r2, r7
  40bb1e:	e705      	b.n	40b92c <__udivdi3+0x5c>
  40bb20:	4633      	mov	r3, r6
  40bb22:	e718      	b.n	40b956 <__udivdi3+0x86>
  40bb24:	460a      	mov	r2, r1
  40bb26:	e766      	b.n	40b9f6 <__udivdi3+0x126>
  40bb28:	40b0      	lsls	r0, r6
  40bb2a:	4290      	cmp	r0, r2
  40bb2c:	d2b5      	bcs.n	40ba9a <__udivdi3+0x1ca>
  40bb2e:	f10c 32ff 	add.w	r2, ip, #4294967295
  40bb32:	2300      	movs	r3, #0
  40bb34:	e712      	b.n	40b95c <__udivdi3+0x8c>
  40bb36:	4633      	mov	r3, r6
  40bb38:	4632      	mov	r2, r6
  40bb3a:	e70f      	b.n	40b95c <__udivdi3+0x8c>
  40bb3c:	459a      	cmp	sl, r3
  40bb3e:	d98d      	bls.n	40ba5c <__udivdi3+0x18c>
  40bb40:	f1ac 0c02 	sub.w	ip, ip, #2
  40bb44:	4423      	add	r3, r4
  40bb46:	e78a      	b.n	40ba5e <__udivdi3+0x18e>
  40bb48:	45b9      	cmp	r9, r7
  40bb4a:	d99a      	bls.n	40ba82 <__udivdi3+0x1b2>
  40bb4c:	3d02      	subs	r5, #2
  40bb4e:	4427      	add	r7, r4
  40bb50:	e798      	b.n	40ba84 <__udivdi3+0x1b4>
  40bb52:	4603      	mov	r3, r0
  40bb54:	e7de      	b.n	40bb14 <__udivdi3+0x244>
  40bb56:	4690      	mov	r8, r2
  40bb58:	e7c6      	b.n	40bae8 <__udivdi3+0x218>
  40bb5a:	3802      	subs	r0, #2
  40bb5c:	4421      	add	r1, r4
  40bb5e:	e735      	b.n	40b9cc <__udivdi3+0xfc>
  40bb60:	20554d49 	.word	0x20554d49
  40bb64:	65657246 	.word	0x65657246
  40bb68:	534f5452 	.word	0x534f5452
  40bb6c:	65634100 	.word	0x65634100
  40bb70:	580a3a6c 	.word	0x580a3a6c
  40bb74:	3025203d 	.word	0x3025203d
  40bb78:	0a66332e 	.word	0x0a66332e
  40bb7c:	25203d59 	.word	0x25203d59
  40bb80:	66332e30 	.word	0x66332e30
  40bb84:	203d5a0a 	.word	0x203d5a0a
  40bb88:	332e3025 	.word	0x332e3025
  40bb8c:	79470066 	.word	0x79470066
  40bb90:	0a3a6f72 	.word	0x0a3a6f72
  40bb94:	25203d58 	.word	0x25203d58
  40bb98:	66332e30 	.word	0x66332e30
  40bb9c:	203d590a 	.word	0x203d590a
  40bba0:	332e3025 	.word	0x332e3025
  40bba4:	3d5a0a66 	.word	0x3d5a0a66
  40bba8:	2e302520 	.word	0x2e302520
  40bbac:	25006633 	.word	0x25006633
  40bbb0:	79622075 	.word	0x79622075
  40bbb4:	20736574 	.word	0x20736574
  40bbb8:	65657246 	.word	0x65657246
  40bbbc:	00          	.byte	0x00
  40bbbd:	41          	.byte	0x41
  40bbbe:	6563      	.short	0x6563
  40bbc0:	58093a6c 	.word	0x58093a6c
  40bbc4:	25203d20 	.word	0x25203d20
  40bbc8:	66332e30 	.word	0x66332e30
  40bbcc:	3d205909 	.word	0x3d205909
  40bbd0:	2e302520 	.word	0x2e302520
  40bbd4:	5a096633 	.word	0x5a096633
  40bbd8:	25203d20 	.word	0x25203d20
  40bbdc:	66332e30 	.word	0x66332e30
  40bbe0:	7279470a 	.word	0x7279470a
  40bbe4:	58093a6f 	.word	0x58093a6f
  40bbe8:	25203d20 	.word	0x25203d20
  40bbec:	66332e30 	.word	0x66332e30
  40bbf0:	3d205909 	.word	0x3d205909
  40bbf4:	2e302520 	.word	0x2e302520
  40bbf8:	5a096633 	.word	0x5a096633
  40bbfc:	25203d20 	.word	0x25203d20
  40bc00:	66332e30 	.word	0x66332e30
  40bc04:	676e410a 	.word	0x676e410a
  40bc08:	093a656c 	.word	0x093a656c
  40bc0c:	203d2050 	.word	0x203d2050
  40bc10:	332e3025 	.word	0x332e3025
  40bc14:	20430966 	.word	0x20430966
  40bc18:	3025203d 	.word	0x3025203d
  40bc1c:	0966332e 	.word	0x0966332e
  40bc20:	203d204b 	.word	0x203d204b
  40bc24:	332e3025 	.word	0x332e3025
  40bc28:	45000a66 	.word	0x45000a66
  40bc2c:	726f7272 	.word	0x726f7272
  40bc30:	65722820 	.word	0x65722820
  40bc34:	6c6c6129 	.word	0x6c6c6129
  40bc38:	7461636f 	.word	0x7461636f
  40bc3c:	20676e69 	.word	0x20676e69
  40bc40:	6f6d656d 	.word	0x6f6d656d
  40bc44:	00007972 	.word	0x00007972

0040bc48 <all_twi_definitions>:
  40bc48:	40018000 40018100 00000013 00000013     ...@...@........

0040bc58 <null_dma_control>:
	...

0040bc60 <all_uart_definitions>:
  40bc60:	400e0600 400e0700 00000008 00000008     ...@...@........

0040bc70 <LED_DESCRIPTOR>:
  40bc70:	00000017 00000000 0000002e 00000000     ................
  40bc80:	00000019 00000000 00000000 00000001     ................

0040bc90 <p_uc_charset10x14>:
	...
  40bcac:	ccffccff 00000000 00000000 00000000     ................
  40bcbc:	00f000f0 00000000 00f000f0 00000000     ................
  40bccc:	c00cc00c fcfffcff c00cc00c fcfffcff     ................
  40bcdc:	c00cc00c 701e600c 3033303f fcfffcff     .....`.p?030....
  40bcec:	f0333033 c018e039 0cf00060 f0603cf0     303.9...`....<`.
  40bcfc:	000fc003 3cf0183c 18003cc0 f87ff03c     ....<..<.<..<...
  40bd0c:	8cc71cc3 ecdccccf 30307878 cc00fc00     ........xx00....
  40bd1c:	00000000 00440000 00f800ec 00000070     ......D.....p...
	...
  40bd34:	f03fc00f 18607878 0cc00cc0 00000000     ..?.xx`.........
  40bd44:	00000000 0cc00cc0 78781860 c00ff03f     ........`.xx?...
  40bd54:	00000000 e00e600c 8003c007 f83ff83f     .....`......?.?.
  40bd64:	c0078003 600ce00e 00030003 00030003     .......`........
  40bd74:	f03ff03f 00030003 00030003 ec004400     ?.?..........D..
  40bd84:	7000f800 00000000 00000000 00000000     ...p............
  40bd94:	00030003 00030003 00030003 00030003     ................
  40bda4:	00030003 3c001800 18003c00 00000000     .......<.<......
	...
  40bdbc:	0c000000 f0003c00 000fc003 00f0003c     .....<......<...
  40bdcc:	000000c0 f87ff03f ccc1fce0 0cc78cc3     ....?...........
  40bddc:	1cfc0cce f03ff87f 00000000 0c700c30     ......?.....0.p.
  40bdec:	fcfffcff 0c000c00 00000000 1c700c30     ............0.p.
  40bdfc:	7cc03ce0 ccc1ecc0 0ce78cc3 0c3c0c7e     .<.|........~.<.
  40be0c:	38703030 0cc01ce0 0cc30cc0 1ce30cc3     00p8............
  40be1c:	f03cf87f c007c003 c01cc00e c070c038     ..<.........8.p.
  40be2c:	fcfffcff c000c000 38fc30fc 0ccc1ccc     .........0.8....
  40be3c:	0ccc0ccc 1cce0ccc f0c3f8c7 f87ff03f     ............?...
  40be4c:	0cc31ce3 0cc30cc3 9ce30cc3 f030f871     ............q.0.
  40be5c:	00c000c0 00c000c0 fcc7fcc3 00dc00ce     ................
  40be6c:	00f000f8 f87ff03c 0cc39ce7 0cc30cc3     ....<...........
  40be7c:	9ce70cc3 f03cf87f 007e003c 0cc30ce7     ......<.<.~.....
  40be8c:	38c31cc3 e0e770c3 803fc07f 00000000     ...8.p....?.....
  40be9c:	60180000 f03cf03c 00006018 00000000     ...`<.<..`......
  40beac:	00000000 44180000 f83cec3c 00007018     .......D<.<..p..
  40bebc:	00000000 00030000 c00f8007 7038e01c     ..............8p
  40becc:	1ce03870 00000cc0 c00cc00c c00cc00c     p8..............
  40bedc:	c00cc00c c00cc00c c00cc00c 0cc00000     ................
  40beec:	38701ce0 e01c7038 8007c00f 00000003     ..p88p..........
  40befc:	00700030 00c000e0 ecc3ecc1 00e600c3     0.p.............
  40bf0c:	003c007e f871f030 0cc39ce3 fcc3fcc3     ~.<.0.q.........
  40bf1c:	1ce00cc0 f03ff87f fc7ffc3f c0c0c0e0     ......?.?.......
  40bf2c:	c0c0c0c0 c0e0c0c0 fc3ffc7f fcfffcff     ..........?.....
  40bf3c:	0cc30cc3 0cc30cc3 9ce70cc3 f03cf87f     ..............<.
  40bf4c:	f87ff03f 0cc01ce0 0cc00cc0 1ce00cc0     ?...............
  40bf5c:	30303870 fcfffcff 0cc00cc0 0cc00cc0     p800............
  40bf6c:	1ce00cc0 f03ff87f fcfffcff 0cc30cc3     ......?.........
  40bf7c:	0cc30cc3 0cc30cc3 0cc00cc0 fcfffcff     ................
  40bf8c:	00c300c3 00c300c3 00c300c3 00c000c0     ................
  40bf9c:	f87ff03f 0cc01ce0 0cc30cc0 1ce30cc3     ?...............
  40bfac:	f033f873 fcfffcff 00030003 00030003     s.3.............
  40bfbc:	00030003 fcfffcff 00000000 0cc00cc0     ................
  40bfcc:	fcfffcff 0cc00cc0 00000000 38003000     .............0.8
  40bfdc:	0cc01cc0 1cc00cc0 f0fff8ff 00c000c0     ................
  40bfec:	fcfffcff 80078007 e01cc00f 38707038     ............8pp8
  40bffc:	0cc01ce0 fcfffcff 0c000c00 0c000c00     ................
  40c00c:	0c000c00 0c000c00 fcfffcff 00380070     ............p.8.
  40c01c:	001f001f 00700038 fcfffcff fcfffcff     ....8.p.........
  40c02c:	000e001c 80030007 e000c001 fcfffcff     ................
  40c03c:	f87ff03f 0cc01ce0 0cc00cc0 1ce00cc0     ?...............
  40c04c:	f03ff87f fcfffcff 00c300c3 00c300c3     ..?.............
  40c05c:	00e700c3 003c007e f87ff03f 0cc01ce0     ....~.<.?.......
  40c06c:	ecc0ccc0 38e07cc0 ec3ffc7f fcfffcff     .....|.8..?.....
  40c07c:	80c300c3 c0c380c3 70e7c0c3 1c3c3c7e     ...........p~<<.
  40c08c:	1c7e183c 0cc30ce7 0cc30cc3 9cc30cc3     <.~.............
  40c09c:	f060f8e1 00c000c0 00c000c0 fcfffcff     ..`.............
  40c0ac:	00c000c0 00c000c0 f8fff0ff 0c001c00     ................
  40c0bc:	0c000c00 1c000c00 f0fff8ff e0ffc0ff     ................
  40c0cc:	38007000 1c001c00 70003800 c0ffe0ff     .p.8.....8.p....
  40c0dc:	f8fff0ff 3c001c00 f800f800 1c003c00     .......<.....<..
  40c0ec:	f0fff8ff 7cf83cf0 c00fe01c 80078007     .....<.|........
  40c0fc:	e01cc00f 3cf07cf8 00fe00fc 80030007     .....|.<........
  40c10c:	fc01fc01 00078003 00fc00fe 7cc03cc0     .............<.|
  40c11c:	ccc1ecc0 0cc78cc3 0cdc0cce 0cf00cf8     ................
  40c12c:	00000000 fcfffcff 0cc00cc0 00000cc0     ................
  40c13c:	00000000 00300030 000c000c 00030003     ....0.0.........
  40c14c:	c000c000 30003000 00000000 0cc00cc0     .....0.0........
  40c15c:	fcff0cc0 0000fcff 00000000 001c000c     ................
  40c16c:	00700038 00e000e0 00380070 000c001c     8.p.....p.8.....
  40c17c:	0c000c00 0c000c00 0c000c00 0c000c00     ................
  40c18c:	0c000c00 00000000 00e000c0 00380070     ............p.8.
  40c19c:	00000018 00000000 78063000 cc0cfc0e     .........0.x....
  40c1ac:	cc0ccc0c cc0ecc0c f803fc07 fcfffcff     ................
  40c1bc:	0c030c03 0c030c03 9c030c03 f000f801     ................
  40c1cc:	f807f003 0c0c1c0e 0c0c0c0c 1c0e0c0c     ................
  40c1dc:	30033807 f801f000 0c039c03 0c030c03     .8.0............
  40c1ec:	0c030c03 fcfffcff f807f003 cc0cdc0e     ................
  40c1fc:	cc0ccc0c dc0ecc0c 9003d807 00030000     ................
  40c20c:	fc7ffc3f 00e300e3 00300070 00000000     ?.......p.0.....
  40c21c:	9c071803 cc0ccc0f cc0ccc0c dc0ccc0c     ................
  40c22c:	f007f80f fcfffcff 00030003 00030003     ................
  40c23c:	fc018003 0000fc00 00000000 00000000     ................
  40c24c:	fc1bfc1b 00000000 00000000 30000000     ...............0
  40c25c:	1c003800 0c000c00 f8cf1c00 0000f0cf     .8..............
  40c26c:	fcff0000 e000fcff f003e001 1c0e3807     .............8..
  40c27c:	00000c0c 00000000 0cc00cc0 fcfffcff     ................
  40c28c:	0c000c00 00000000 fc0ffc0f 0007000e     ................
  40c29c:	c003c003 000e0007 fc0ffc0f fc0ffc0f     ................
  40c2ac:	00070003 000c000e 000e000c fc03fc07     ................
  40c2bc:	f807f003 0c0c1c0e 0c0c0c0c 1c0e0c0c     ................
  40c2cc:	f003f807 fc0ffc0f c00cc00c c00cc00c     ................
  40c2dc:	c00fc00c 00038007 80070003 c00cc00f     ................
  40c2ec:	c00cc00c c00cc00c fc0ffc0f fc0ffc0f     ................
  40c2fc:	00078003 000c000e 000e000c 00030007     ................
  40c30c:	9c071803 cc0ccc0f cc0ccc0c fc0ccc0c     ................
  40c31c:	3006780e 000c0000 f0ff000c 1c0cf8ff     .x.0............
  40c32c:	380c1c0c 0000300c f80ff00f 0c001c00     ...8.0..........
  40c33c:	0c000c00 1c000c00 f00ff80f e00fc00f     ................
  40c34c:	38007000 1c001c00 70003800 c00fe00f     .p.8.....8.p....
  40c35c:	f80ff00f 1c001c00 f800f800 1c001c00     ................
  40c36c:	f00ff80f 1c0e0c0c f0033807 e001e001     .........8......
  40c37c:	3807f003 0c0c1c0e 000e000c 9c030c07     ...8............
  40c38c:	f001f801 00078003 000c000e 1c0c0c0c     ................
  40c39c:	7c0c3c0c cc0dec0c 0c0f8c0f 0c0c0c0e     .<.|............
  40c3ac:	00030000 f03f8007 1ce0f87c 0cc00cc0     ......?.|.......
  40c3bc:	00000cc0 0c030c03 fc7ffc3f 0cc30ce3     ........?.......
  40c3cc:	0ce00cc0 0c300c70 0cc00000 0cc00cc0     ....p.0.........
  40c3dc:	f87c1ce0 8007f03f 00000003 00c000c0     ..|.?...........
  40c3ec:	00c000c0 00c000c0 00c000c0 00c000c0     ................
  40c3fc:	fcfffcff fcfffcff fcfffcff fcfffcff     ................
  40c40c:	fcfffcff 09097325 25096325 75250975     ....%s..%c.%u.%u
  40c41c:	0d752509 4449000a 5400454c 5320726d     .%u...IDLE.Tmr S
  40c42c:	00006376 00000000 00000000 0000000a     vc..............
  40c43c:	00000f03                                ....

0040c440 <offsetAcel>:
  40c440:	43af0000 44834000 00000000              ...C.@.D....

0040c44c <offsetGyro>:
  40c44c:	40a00000 00000000 00000000 20495754     ...@........TWI 
  40c45c:	74696e69 72724520 0021726f 4c584441     init Error!.ADXL
  40c46c:	696e6920 72452074 21726f72 47544900      init Error!.ITG
  40c47c:	696e6920 72452074 21726f72 72724500      init Error!.Err
  40c48c:	4920726f 0021554d 63617473 766f206b     or IMU!.stack ov
  40c49c:	6c667265 2520776f 73252078 43000a0d     erflow %x %s...C
  40c4ac:	6f736e6f 4f20656c 000a214b 3064654c     onsole OK!..Led0
  40c4bc:	69614600 2064656c 63206f74 74616572     .Failed to creat
  40c4cc:	65742065 6c207473 74206465 0d6b7361     e test led task.
  40c4dc:	4d49000a 00545f55 6c696146 74206465     ..IMU_T.Failed t
  40c4ec:	7263206f 65746165 73657420 4d492074     o create test IM
  40c4fc:	73615455 000a0d6b 5f44434c 61460054     UTask...LCD_T.Fa
  40c50c:	64656c69 206f7420 61657263 74206574     iled to create t
  40c51c:	20747365 5444434c 0d6b7361 5854000a     est LCDTask...TX
  40c52c:	4600545f 656c6961 6f742064 65726320     _T.Failed to cre
  40c53c:	20657461 74736574 5f585420 6b736154     ate test TX_Task
  40c54c:	00000a0d                                ....

0040c550 <npio2_hw>:
  40c550:	3ff921fb 400921fb 4012d97c 401921fb     .!.?.!.@|..@.!.@
  40c560:	401f6a7a 4022d97c 4025fdbb 402921fb     zj.@|."@..%@.!)@
  40c570:	402c463a 402f6a7a 4031475c 4032d97c     :F,@zj/@\G1@|.2@
  40c580:	40346b9c 4035fdbb 40378fdb 403921fb     .k4@..5@..7@.!9@
  40c590:	403ab41b 403c463a 403dd85a 403f6a7a     ..:@:F<@Z.=@zj?@
  40c5a0:	40407e4c 4041475c 4042106c 4042d97c     L~@@\GA@l.B@|.B@
  40c5b0:	4043a28c 40446b9c 404534ac 4045fdbb     ..C@.kD@.4E@..E@
  40c5c0:	4046c6cb 40478fdb 404858eb 404921fb     ..F@..G@.XH@.!I@

0040c5d0 <two_over_pi>:
  40c5d0:	00a2f983 006e4e44 001529fc 002757d1     ....DNn..)...W'.
  40c5e0:	00f534dd 00c0db62 0095993c 00439041     .4..b...<...A.C.
  40c5f0:	00fe5163 00abdebb 00c561b7 00246e3a     cQ.......a..:n$.
  40c600:	00424dd2 00e00649 002eea09 00d1921c     .MB.I...........
  40c610:	00fe1deb 001cb129 00a73ee8 008235f5     ....)....>...5..
  40c620:	002ebb44 0084e99c 007026b4 005f7e41     D........&p.A~_.
  40c630:	003991d6 00398353 0039f49c 00845f8b     ..9.S.9...9.._..
  40c640:	00bdf928 003b1ff8 0097ffde 0005980f     (.....;.........
  40c650:	00ef2f11 008b5a0a 006d1f6d 00367ecf     ./...Z..m.m..~6.
  40c660:	0027cb09 00b74f46 003f669e 005fea2d     ..'.FO...f?.-._.
  40c670:	007527ba 00c7ebe5 00f17b3d 000739f7     .'u.....={...9..
  40c680:	008a5292 00ea6bfb 005fb11f 008d5d08     .R...k...._..]..
  40c690:	00560330 0046fc7b 006babf0 00cfbc20     0.V.{.F...k. ...
  40c6a0:	009af436 001da9e3 0091615e 00e61b08     6.......^a......
  40c6b0:	00659985 005f14a0 0068408d 00ffd880     ..e..._..@h.....
  40c6c0:	004d7327 00310606 001556ca 0073a8c9     'sM...1..V....s.
  40c6d0:	0060e27b 00c08c6b                       {.`.k...

0040c6d8 <init_jk>:
  40c6d8:	00000002 00000003 00000004 00000006     ................

0040c6e8 <PIo2>:
  40c6e8:	40000000 3ff921fb 00000000 3e74442d     ...@.!.?....-Dt>
  40c6f8:	80000000 3cf84698 60000000 3b78cc51     .....F.<...`Q.x;
  40c708:	80000000 39f01b83 40000000 387a2520     .......9...@ %z8
  40c718:	80000000 36e38222 00000000 3569f31d     ...."..6......i5
  40c728:	00000043                                C...

0040c72c <_global_impure_ptr>:
  40c72c:	200000e0                                ... 

0040c730 <zeroes.6763>:
  40c730:	30303030 30303030 30303030 30303030     0000000000000000
  40c740:	00464e49 00666e69 004e414e 006e616e     INF.inf.NAN.nan.
  40c750:	33323130 37363534 42413938 46454443     0123456789ABCDEF
  40c760:	00000000 33323130 37363534 62613938     ....0123456789ab
  40c770:	66656463 00000000 6c756e28 0000296c     cdef....(null)..
  40c780:	00000030                                0...

0040c784 <blanks.6762>:
  40c784:	20202020 20202020 20202020 20202020                     

0040c794 <zeroes.6721>:
  40c794:	30303030 30303030 30303030 30303030     0000000000000000

0040c7a4 <blanks.6720>:
  40c7a4:	20202020 20202020 20202020 20202020                     
  40c7b4:	69666e49 7974696e 00000000 004e614e     Infinity....NaN.
  40c7c4:	49534f50 00000058 0000002e              POSIX.......

0040c7d0 <__mprec_tens>:
  40c7d0:	00000000 3ff00000 00000000 40240000     .......?......$@
  40c7e0:	00000000 40590000 00000000 408f4000     ......Y@.....@.@
  40c7f0:	00000000 40c38800 00000000 40f86a00     .......@.....j.@
  40c800:	00000000 412e8480 00000000 416312d0     .......A......cA
  40c810:	00000000 4197d784 00000000 41cdcd65     .......A....e..A
  40c820:	20000000 4202a05f e8000000 42374876     ... _..B....vH7B
  40c830:	a2000000 426d1a94 e5400000 42a2309c     ......mB..@..0.B
  40c840:	1e900000 42d6bcc4 26340000 430c6bf5     .......B..4&.k.C
  40c850:	37e08000 4341c379 85d8a000 43763457     ...7y.AC....W4vC
  40c860:	674ec800 43abc16d 60913d00 43e158e4     ..Ngm..C.=.`.X.C
  40c870:	78b58c40 4415af1d d6e2ef50 444b1ae4     @..x...DP.....KD
  40c880:	064dd592 4480f0cf c7e14af6 44b52d02     ..M....D.J...-.D
  40c890:	79d99db4 44ea7843                       ...yCx.D

0040c898 <__mprec_bigtens>:
  40c898:	37e08000 4341c379 b5056e17 4693b8b5     ...7y.AC.n.....F
  40c8a8:	e93ff9f5 4d384f03 f9301d32 5a827748     ..?..O8M2.0.Hw.Z
  40c8b8:	7f73bf3c 75154fdd                       <.s..O.u

0040c8c0 <p05.5269>:
  40c8c0:	00000005 00000019 0000007d              ........}...

0040c8cc <_init>:
  40c8cc:	b5f8      	push	{r3, r4, r5, r6, r7, lr}
  40c8ce:	bf00      	nop
  40c8d0:	bcf8      	pop	{r3, r4, r5, r6, r7}
  40c8d2:	bc08      	pop	{r3}
  40c8d4:	469e      	mov	lr, r3
  40c8d6:	4770      	bx	lr

0040c8d8 <__init_array_start>:
  40c8d8:	00408f39 	.word	0x00408f39

0040c8dc <__frame_dummy_init_array_entry>:
  40c8dc:	004000e9                                ..@.

0040c8e0 <_fini>:
  40c8e0:	b5f8      	push	{r3, r4, r5, r6, r7, lr}
  40c8e2:	bf00      	nop
  40c8e4:	bcf8      	pop	{r3, r4, r5, r6, r7}
  40c8e6:	bc08      	pop	{r3}
  40c8e8:	469e      	mov	lr, r3
  40c8ea:	4770      	bx	lr

0040c8ec <__fini_array_start>:
  40c8ec:	004000c5 	.word	0x004000c5

Disassembly of section .relocate:

20000000 <SystemInit>:
20000000:	4b1a      	ldr	r3, [pc, #104]	; (2000006c <SystemInit+0x6c>)
20000002:	f44f 7240 	mov.w	r2, #768	; 0x300
20000006:	601a      	str	r2, [r3, #0]
20000008:	f5a3 63c0 	sub.w	r3, r3, #1536	; 0x600
2000000c:	6a1a      	ldr	r2, [r3, #32]
2000000e:	01d2      	lsls	r2, r2, #7
20000010:	d502      	bpl.n	20000018 <SystemInit+0x18>
20000012:	4a17      	ldr	r2, [pc, #92]	; (20000070 <SystemInit+0x70>)
20000014:	621a      	str	r2, [r3, #32]
20000016:	e005      	b.n	20000024 <SystemInit+0x24>
20000018:	4a16      	ldr	r2, [pc, #88]	; (20000074 <SystemInit+0x74>)
2000001a:	621a      	str	r2, [r3, #32]
2000001c:	6e9a      	ldr	r2, [r3, #104]	; 0x68
2000001e:	07d0      	lsls	r0, r2, #31
20000020:	d5fc      	bpl.n	2000001c <SystemInit+0x1c>
20000022:	e7f6      	b.n	20000012 <SystemInit+0x12>
20000024:	6e99      	ldr	r1, [r3, #104]	; 0x68
20000026:	4a14      	ldr	r2, [pc, #80]	; (20000078 <SystemInit+0x78>)
20000028:	03c9      	lsls	r1, r1, #15
2000002a:	d5fb      	bpl.n	20000024 <SystemInit+0x24>
2000002c:	6b11      	ldr	r1, [r2, #48]	; 0x30
2000002e:	f021 0103 	bic.w	r1, r1, #3
20000032:	f041 0101 	orr.w	r1, r1, #1
20000036:	6311      	str	r1, [r2, #48]	; 0x30
20000038:	6e9a      	ldr	r2, [r3, #104]	; 0x68
2000003a:	0712      	lsls	r2, r2, #28
2000003c:	d5fc      	bpl.n	20000038 <SystemInit+0x38>
2000003e:	490f      	ldr	r1, [pc, #60]	; (2000007c <SystemInit+0x7c>)
20000040:	4a0d      	ldr	r2, [pc, #52]	; (20000078 <SystemInit+0x78>)
20000042:	6291      	str	r1, [r2, #40]	; 0x28
20000044:	6e9a      	ldr	r2, [r3, #104]	; 0x68
20000046:	0790      	lsls	r0, r2, #30
20000048:	d5fc      	bpl.n	20000044 <SystemInit+0x44>
2000004a:	4a0b      	ldr	r2, [pc, #44]	; (20000078 <SystemInit+0x78>)
2000004c:	2111      	movs	r1, #17
2000004e:	6311      	str	r1, [r2, #48]	; 0x30
20000050:	6e9a      	ldr	r2, [r3, #104]	; 0x68
20000052:	0711      	lsls	r1, r2, #28
20000054:	d5fc      	bpl.n	20000050 <SystemInit+0x50>
20000056:	4a08      	ldr	r2, [pc, #32]	; (20000078 <SystemInit+0x78>)
20000058:	2112      	movs	r1, #18
2000005a:	6311      	str	r1, [r2, #48]	; 0x30
2000005c:	6e9a      	ldr	r2, [r3, #104]	; 0x68
2000005e:	0712      	lsls	r2, r2, #28
20000060:	d5fc      	bpl.n	2000005c <SystemInit+0x5c>
20000062:	4a07      	ldr	r2, [pc, #28]	; (20000080 <SystemInit+0x80>)
20000064:	4b07      	ldr	r3, [pc, #28]	; (20000084 <SystemInit+0x84>)
20000066:	601a      	str	r2, [r3, #0]
20000068:	4770      	bx	lr
2000006a:	bf00      	nop
2000006c:	400e0a00 	.word	0x400e0a00
20000070:	01370809 	.word	0x01370809
20000074:	00370809 	.word	0x00370809
20000078:	400e0400 	.word	0x400e0400
2000007c:	20073f01 	.word	0x20073f01
20000080:	02dc6c00 	.word	0x02dc6c00
20000084:	200000c8 	.word	0x200000c8

20000088 <system_init_flash>:
20000088:	4b0a      	ldr	r3, [pc, #40]	; (200000b4 <system_init_flash+0x2c>)
2000008a:	4298      	cmp	r0, r3
2000008c:	4b0a      	ldr	r3, [pc, #40]	; (200000b8 <system_init_flash+0x30>)
2000008e:	d801      	bhi.n	20000094 <system_init_flash+0xc>
20000090:	2200      	movs	r2, #0
20000092:	e00c      	b.n	200000ae <system_init_flash+0x26>
20000094:	4a09      	ldr	r2, [pc, #36]	; (200000bc <system_init_flash+0x34>)
20000096:	4290      	cmp	r0, r2
20000098:	d802      	bhi.n	200000a0 <system_init_flash+0x18>
2000009a:	f44f 7280 	mov.w	r2, #256	; 0x100
2000009e:	e006      	b.n	200000ae <system_init_flash+0x26>
200000a0:	4a07      	ldr	r2, [pc, #28]	; (200000c0 <system_init_flash+0x38>)
200000a2:	4290      	cmp	r0, r2
200000a4:	bf94      	ite	ls
200000a6:	f44f 7200 	movls.w	r2, #512	; 0x200
200000aa:	f44f 7240 	movhi.w	r2, #768	; 0x300
200000ae:	601a      	str	r2, [r3, #0]
200000b0:	4770      	bx	lr
200000b2:	bf00      	nop
200000b4:	01406f3f 	.word	0x01406f3f
200000b8:	400e0a00 	.word	0x400e0a00
200000bc:	01e847ff 	.word	0x01e847ff
200000c0:	02dc6bff 	.word	0x02dc6bff

200000c4 <sizeRecBuf>:
200000c4:	00000032                                2...

200000c8 <SystemCoreClock>:
200000c8:	003d0900                                ..=.

200000cc <uxCriticalNesting>:
200000cc:	aaaaaaaa                                ....

200000d0 <xFreeBytesRemaining>:
200000d0:	000030f0                                .0..

200000d4 <xNextTaskUnblockTime>:
200000d4:	ffffffff                                ....

200000d8 <configBWRate>:
200000d8:	00000006 00000000                       ........

200000e0 <impure_data>:
200000e0:	00000000 200003cc 20000434 2000049c     ....... 4.. ... 
	...
20000114:	0040c728 00000000 00000000 00000000     (.@.............
	...
20000188:	00000001 00000000 abcd330e e66d1234     .........3..4.m.
20000198:	0005deec 0000000b 00000000 00000000     ................
	...

20000508 <_impure_ptr>:
20000508:	200000e0                                ... 

2000050c <__malloc_av_>:
	...
20000514:	2000050c 2000050c 20000514 20000514     ... ... ... ... 
20000524:	2000051c 2000051c 20000524 20000524     ... ... $.. $.. 
20000534:	2000052c 2000052c 20000534 20000534     ,.. ,.. 4.. 4.. 
20000544:	2000053c 2000053c 20000544 20000544     <.. <.. D.. D.. 
20000554:	2000054c 2000054c 20000554 20000554     L.. L.. T.. T.. 
20000564:	2000055c 2000055c 20000564 20000564     \.. \.. d.. d.. 
20000574:	2000056c 2000056c 20000574 20000574     l.. l.. t.. t.. 
20000584:	2000057c 2000057c 20000584 20000584     |.. |.. ... ... 
20000594:	2000058c 2000058c 20000594 20000594     ... ... ... ... 
200005a4:	2000059c 2000059c 200005a4 200005a4     ... ... ... ... 
200005b4:	200005ac 200005ac 200005b4 200005b4     ... ... ... ... 
200005c4:	200005bc 200005bc 200005c4 200005c4     ... ... ... ... 
200005d4:	200005cc 200005cc 200005d4 200005d4     ... ... ... ... 
200005e4:	200005dc 200005dc 200005e4 200005e4     ... ... ... ... 
200005f4:	200005ec 200005ec 200005f4 200005f4     ... ... ... ... 
20000604:	200005fc 200005fc 20000604 20000604     ... ... ... ... 
20000614:	2000060c 2000060c 20000614 20000614     ... ... ... ... 
20000624:	2000061c 2000061c 20000624 20000624     ... ... $.. $.. 
20000634:	2000062c 2000062c 20000634 20000634     ,.. ,.. 4.. 4.. 
20000644:	2000063c 2000063c 20000644 20000644     <.. <.. D.. D.. 
20000654:	2000064c 2000064c 20000654 20000654     L.. L.. T.. T.. 
20000664:	2000065c 2000065c 20000664 20000664     \.. \.. d.. d.. 
20000674:	2000066c 2000066c 20000674 20000674     l.. l.. t.. t.. 
20000684:	2000067c 2000067c 20000684 20000684     |.. |.. ... ... 
20000694:	2000068c 2000068c 20000694 20000694     ... ... ... ... 
200006a4:	2000069c 2000069c 200006a4 200006a4     ... ... ... ... 
200006b4:	200006ac 200006ac 200006b4 200006b4     ... ... ... ... 
200006c4:	200006bc 200006bc 200006c4 200006c4     ... ... ... ... 
200006d4:	200006cc 200006cc 200006d4 200006d4     ... ... ... ... 
200006e4:	200006dc 200006dc 200006e4 200006e4     ... ... ... ... 
200006f4:	200006ec 200006ec 200006f4 200006f4     ... ... ... ... 
20000704:	200006fc 200006fc 20000704 20000704     ... ... ... ... 
20000714:	2000070c 2000070c 20000714 20000714     ... ... ... ... 
20000724:	2000071c 2000071c 20000724 20000724     ... ... $.. $.. 
20000734:	2000072c 2000072c 20000734 20000734     ,.. ,.. 4.. 4.. 
20000744:	2000073c 2000073c 20000744 20000744     <.. <.. D.. D.. 
20000754:	2000074c 2000074c 20000754 20000754     L.. L.. T.. T.. 
20000764:	2000075c 2000075c 20000764 20000764     \.. \.. d.. d.. 
20000774:	2000076c 2000076c 20000774 20000774     l.. l.. t.. t.. 
20000784:	2000077c 2000077c 20000784 20000784     |.. |.. ... ... 
20000794:	2000078c 2000078c 20000794 20000794     ... ... ... ... 
200007a4:	2000079c 2000079c 200007a4 200007a4     ... ... ... ... 
200007b4:	200007ac 200007ac 200007b4 200007b4     ... ... ... ... 
200007c4:	200007bc 200007bc 200007c4 200007c4     ... ... ... ... 
200007d4:	200007cc 200007cc 200007d4 200007d4     ... ... ... ... 
200007e4:	200007dc 200007dc 200007e4 200007e4     ... ... ... ... 
200007f4:	200007ec 200007ec 200007f4 200007f4     ... ... ... ... 
20000804:	200007fc 200007fc 20000804 20000804     ... ... ... ... 
20000814:	2000080c 2000080c 20000814 20000814     ... ... ... ... 
20000824:	2000081c 2000081c 20000824 20000824     ... ... $.. $.. 
20000834:	2000082c 2000082c 20000834 20000834     ,.. ,.. 4.. 4.. 
20000844:	2000083c 2000083c 20000844 20000844     <.. <.. D.. D.. 
20000854:	2000084c 2000084c 20000854 20000854     L.. L.. T.. T.. 
20000864:	2000085c 2000085c 20000864 20000864     \.. \.. d.. d.. 
20000874:	2000086c 2000086c 20000874 20000874     l.. l.. t.. t.. 
20000884:	2000087c 2000087c 20000884 20000884     |.. |.. ... ... 
20000894:	2000088c 2000088c 20000894 20000894     ... ... ... ... 
200008a4:	2000089c 2000089c 200008a4 200008a4     ... ... ... ... 
200008b4:	200008ac 200008ac 200008b4 200008b4     ... ... ... ... 
200008c4:	200008bc 200008bc 200008c4 200008c4     ... ... ... ... 
200008d4:	200008cc 200008cc 200008d4 200008d4     ... ... ... ... 
200008e4:	200008dc 200008dc 200008e4 200008e4     ... ... ... ... 
200008f4:	200008ec 200008ec 200008f4 200008f4     ... ... ... ... 
20000904:	200008fc 200008fc 20000904 20000904     ... ... ... ... 

20000914 <__malloc_trim_threshold>:
20000914:	00020000                                ....

20000918 <__malloc_sbrk_base>:
20000918:	ffffffff                                ....

2000091c <lconv>:
2000091c:	0040c7cc 0040c760 0040c760 0040c760     ..@.`.@.`.@.`.@.
2000092c:	0040c760 0040c760 0040c760 0040c760     `.@.`.@.`.@.`.@.
2000093c:	0040c760 0040c760 ffffffff ffffffff     `.@.`.@.........
2000094c:	ffffffff 0000ffff                       ........

20000954 <lc_ctype_charset>:
20000954:	49435341 00000049 00000000 00000000     ASCII...........
	...

20000974 <__mb_cur_max>:
20000974:	00000001                                ....

20000978 <__wctomb>:
20000978:	0040b305                                ..@.
